ARM GAS  C:\Users\kroko\AppData\Local\Temp\ccpAdhTr.s 			page 1


   1              		.cpu cortex-m4
   2              		.arch armv7e-m
   3              		.fpu fpv4-sp-d16
   4              		.eabi_attribute 27, 1
   5              		.eabi_attribute 28, 1
   6              		.eabi_attribute 20, 1
   7              		.eabi_attribute 21, 1
   8              		.eabi_attribute 23, 3
   9              		.eabi_attribute 24, 1
  10              		.eabi_attribute 25, 1
  11              		.eabi_attribute 26, 1
  12              		.eabi_attribute 30, 1
  13              		.eabi_attribute 34, 1
  14              		.eabi_attribute 18, 4
  15              		.file	"main.c"
  16              		.text
  17              	.Ltext0:
  18              		.cfi_sections	.debug_frame
  19              		.file 1 "Core/Src/main.c"
  20              		.section	.text.MX_GPIO_Init,"ax",%progbits
  21              		.align	1
  22              		.syntax unified
  23              		.thumb
  24              		.thumb_func
  26              	MX_GPIO_Init:
  27              	.LFB150:
   1:Core/Src/main.c **** /* USER CODE BEGIN Header */
   2:Core/Src/main.c **** /**
   3:Core/Src/main.c ****   ******************************************************************************
   4:Core/Src/main.c ****   * @file           : main.c
   5:Core/Src/main.c ****   * @brief          : Main program body
   6:Core/Src/main.c ****   ******************************************************************************
   7:Core/Src/main.c ****   * @attention
   8:Core/Src/main.c ****   *
   9:Core/Src/main.c ****   * Copyright (c) 2024 STMicroelectronics.
  10:Core/Src/main.c ****   * All rights reserved.
  11:Core/Src/main.c ****   *
  12:Core/Src/main.c ****   * This software is licensed under terms that can be found in the LICENSE file
  13:Core/Src/main.c ****   * in the root directory of this software component.
  14:Core/Src/main.c ****   * If no LICENSE file comes with this software, it is provided AS-IS.
  15:Core/Src/main.c ****   *
  16:Core/Src/main.c ****   ******************************************************************************
  17:Core/Src/main.c ****   */
  18:Core/Src/main.c **** /* USER CODE END Header */
  19:Core/Src/main.c **** /* Includes ------------------------------------------------------------------*/
  20:Core/Src/main.c **** #include "main.h"
  21:Core/Src/main.c **** #include "fatfs.h"
  22:Core/Src/main.c **** 
  23:Core/Src/main.c **** /* Private includes ----------------------------------------------------------*/
  24:Core/Src/main.c **** /* USER CODE BEGIN Includes */
  25:Core/Src/main.c **** #include <stdlib.h>
  26:Core/Src/main.c **** #include <dispcolor.h>
  27:Core/Src/main.c **** #include <gpio.h>
  28:Core/Src/main.c **** #include "info_disp.h"
  29:Core/Src/main.c **** #include "cst816s.h"
  30:Core/Src/main.c **** #include <string.h>
  31:Core/Src/main.c **** #include <stdio.h>
ARM GAS  C:\Users\kroko\AppData\Local\Temp\ccpAdhTr.s 			page 2


  32:Core/Src/main.c **** /* USER CODE END Includes */
  33:Core/Src/main.c **** 
  34:Core/Src/main.c **** /* Private typedef -----------------------------------------------------------*/
  35:Core/Src/main.c **** /* USER CODE BEGIN PTD */
  36:Core/Src/main.c **** 
  37:Core/Src/main.c **** /* USER CODE END PTD */
  38:Core/Src/main.c **** 
  39:Core/Src/main.c **** /* Private define ------------------------------------------------------------*/
  40:Core/Src/main.c **** /* USER CODE BEGIN PD */
  41:Core/Src/main.c **** #define STATE_INIT    0
  42:Core/Src/main.c **** #define STATE_DISPLAY 1
  43:Core/Src/main.c **** #define STATE_800INIT 2
  44:Core/Src/main.c **** 
  45:Core/Src/main.c **** #define SCROLL_MODE_AUTO  0
  46:Core/Src/main.c **** #define SCROLL_MODE_HALT  1
  47:Core/Src/main.c **** #define SCROLL_MODE_CLICK 2
  48:Core/Src/main.c **** 
  49:Core/Src/main.c **** #define TRANSMIT_MODE_GET 0
  50:Core/Src/main.c **** #define TRANSMIT_MODE_SET 1
  51:Core/Src/main.c **** 
  52:Core/Src/main.c **** 
  53:Core/Src/main.c **** #define RX_BUFFER_SIZE 512
  54:Core/Src/main.c **** #define TX_BUFFER_SIZE 128
  55:Core/Src/main.c **** 
  56:Core/Src/main.c **** #define RTC_BKP_CONSTANT  0x2345
  57:Core/Src/main.c **** /* USER CODE END PD */
  58:Core/Src/main.c **** 
  59:Core/Src/main.c **** /* Private macro -------------------------------------------------------------*/
  60:Core/Src/main.c **** /* USER CODE BEGIN PM */
  61:Core/Src/main.c **** 
  62:Core/Src/main.c **** /* USER CODE END PM */
  63:Core/Src/main.c **** 
  64:Core/Src/main.c **** /* Private variables ---------------------------------------------------------*/
  65:Core/Src/main.c **** I2C_HandleTypeDef hi2c1;
  66:Core/Src/main.c **** 
  67:Core/Src/main.c **** IWDG_HandleTypeDef hiwdg;
  68:Core/Src/main.c **** 
  69:Core/Src/main.c **** RTC_HandleTypeDef hrtc;
  70:Core/Src/main.c **** 
  71:Core/Src/main.c **** SPI_HandleTypeDef hspi1;
  72:Core/Src/main.c **** SPI_HandleTypeDef hspi2;
  73:Core/Src/main.c **** // DMA_HandleTypeDef hdma_spi1_tx;
  74:Core/Src/main.c **** 
  75:Core/Src/main.c **** UART_HandleTypeDef huart4;
  76:Core/Src/main.c **** UART_HandleTypeDef huart5;
  77:Core/Src/main.c **** UART_HandleTypeDef huart2;
  78:Core/Src/main.c **** UART_HandleTypeDef huart3;
  79:Core/Src/main.c **** UART_HandleTypeDef huart6;
  80:Core/Src/main.c **** DMA_HandleTypeDef hdma_uart4_tx;
  81:Core/Src/main.c **** DMA_HandleTypeDef hdma_uart4_rx;
  82:Core/Src/main.c **** DMA_HandleTypeDef hdma_uart5_rx;
  83:Core/Src/main.c **** DMA_HandleTypeDef hdma_uart5_tx;
  84:Core/Src/main.c **** DMA_HandleTypeDef hdma_usart2_rx;
  85:Core/Src/main.c **** DMA_HandleTypeDef hdma_usart2_tx;
  86:Core/Src/main.c **** DMA_HandleTypeDef hdma_usart3_rx;
  87:Core/Src/main.c **** DMA_HandleTypeDef hdma_usart3_tx;
  88:Core/Src/main.c **** DMA_HandleTypeDef hdma_usart6_rx;
ARM GAS  C:\Users\kroko\AppData\Local\Temp\ccpAdhTr.s 			page 3


  89:Core/Src/main.c **** DMA_HandleTypeDef hdma_usart6_tx;
  90:Core/Src/main.c **** 
  91:Core/Src/main.c **** /* USER CODE BEGIN PV */
  92:Core/Src/main.c **** #define DEV0_UART &huart4
  93:Core/Src/main.c **** #define DEV3_UART &huart5
  94:Core/Src/main.c **** 
  95:Core/Src/main.c **** #define DEV_STATE_IN    1
  96:Core/Src/main.c **** #define DEV_STATE_UNIN  0
  97:Core/Src/main.c **** 
  98:Core/Src/main.c **** 
  99:Core/Src/main.c **** #define SIM800_UART &huart6
 100:Core/Src/main.c **** /* USER CODE END PV */
 101:Core/Src/main.c **** 
 102:Core/Src/main.c **** /* Private function prototypes -----------------------------------------------*/
 103:Core/Src/main.c **** void SystemClock_Config(void);
 104:Core/Src/main.c **** static void MX_GPIO_Init(void);
 105:Core/Src/main.c **** static void MX_DMA_Init(void);
 106:Core/Src/main.c **** static void MX_SPI1_Init(void);
 107:Core/Src/main.c **** static void MX_UART5_Init(void);
 108:Core/Src/main.c **** static void MX_USART6_UART_Init(void);
 109:Core/Src/main.c **** static void MX_SPI2_Init(void);
 110:Core/Src/main.c **** static void MX_RTC_Init(void);
 111:Core/Src/main.c **** static void MX_USART2_UART_Init(void);
 112:Core/Src/main.c **** static void MX_IWDG_Init(void);
 113:Core/Src/main.c **** static void MX_UART4_Init(void);
 114:Core/Src/main.c **** static void MX_USART3_UART_Init(void);
 115:Core/Src/main.c **** static void MX_I2C1_Init(void);
 116:Core/Src/main.c **** /* USER CODE BEGIN PFP */
 117:Core/Src/main.c **** void Set_Alarm(uint8_t minutes);
 118:Core/Src/main.c **** void Set_RTC();
 119:Core/Src/main.c **** uint32_t map(uint32_t x, uint32_t in_min, uint32_t in_max, uint32_t out_min, uint32_t out_max);
 120:Core/Src/main.c **** void findNextInDev(bool dir);
 121:Core/Src/main.c **** bool checkSIMStatus();
 122:Core/Src/main.c **** bool sendSMS(char *message);
 123:Core/Src/main.c **** bool checkInitStatus();
 124:Core/Src/main.c **** bool enableGPRS();
 125:Core/Src/main.c **** void resetModule();
 126:Core/Src/main.c **** void syncTime();
 127:Core/Src/main.c **** void getTime();
 128:Core/Src/main.c **** /* USER CODE END PFP */
 129:Core/Src/main.c **** 
 130:Core/Src/main.c **** /* Private user code ---------------------------------------------------------*/
 131:Core/Src/main.c **** /* USER CODE BEGIN 0 */
 132:Core/Src/main.c **** double val = 10;
 133:Core/Src/main.c **** uint8_t tx_buff[]={84,66,67,68,69,70,71,72,73,74};
 134:Core/Src/main.c **** uint8_t palette = TEMP_PALETTE;
 135:Core/Src/main.c **** uint8_t device_type = TYPE_SET_TEL;
 136:Core/Src/main.c **** 
 137:Core/Src/main.c **** uint8_t state = STATE_INIT;
 138:Core/Src/main.c **** uint8_t dev_num = 0;
 139:Core/Src/main.c **** uint8_t act_dev_cnt = 0;
 140:Core/Src/main.c **** 
 141:Core/Src/main.c **** int8_t act_dev_list[]  = {-1, -1, -1, -1};
 142:Core/Src/main.c **** 
 143:Core/Src/main.c **** bool isDevPolledFirstTime = true;
 144:Core/Src/main.c **** 
 145:Core/Src/main.c **** uint8_t alarm_timeout = 1;
ARM GAS  C:\Users\kroko\AppData\Local\Temp\ccpAdhTr.s 			page 4


 146:Core/Src/main.c **** 
 147:Core/Src/main.c **** uint8_t screen_scroll_mode = SCROLL_MODE_AUTO;
 148:Core/Src/main.c **** 
 149:Core/Src/main.c **** //Device device_0 = {&huart4, DEV_STATE_UNIN, TYPE_SET_ONLY};
 150:Core/Src/main.c **** // Device device_2 = {&huart5, DEV_STATE_UNIN, TYPE_SET_ONLY};
 151:Core/Src/main.c **** //Device device_3 = {&huart5, DEV_STATE_UNIN, TYPE_SET_ONLY};
 152:Core/Src/main.c **** // Device device_4 = {&huart5, DEV_STATE_UNIN, TYPE_SET_ONLY};
 153:Core/Src/main.c **** 
 154:Core/Src/main.c **** CST816S_TouchData TP;
 155:Core/Src/main.c **** 
 156:Core/Src/main.c **** Device deviceList[] = {{&huart4, DEV_STATE_UNIN, TYPE_SET_ONLY, DEV0_RST_GPIO_Port, DEV0_RST_Pin}, 
 157:Core/Src/main.c ****                        {&huart2, DEV_STATE_UNIN, TYPE_SET_ONLY, DEV1_RST_GPIO_Port, DEV1_RST_Pin}, 
 158:Core/Src/main.c ****                        {&huart3, DEV_STATE_UNIN, TYPE_SET_ONLY, DEV2_RST_GPIO_Port, DEV2_RST_Pin}, 
 159:Core/Src/main.c ****                        {&huart5, DEV_STATE_UNIN, TYPE_SET_ONLY, DEV3_RST_GPIO_Port, DEV3_RST_Pin}};
 160:Core/Src/main.c **** //Device deviceList[] = {device_0, dev};
 161:Core/Src/main.c **** 
 162:Core/Src/main.c **** 
 163:Core/Src/main.c **** SIM sim = {SIM800_UART};
 164:Core/Src/main.c **** 
 165:Core/Src/main.c **** uint8_t rx_buff[10];
 166:Core/Src/main.c **** 
 167:Core/Src/main.c **** uint8_t sim_rx_buff[30];
 168:Core/Src/main.c **** 
 169:Core/Src/main.c **** uint8_t SIMrxBuffer[RX_BUFFER_SIZE];
 170:Core/Src/main.c **** uint8_t SIMtxBuffer[TX_BUFFER_SIZE];
 171:Core/Src/main.c **** 
 172:Core/Src/main.c **** #define DEV_COUNT 4
 173:Core/Src/main.c **** 
 174:Core/Src/main.c **** bool transmitMode = TRANSMIT_MODE_GET;
 175:Core/Src/main.c **** 
 176:Core/Src/main.c **** bool isSDInitialised = false;
 177:Core/Src/main.c **** 
 178:Core/Src/main.c **** bool isSIMInitialised = false;
 179:Core/Src/main.c **** bool isSIMInserted = false;
 180:Core/Src/main.c **** 
 181:Core/Src/main.c **** bool allDeviceIsUnIn = true;
 182:Core/Src/main.c **** 
 183:Core/Src/main.c **** bool touchAvailable = false;
 184:Core/Src/main.c **** 
 185:Core/Src/main.c **** bool isRTCSetUp = false;
 186:Core/Src/main.c **** 
 187:Core/Src/main.c **** bool isRTCTimeSync = false;
 188:Core/Src/main.c **** 
 189:Core/Src/main.c **** bool longPressFlag = false;
 190:Core/Src/main.c **** 
 191:Core/Src/main.c **** const char *tele2_apn = "internet.tele2.lv";
 192:Core/Src/main.c **** const char *lmt_apn = "internet.lmt.lv";
 193:Core/Src/main.c **** const char *bite_apn = "internet";
 194:Core/Src/main.c **** /* USER CODE END 0 */
 195:Core/Src/main.c **** 
 196:Core/Src/main.c **** /**
 197:Core/Src/main.c ****   * @brief  The application entry point.
 198:Core/Src/main.c ****   * @retval int
 199:Core/Src/main.c ****   */
 200:Core/Src/main.c **** int main(void)
 201:Core/Src/main.c **** {
 202:Core/Src/main.c **** 
ARM GAS  C:\Users\kroko\AppData\Local\Temp\ccpAdhTr.s 			page 5


 203:Core/Src/main.c ****   /* USER CODE BEGIN 1 */
 204:Core/Src/main.c **** 
 205:Core/Src/main.c ****   /* USER CODE END 1 */
 206:Core/Src/main.c **** 
 207:Core/Src/main.c ****   /* MCU Configuration--------------------------------------------------------*/
 208:Core/Src/main.c **** 
 209:Core/Src/main.c ****   /* Reset of all peripherals, Initializes the Flash interface and the Systick. */
 210:Core/Src/main.c ****   HAL_Init();
 211:Core/Src/main.c **** 
 212:Core/Src/main.c ****   /* USER CODE BEGIN Init */
 213:Core/Src/main.c **** 
 214:Core/Src/main.c ****   /* USER CODE END Init */
 215:Core/Src/main.c **** 
 216:Core/Src/main.c ****   /* Configure the system clock */
 217:Core/Src/main.c ****   SystemClock_Config();
 218:Core/Src/main.c **** 
 219:Core/Src/main.c ****   /* USER CODE BEGIN SysInit */
 220:Core/Src/main.c **** 
 221:Core/Src/main.c ****   /* USER CODE END SysInit */
 222:Core/Src/main.c **** 
 223:Core/Src/main.c ****   /* Initialize all configured peripherals */
 224:Core/Src/main.c ****   MX_GPIO_Init();
 225:Core/Src/main.c ****   MX_DMA_Init();
 226:Core/Src/main.c ****   MX_SPI1_Init();
 227:Core/Src/main.c ****   MX_UART5_Init();
 228:Core/Src/main.c ****   MX_USART6_UART_Init();
 229:Core/Src/main.c ****   MX_SPI2_Init();
 230:Core/Src/main.c ****   MX_FATFS_Init();
 231:Core/Src/main.c ****   MX_RTC_Init();
 232:Core/Src/main.c ****   MX_USART2_UART_Init();
 233:Core/Src/main.c ****   MX_IWDG_Init();
 234:Core/Src/main.c ****   MX_UART4_Init();
 235:Core/Src/main.c ****   MX_USART3_UART_Init();
 236:Core/Src/main.c ****   MX_I2C1_Init();
 237:Core/Src/main.c ****   /* USER CODE BEGIN 2 */
 238:Core/Src/main.c **** 
 239:Core/Src/main.c **** 	dispcolor_Init(240, 240);
 240:Core/Src/main.c **** 
 241:Core/Src/main.c **** 	uint32_t dev_init_timeout = HAL_GetTick();
 242:Core/Src/main.c ****   uint32_t screen_disp_time = HAL_GetTick();
 243:Core/Src/main.c ****   uint32_t touch_tmr = HAL_GetTick();
 244:Core/Src/main.c ****   uint32_t sim_tmr = HAL_GetTick();
 245:Core/Src/main.c **** 
 246:Core/Src/main.c ****   // uint32_t simtmr = HAL_GetTick();
 247:Core/Src/main.c ****   // uint32_t txtmr = HAL_GetTick();
 248:Core/Src/main.c ****   
 249:Core/Src/main.c ****   uint8_t old_dev_num = 0;
 250:Core/Src/main.c **** 
 251:Core/Src/main.c ****   /* RTC */
 252:Core/Src/main.c ****   // GET RTC DATETIME
 253:Core/Src/main.c ****   RTC_DateTypeDef gDate;
 254:Core/Src/main.c ****   RTC_TimeTypeDef gTime;
 255:Core/Src/main.c **** 
 256:Core/Src/main.c ****   /* Get the RTC current Time */
 257:Core/Src/main.c ****   HAL_RTC_GetTime(&hrtc, &gTime, RTC_FORMAT_BIN);
 258:Core/Src/main.c ****   /* Get the RTC current Date */
 259:Core/Src/main.c ****   HAL_RTC_GetDate(&hrtc, &gDate, RTC_FORMAT_BIN);
ARM GAS  C:\Users\kroko\AppData\Local\Temp\ccpAdhTr.s 			page 6


 260:Core/Src/main.c ****   
 261:Core/Src/main.c ****   if(HAL_RTCEx_BKUPRead(&hrtc, RTC_BKP_DR1) != RTC_BKP_CONSTANT){
 262:Core/Src/main.c ****     Show_RTC_Warning();
 263:Core/Src/main.c ****     // RTC SETUP MENU
 264:Core/Src/main.c ****     // Set_RTC();
 265:Core/Src/main.c ****     // NVIC_SystemReset();
 266:Core/Src/main.c ****   }else{
 267:Core/Src/main.c ****     isRTCSetUp = true;
 268:Core/Src/main.c ****   }
 269:Core/Src/main.c **** 
 270:Core/Src/main.c ****   /* SD CARD */
 271:Core/Src/main.c ****   FATFS FatFs;
 272:Core/Src/main.c ****   FRESULT FR_Status;
 273:Core/Src/main.c ****   FIL Fil;
 274:Core/Src/main.c ****   UINT bytesWrote;
 275:Core/Src/main.c **** 
 276:Core/Src/main.c ****   FR_Status = f_mount(&FatFs, "", 1);
 277:Core/Src/main.c ****   if (FR_Status == FR_OK){
 278:Core/Src/main.c ****     isSDInitialised = true;
 279:Core/Src/main.c ****   }else{
 280:Core/Src/main.c ****     Show_SD_Warning();
 281:Core/Src/main.c ****   }
 282:Core/Src/main.c **** 
 283:Core/Src/main.c ****   /* SIM CARD */
 284:Core/Src/main.c ****   HAL_UART_Receive_DMA(&huart6, SIMrxBuffer, RX_BUFFER_SIZE);
 285:Core/Src/main.c **** 
 286:Core/Src/main.c **** 
 287:Core/Src/main.c ****   /* RESET */
 288:Core/Src/main.c ****   for (int i = 0; i < DEV_COUNT; i++){
 289:Core/Src/main.c ****     GPIO_TypeDef *curDevRSTport = deviceList[i].RSTport;
 290:Core/Src/main.c ****     uint16_t curDevRSTpin = deviceList[i].RSTpin;
 291:Core/Src/main.c ****     HAL_GPIO_WritePin(curDevRSTport, curDevRSTpin, GPIO_PIN_RESET);
 292:Core/Src/main.c **** 	  HAL_Delay(100);
 293:Core/Src/main.c ****     HAL_GPIO_WritePin(curDevRSTport, curDevRSTpin, GPIO_PIN_SET);
 294:Core/Src/main.c ****     deviceList[i].tx_buff[0] = 84;
 295:Core/Src/main.c ****   }
 296:Core/Src/main.c ****   dev_init_timeout = HAL_GetTick();
 297:Core/Src/main.c **** 
 298:Core/Src/main.c ****   /* TOUCH */
 299:Core/Src/main.c ****   if (!CST816S_Init(&hi2c1)){
 300:Core/Src/main.c ****     HAL_NVIC_SystemReset();
 301:Core/Src/main.c ****   }
 302:Core/Src/main.c ****   /* USER CODE END 2 */
 303:Core/Src/main.c **** 
 304:Core/Src/main.c ****   /* Infinite loop */
 305:Core/Src/main.c ****   /* USER CODE BEGIN WHILE */
 306:Core/Src/main.c ****   while (1){ 
 307:Core/Src/main.c ****     if(state == STATE_INIT){
 308:Core/Src/main.c ****       Display_Init(dev_num, DEV_COUNT);
 309:Core/Src/main.c ****       HAL_UART_Transmit_DMA(deviceList[dev_num].uart, deviceList[dev_num].tx_buff, 10);
 310:Core/Src/main.c ****       HAL_UART_Receive_DMA(deviceList[dev_num].uart, deviceList[dev_num].rx_buff, 10);
 311:Core/Src/main.c ****     }
 312:Core/Src/main.c ****     else{
 313:Core/Src/main.c ****       if (!allDeviceIsUnIn){
 314:Core/Src/main.c ****         Dispaly_Data(&deviceList[dev_num]);
 315:Core/Src/main.c ****         if(transmitMode == TRANSMIT_MODE_GET){
 316:Core/Src/main.c ****           if(deviceList[dev_num].deviceMode != TYPE_SET_ONLY){
ARM GAS  C:\Users\kroko\AppData\Local\Temp\ccpAdhTr.s 			page 7


 317:Core/Src/main.c ****             HAL_UART_Transmit_DMA(deviceList[dev_num].uart, deviceList[dev_num].tx_buff, 10);
 318:Core/Src/main.c ****             HAL_UART_Receive_DMA(deviceList[dev_num].uart, deviceList[dev_num].rx_buff, 10);
 319:Core/Src/main.c ****           }
 320:Core/Src/main.c ****         }else{
 321:Core/Src/main.c ****           char setValueTx[10];
 322:Core/Src/main.c ****           //sprintf(setValueTx, "%d", deviceList[dev_num].setValue);
 323:Core/Src/main.c ****           itoa(deviceList[dev_num].setValue, setValueTx, 10);
 324:Core/Src/main.c ****           HAL_UART_Transmit_DMA(deviceList[dev_num].uart, (uint8_t*)&setValueTx, 10);
 325:Core/Src/main.c ****           transmitMode = TRANSMIT_MODE_GET;
 326:Core/Src/main.c ****         }
 327:Core/Src/main.c ****         for(uint8_t act_dev = 0; act_dev < 4; act_dev++){
 328:Core/Src/main.c ****           if (act_dev_list[act_dev] == dev_num){
 329:Core/Src/main.c ****             Draw_NavBar(act_dev_cnt, act_dev);
 330:Core/Src/main.c ****             break;
 331:Core/Src/main.c ****           }
 332:Core/Src/main.c ****         }
 333:Core/Src/main.c ****         
 334:Core/Src/main.c ****       }else{
 335:Core/Src/main.c ****         Draw_Main_Screen();
 336:Core/Src/main.c ****         Draw_NavBar(0, -1);
 337:Core/Src/main.c ****         //Draw_Easter();
 338:Core/Src/main.c ****       }
 339:Core/Src/main.c ****     }
 340:Core/Src/main.c **** 
 341:Core/Src/main.c ****     
 342:Core/Src/main.c **** 
 343:Core/Src/main.c ****     // DEVICE INITIALIZATION START
 344:Core/Src/main.c ****     if (HAL_GetTick()-dev_init_timeout>1000 && state == STATE_INIT){
 345:Core/Src/main.c ****       if(dev_num == old_dev_num){
 346:Core/Src/main.c ****         dev_num++;
 347:Core/Src/main.c ****       }else{
 348:Core/Src/main.c ****         old_dev_num = dev_num;
 349:Core/Src/main.c ****       }
 350:Core/Src/main.c ****       dev_init_timeout = HAL_GetTick();
 351:Core/Src/main.c ****       screen_disp_time = HAL_GetTick();
 352:Core/Src/main.c ****     }
 353:Core/Src/main.c **** 
 354:Core/Src/main.c **** 
 355:Core/Src/main.c ****     if(HAL_GetTick()-sim_tmr > 5000){
 356:Core/Src/main.c ****       if(!isSIMInserted){
 357:Core/Src/main.c ****         if(checkSIMStatus()){
 358:Core/Src/main.c ****           Add_Message("SIM detected");
 359:Core/Src/main.c ****           isSIMInserted = true;
 360:Core/Src/main.c ****         }
 361:Core/Src/main.c ****       }
 362:Core/Src/main.c ****       if(isSIMInserted && !isSIMInitialised){
 363:Core/Src/main.c ****         if(checkInitStatus()){
 364:Core/Src/main.c ****           Add_Message("GSM connected");
 365:Core/Src/main.c ****           if(!isRTCSetUp && !isRTCTimeSync){
 366:Core/Src/main.c ****             syncTime();
 367:Core/Src/main.c ****             resetModule();
 368:Core/Src/main.c ****             isRTCTimeSync = true;
 369:Core/Src/main.c ****           }else{
 370:Core/Src/main.c ****             isSIMInitialised = true;
 371:Core/Src/main.c ****           }
 372:Core/Src/main.c ****         }
 373:Core/Src/main.c ****       }
ARM GAS  C:\Users\kroko\AppData\Local\Temp\ccpAdhTr.s 			page 8


 374:Core/Src/main.c ****       if(isSIMInitialised && !isRTCSetUp){
 375:Core/Src/main.c ****         getTime();
 376:Core/Src/main.c ****         if(HAL_RTCEx_BKUPRead(&hrtc, RTC_BKP_DR1) == RTC_BKP_CONSTANT){
 377:Core/Src/main.c ****           Add_Message("RTC is set up");
 378:Core/Src/main.c ****           isRTCSetUp = true;
 379:Core/Src/main.c ****         } 
 380:Core/Src/main.c ****       }
 381:Core/Src/main.c ****       sim_tmr = HAL_GetTick();
 382:Core/Src/main.c ****     }
 383:Core/Src/main.c **** 
 384:Core/Src/main.c ****     // TEST CODE START
 385:Core/Src/main.c ****     // if (HAL_GetTick() - sim_tmr > 10000 && isSIMInitialised && isSIMInserted){
 386:Core/Src/main.c ****     //   char msg[30];
 387:Core/Src/main.c ****     //   char b[4];
 388:Core/Src/main.c ****     //   gcvt(deviceList[dev_num].currentValue, 3, b);
 389:Core/Src/main.c ****     //   sprintf(msg,"TEMP: %s*C", b);
 390:Core/Src/main.c ****     //   if(sendSMS(msg)){
 391:Core/Src/main.c ****     //     // Show_Message("SMS OK", 500);
 392:Core/Src/main.c ****     //   }
 393:Core/Src/main.c ****     //   sim_tmr = HAL_GetTick();
 394:Core/Src/main.c ****     // }
 395:Core/Src/main.c ****     // TEST CODE END
 396:Core/Src/main.c **** 
 397:Core/Src/main.c ****     if(dev_num == DEV_COUNT && state == STATE_INIT){
 398:Core/Src/main.c ****       // state = STATE_800INIT;
 399:Core/Src/main.c ****       state = STATE_DISPLAY;
 400:Core/Src/main.c ****       //simtmr = HAL_GetTick();
 401:Core/Src/main.c ****       findNextInDev(true);
 402:Core/Src/main.c ****       screen_scroll_mode = SCROLL_MODE_AUTO;
 403:Core/Src/main.c ****       if(isSDInitialised){
 404:Core/Src/main.c ****         // CREATE FILE "init_time_date.txt"
 405:Core/Src/main.c ****        // Set_Alarm(alarm_timeout);
 406:Core/Src/main.c ****         char filename_buff[35];
 407:Core/Src/main.c ****         char reset_cause_buf[20];
 408:Core/Src/main.c ****         uint8_t buf_len = 0;
 409:Core/Src/main.c ****         // CREATE FILE
 410:Core/Src/main.c ****         sprintf(filename_buff, "init_%02d-%02d-%02d_%02d-%02d-%2d.txt", gTime.Hours, gTime.Minutes,
 411:Core/Src/main.c ****         FR_Status = f_open(&Fil, filename_buff, FA_WRITE | FA_OPEN_ALWAYS | FA_CREATE_ALWAYS);
 412:Core/Src/main.c ****         // GET RESET REASON
 413:Core/Src/main.c ****         uint32_t reset_flags = RCC->CSR;
 414:Core/Src/main.c ****         if (reset_flags & RCC_CSR_IWDGRSTF) {
 415:Core/Src/main.c ****           buf_len = sprintf(reset_cause_buf, "Reset by IWDG\n");
 416:Core/Src/main.c ****         }else if (reset_flags & RCC_CSR_PINRSTF){
 417:Core/Src/main.c ****           buf_len = sprintf(reset_cause_buf, "Normal startup\n");
 418:Core/Src/main.c ****         }
 419:Core/Src/main.c ****         // SAVE
 420:Core/Src/main.c ****         FR_Status = f_write(&Fil, reset_cause_buf, buf_len, &bytesWrote);
 421:Core/Src/main.c ****         // GET DEVICE DATA
 422:Core/Src/main.c ****         for (uint8_t i = 0; i < DEV_COUNT; i++){
 423:Core/Src/main.c ****           char init_file_buf[75];
 424:Core/Src/main.c ****           // DEVISE INITIALISED
 425:Core/Src/main.c ****           if(deviceList[i].initState == DEV_STATE_IN){
 426:Core/Src/main.c ****             char dev_type_buf[15];
 427:Core/Src/main.c ****             // GET DEVICE TYPE
 428:Core/Src/main.c ****             switch (deviceList[i].deviceMode)
 429:Core/Src/main.c ****             {
 430:Core/Src/main.c ****             case TYPE_SET_ONLY:
ARM GAS  C:\Users\kroko\AppData\Local\Temp\ccpAdhTr.s 			page 9


 431:Core/Src/main.c ****               sprintf(dev_type_buf, "TYPE_SET_ONLY");
 432:Core/Src/main.c ****               break;
 433:Core/Src/main.c ****             case TYPE_SET_TEL:
 434:Core/Src/main.c ****               sprintf(dev_type_buf, "TYPE_SET_TEL");
 435:Core/Src/main.c ****               break;
 436:Core/Src/main.c ****             case TYPE_TEL_ONLY:
 437:Core/Src/main.c ****               sprintf(dev_type_buf, "TYPE_TEL_ONLY");
 438:Core/Src/main.c ****               break;
 439:Core/Src/main.c ****             }
 440:Core/Src/main.c ****             // GET DEVICE VARIABLES
 441:Core/Src/main.c ****             uint8_t max[5];
 442:Core/Src/main.c ****             uint8_t min[5];
 443:Core/Src/main.c ****             gcvt(deviceList[i].minValue, 5, min);
 444:Core/Src/main.c ****             gcvt(deviceList[i].maxValue, 5, max);
 445:Core/Src/main.c ****             // SAVE
 446:Core/Src/main.c ****             buf_len = sprintf(init_file_buf, "DEV: %d\nMin/Max: %s/%s\nDev type: %s\n\n", i, min, m
 447:Core/Src/main.c ****           }else{ // DEVICE UNINITIALISED
 448:Core/Src/main.c ****             buf_len = sprintf(init_file_buf, "DEV: empty\n\n");
 449:Core/Src/main.c ****           }
 450:Core/Src/main.c ****           FR_Status = f_write(&Fil, init_file_buf, buf_len, &bytesWrote);
 451:Core/Src/main.c ****         }
 452:Core/Src/main.c ****         f_close(&Fil);
 453:Core/Src/main.c ****         // SAVE CONFIG
 454:Core/Src/main.c ****       }
 455:Core/Src/main.c ****     }
 456:Core/Src/main.c ****     // DEVICE INITIALIZATION END
 457:Core/Src/main.c **** 
 458:Core/Src/main.c ****     // AUTO SCREEN SCROLL START
 459:Core/Src/main.c ****     if (HAL_GetTick()-screen_disp_time>5000 && screen_scroll_mode == SCROLL_MODE_AUTO && !allDevice
 460:Core/Src/main.c ****       if(state != STATE_INIT){
 461:Core/Src/main.c ****         findNextInDev(true);
 462:Core/Src/main.c ****       }
 463:Core/Src/main.c ****       screen_disp_time = HAL_GetTick();
 464:Core/Src/main.c ****     }
 465:Core/Src/main.c ****     // AUTO SCREEN SCROLL END
 466:Core/Src/main.c **** 
 467:Core/Src/main.c ****     // TP READING START
 468:Core/Src/main.c ****     if(HAL_GetTick() - touch_tmr > 30 && touchAvailable){
 469:Core/Src/main.c ****       CST816S_ReadTouchData(&hi2c1, &TP);
 470:Core/Src/main.c ****       if (TP.finger_num != 0){
 471:Core/Src/main.c ****         // SOME ACTIONS
 472:Core/Src/main.c ****         
 473:Core/Src/main.c ****         // TP COORDS TO DISP COORDS
 474:Core/Src/main.c ****         uint8_t x = map(TP.x_coord, 0, 65535, 0, 240);
 475:Core/Src/main.c ****         uint8_t y = map(TP.y_coord, 0, 65535, 0, 240);
 476:Core/Src/main.c ****         
 477:Core/Src/main.c ****         // TEST
 478:Core/Src/main.c ****         if (x>78 && x < 162 && y > 78 && y<162 && TP.gesture_id == 0x00){
 479:Core/Src/main.c ****           deviceList[dev_num].isDevOn = !deviceList[dev_num].isDevOn;
 480:Core/Src/main.c ****         }
 481:Core/Src/main.c ****         if(TP.gesture_id == 0x00 && deviceList[dev_num].deviceDisplayMode ==MODE_EDIT){
 482:Core/Src/main.c ****           if (isTouchInsideArc(x, y, 120, 120, 55, 120, 136, 44)) {
 483:Core/Src/main.c ****               char buf[13];
 484:Core/Src/main.c ****               float tp_angle = getTouchAngle(x, y); // 46 314
 485:Core/Src/main.c ****               deviceList[dev_num].setValue = map(tp_angle, 46, 314, deviceList[dev_num].minValue, d
 486:Core/Src/main.c ****               sprintf(buf, "%d", map(tp_angle, 46, 314, 0, 100));
 487:Core/Src/main.c ****           }
ARM GAS  C:\Users\kroko\AppData\Local\Temp\ccpAdhTr.s 			page 10


 488:Core/Src/main.c ****         }
 489:Core/Src/main.c ****         // TEST
 490:Core/Src/main.c ****         if(TP.gesture_id == 0x0C && !longPressFlag && deviceList[dev_num].deviceMode != TYPE_TEL_ON
 491:Core/Src/main.c ****           longPressFlag = true;
 492:Core/Src/main.c ****           // EDIT VALUE START
 493:Core/Src/main.c **** 
 494:Core/Src/main.c ****           screen_disp_time = HAL_GetTick();
 495:Core/Src/main.c ****           if(deviceList[dev_num].deviceDisplayMode == MODE_NORMAL){
 496:Core/Src/main.c ****             if (deviceList[dev_num].deviceMode != TYPE_SET_ONLY){
 497:Core/Src/main.c ****               deviceList[dev_num].setValue = deviceList[dev_num].currentValue;
 498:Core/Src/main.c ****             }
 499:Core/Src/main.c ****             deviceList[dev_num].deviceDisplayMode = MODE_EDIT;
 500:Core/Src/main.c ****           }else{
 501:Core/Src/main.c ****             transmitMode = TRANSMIT_MODE_SET;
 502:Core/Src/main.c ****             deviceList[dev_num].deviceDisplayMode = MODE_NORMAL;
 503:Core/Src/main.c ****           }
 504:Core/Src/main.c **** 
 505:Core/Src/main.c ****           if(screen_scroll_mode == SCROLL_MODE_AUTO){
 506:Core/Src/main.c ****             screen_scroll_mode = SCROLL_MODE_HALT;
 507:Core/Src/main.c ****           }else{
 508:Core/Src/main.c ****             screen_scroll_mode = SCROLL_MODE_AUTO;
 509:Core/Src/main.c ****           }
 510:Core/Src/main.c ****           // EDIT VALUE END
 511:Core/Src/main.c ****         }
 512:Core/Src/main.c ****         if(TP.gesture_id != 0x0C){
 513:Core/Src/main.c ****           longPressFlag = false;
 514:Core/Src/main.c ****         }
 515:Core/Src/main.c **** 
 516:Core/Src/main.c ****         // SCROLL START
 517:Core/Src/main.c ****         if(TP.gesture_id == 0x03 && deviceList[dev_num].deviceDisplayMode != MODE_EDIT){ // LEFT
 518:Core/Src/main.c ****           findNextInDev(true);
 519:Core/Src/main.c ****           // Show_Message("LEFT", 500);
 520:Core/Src/main.c ****           screen_disp_time = HAL_GetTick();
 521:Core/Src/main.c ****         }
 522:Core/Src/main.c ****         if(TP.gesture_id == 0x04 && deviceList[dev_num].deviceDisplayMode != MODE_EDIT){ // RIGHT
 523:Core/Src/main.c ****           findNextInDev(false);
 524:Core/Src/main.c ****           // Show_Message("RIGHT", 500);
 525:Core/Src/main.c ****           screen_disp_time = HAL_GetTick();
 526:Core/Src/main.c ****         }
 527:Core/Src/main.c ****         // SCROLL END
 528:Core/Src/main.c ****       }
 529:Core/Src/main.c ****       touchAvailable = false;
 530:Core/Src/main.c ****       touch_tmr = HAL_GetTick();
 531:Core/Src/main.c ****     }
 532:Core/Src/main.c ****     // TP READING END
 533:Core/Src/main.c **** 
 534:Core/Src/main.c ****     // IWDG RESET START
 535:Core/Src/main.c ****     if (HAL_IWDG_Refresh(&hiwdg) != HAL_OK){
 536:Core/Src/main.c ****       Error_Handler();
 537:Core/Src/main.c ****     }
 538:Core/Src/main.c ****     // IWDG RESET END
 539:Core/Src/main.c ****     /* USER CODE END WHILE */
 540:Core/Src/main.c **** 
 541:Core/Src/main.c ****     /* USER CODE BEGIN 3 */
 542:Core/Src/main.c ****   }
 543:Core/Src/main.c ****   /* USER CODE END 3 */
 544:Core/Src/main.c **** }
ARM GAS  C:\Users\kroko\AppData\Local\Temp\ccpAdhTr.s 			page 11


 545:Core/Src/main.c **** 
 546:Core/Src/main.c **** /**
 547:Core/Src/main.c ****   * @brief System Clock Configuration
 548:Core/Src/main.c ****   * @retval None
 549:Core/Src/main.c ****   */
 550:Core/Src/main.c **** void SystemClock_Config(void)
 551:Core/Src/main.c **** {
 552:Core/Src/main.c ****   RCC_OscInitTypeDef RCC_OscInitStruct = {0};
 553:Core/Src/main.c ****   RCC_ClkInitTypeDef RCC_ClkInitStruct = {0};
 554:Core/Src/main.c **** 
 555:Core/Src/main.c ****   /** Configure the main internal regulator output voltage
 556:Core/Src/main.c ****   */
 557:Core/Src/main.c ****   __HAL_RCC_PWR_CLK_ENABLE();
 558:Core/Src/main.c ****   __HAL_PWR_VOLTAGESCALING_CONFIG(PWR_REGULATOR_VOLTAGE_SCALE1);
 559:Core/Src/main.c **** 
 560:Core/Src/main.c ****   /** Initializes the RCC Oscillators according to the specified parameters
 561:Core/Src/main.c ****   * in the RCC_OscInitTypeDef structure.
 562:Core/Src/main.c ****   */
 563:Core/Src/main.c ****   RCC_OscInitStruct.OscillatorType = RCC_OSCILLATORTYPE_LSI|RCC_OSCILLATORTYPE_HSE
 564:Core/Src/main.c ****                               |RCC_OSCILLATORTYPE_LSE;
 565:Core/Src/main.c ****   RCC_OscInitStruct.HSEState = RCC_HSE_ON;
 566:Core/Src/main.c ****   RCC_OscInitStruct.LSEState = RCC_LSE_ON;
 567:Core/Src/main.c ****   RCC_OscInitStruct.LSIState = RCC_LSI_ON;
 568:Core/Src/main.c ****   RCC_OscInitStruct.PLL.PLLState = RCC_PLL_ON;
 569:Core/Src/main.c ****   RCC_OscInitStruct.PLL.PLLSource = RCC_PLLSOURCE_HSE;
 570:Core/Src/main.c ****   RCC_OscInitStruct.PLL.PLLM = 4;
 571:Core/Src/main.c ****   RCC_OscInitStruct.PLL.PLLN = 96;
 572:Core/Src/main.c ****   RCC_OscInitStruct.PLL.PLLP = RCC_PLLP_DIV2;
 573:Core/Src/main.c ****   RCC_OscInitStruct.PLL.PLLQ = 2;
 574:Core/Src/main.c ****   RCC_OscInitStruct.PLL.PLLR = 2;
 575:Core/Src/main.c ****   if (HAL_RCC_OscConfig(&RCC_OscInitStruct) != HAL_OK)
 576:Core/Src/main.c ****   {
 577:Core/Src/main.c ****     Error_Handler();
 578:Core/Src/main.c ****   }
 579:Core/Src/main.c **** 
 580:Core/Src/main.c ****   /** Initializes the CPU, AHB and APB buses clocks
 581:Core/Src/main.c ****   */
 582:Core/Src/main.c ****   RCC_ClkInitStruct.ClockType = RCC_CLOCKTYPE_HCLK|RCC_CLOCKTYPE_SYSCLK
 583:Core/Src/main.c ****                               |RCC_CLOCKTYPE_PCLK1|RCC_CLOCKTYPE_PCLK2;
 584:Core/Src/main.c ****   RCC_ClkInitStruct.SYSCLKSource = RCC_SYSCLKSOURCE_PLLCLK;
 585:Core/Src/main.c ****   RCC_ClkInitStruct.AHBCLKDivider = RCC_SYSCLK_DIV1;
 586:Core/Src/main.c ****   RCC_ClkInitStruct.APB1CLKDivider = RCC_HCLK_DIV2;
 587:Core/Src/main.c ****   RCC_ClkInitStruct.APB2CLKDivider = RCC_HCLK_DIV1;
 588:Core/Src/main.c **** 
 589:Core/Src/main.c ****   if (HAL_RCC_ClockConfig(&RCC_ClkInitStruct, FLASH_LATENCY_3) != HAL_OK)
 590:Core/Src/main.c ****   {
 591:Core/Src/main.c ****     Error_Handler();
 592:Core/Src/main.c ****   }
 593:Core/Src/main.c **** }
 594:Core/Src/main.c **** 
 595:Core/Src/main.c **** /**
 596:Core/Src/main.c ****   * @brief I2C1 Initialization Function
 597:Core/Src/main.c ****   * @param None
 598:Core/Src/main.c ****   * @retval None
 599:Core/Src/main.c ****   */
 600:Core/Src/main.c **** static void MX_I2C1_Init(void)
 601:Core/Src/main.c **** {
ARM GAS  C:\Users\kroko\AppData\Local\Temp\ccpAdhTr.s 			page 12


 602:Core/Src/main.c **** 
 603:Core/Src/main.c ****   /* USER CODE BEGIN I2C1_Init 0 */
 604:Core/Src/main.c **** 
 605:Core/Src/main.c ****   /* USER CODE END I2C1_Init 0 */
 606:Core/Src/main.c **** 
 607:Core/Src/main.c ****   /* USER CODE BEGIN I2C1_Init 1 */
 608:Core/Src/main.c **** 
 609:Core/Src/main.c ****   /* USER CODE END I2C1_Init 1 */
 610:Core/Src/main.c ****   hi2c1.Instance = I2C1;
 611:Core/Src/main.c ****   hi2c1.Init.ClockSpeed = 100000;
 612:Core/Src/main.c ****   hi2c1.Init.DutyCycle = I2C_DUTYCYCLE_2;
 613:Core/Src/main.c ****   hi2c1.Init.OwnAddress1 = 0;
 614:Core/Src/main.c ****   hi2c1.Init.AddressingMode = I2C_ADDRESSINGMODE_7BIT;
 615:Core/Src/main.c ****   hi2c1.Init.DualAddressMode = I2C_DUALADDRESS_DISABLE;
 616:Core/Src/main.c ****   hi2c1.Init.OwnAddress2 = 0;
 617:Core/Src/main.c ****   hi2c1.Init.GeneralCallMode = I2C_GENERALCALL_DISABLE;
 618:Core/Src/main.c ****   hi2c1.Init.NoStretchMode = I2C_NOSTRETCH_DISABLE;
 619:Core/Src/main.c ****   if (HAL_I2C_Init(&hi2c1) != HAL_OK)
 620:Core/Src/main.c ****   {
 621:Core/Src/main.c ****     Error_Handler();
 622:Core/Src/main.c ****   }
 623:Core/Src/main.c ****   /* USER CODE BEGIN I2C1_Init 2 */
 624:Core/Src/main.c **** 
 625:Core/Src/main.c ****   /* USER CODE END I2C1_Init 2 */
 626:Core/Src/main.c **** 
 627:Core/Src/main.c **** }
 628:Core/Src/main.c **** 
 629:Core/Src/main.c **** /**
 630:Core/Src/main.c ****   * @brief IWDG Initialization Function
 631:Core/Src/main.c ****   * @param None
 632:Core/Src/main.c ****   * @retval None
 633:Core/Src/main.c ****   */
 634:Core/Src/main.c **** static void MX_IWDG_Init(void)
 635:Core/Src/main.c **** {
 636:Core/Src/main.c **** 
 637:Core/Src/main.c ****   /* USER CODE BEGIN IWDG_Init 0 */
 638:Core/Src/main.c **** 
 639:Core/Src/main.c ****   /* USER CODE END IWDG_Init 0 */
 640:Core/Src/main.c **** 
 641:Core/Src/main.c ****   /* USER CODE BEGIN IWDG_Init 1 */
 642:Core/Src/main.c **** 
 643:Core/Src/main.c ****   /* USER CODE END IWDG_Init 1 */
 644:Core/Src/main.c ****   hiwdg.Instance = IWDG;
 645:Core/Src/main.c ****   hiwdg.Init.Prescaler = IWDG_PRESCALER_256;
 646:Core/Src/main.c ****   hiwdg.Init.Reload = 1250;
 647:Core/Src/main.c ****   if (HAL_IWDG_Init(&hiwdg) != HAL_OK)
 648:Core/Src/main.c ****   {
 649:Core/Src/main.c ****     Error_Handler();
 650:Core/Src/main.c ****   }
 651:Core/Src/main.c ****   /* USER CODE BEGIN IWDG_Init 2 */
 652:Core/Src/main.c **** 
 653:Core/Src/main.c ****   /* USER CODE END IWDG_Init 2 */
 654:Core/Src/main.c **** 
 655:Core/Src/main.c **** }
 656:Core/Src/main.c **** 
 657:Core/Src/main.c **** /**
 658:Core/Src/main.c ****   * @brief RTC Initialization Function
ARM GAS  C:\Users\kroko\AppData\Local\Temp\ccpAdhTr.s 			page 13


 659:Core/Src/main.c ****   * @param None
 660:Core/Src/main.c ****   * @retval None
 661:Core/Src/main.c ****   */
 662:Core/Src/main.c **** static void MX_RTC_Init(void)
 663:Core/Src/main.c **** {
 664:Core/Src/main.c **** 
 665:Core/Src/main.c ****   /* USER CODE BEGIN RTC_Init 0 */
 666:Core/Src/main.c **** 
 667:Core/Src/main.c ****   /* USER CODE END RTC_Init 0 */
 668:Core/Src/main.c **** 
 669:Core/Src/main.c ****   RTC_TimeTypeDef sTime = {0};
 670:Core/Src/main.c ****   RTC_DateTypeDef sDate = {0};
 671:Core/Src/main.c ****   RTC_AlarmTypeDef sAlarm = {0};
 672:Core/Src/main.c **** 
 673:Core/Src/main.c ****   /* USER CODE BEGIN RTC_Init 1 */
 674:Core/Src/main.c **** 
 675:Core/Src/main.c ****   /* USER CODE END RTC_Init 1 */
 676:Core/Src/main.c **** 
 677:Core/Src/main.c ****   /** Initialize RTC Only
 678:Core/Src/main.c ****   */
 679:Core/Src/main.c ****   hrtc.Instance = RTC;
 680:Core/Src/main.c ****   hrtc.Init.HourFormat = RTC_HOURFORMAT_24;
 681:Core/Src/main.c ****   hrtc.Init.AsynchPrediv = 127;
 682:Core/Src/main.c ****   hrtc.Init.SynchPrediv = 255;
 683:Core/Src/main.c ****   hrtc.Init.OutPut = RTC_OUTPUT_DISABLE;
 684:Core/Src/main.c ****   hrtc.Init.OutPutPolarity = RTC_OUTPUT_POLARITY_HIGH;
 685:Core/Src/main.c ****   hrtc.Init.OutPutType = RTC_OUTPUT_TYPE_OPENDRAIN;
 686:Core/Src/main.c ****   if (HAL_RTC_Init(&hrtc) != HAL_OK)
 687:Core/Src/main.c ****   {
 688:Core/Src/main.c ****     Error_Handler();
 689:Core/Src/main.c ****   }
 690:Core/Src/main.c **** 
 691:Core/Src/main.c ****   /* USER CODE BEGIN Check_RTC_BKUP */
 692:Core/Src/main.c ****   if (HAL_RTCEx_BKUPRead(&hrtc, RTC_BKP_DR1) == RTC_BKP_CONSTANT){return;}
 693:Core/Src/main.c ****   // // GET RTC DATETIME
 694:Core/Src/main.c ****   // RTC_DateTypeDef gDate;
 695:Core/Src/main.c ****   // RTC_TimeTypeDef gTime;
 696:Core/Src/main.c ****   // bool rtcBackup = false;
 697:Core/Src/main.c **** 
 698:Core/Src/main.c ****   // /* Get the RTC current Time */
 699:Core/Src/main.c ****   // HAL_RTC_GetTime(&hrtc, &gTime, RTC_FORMAT_BIN);
 700:Core/Src/main.c ****   // /* Get the RTC current Date */
 701:Core/Src/main.c ****   // HAL_RTC_GetDate(&hrtc, &gDate, RTC_FORMAT_BIN);
 702:Core/Src/main.c ****   
 703:Core/Src/main.c ****   // if(gDate.Year != 0){
 704:Core/Src/main.c ****   //     rtcBackup = true;
 705:Core/Src/main.c ****   // }
 706:Core/Src/main.c ****   /* USER CODE END Check_RTC_BKUP */
 707:Core/Src/main.c **** 
 708:Core/Src/main.c ****   /** Initialize RTC and set the Time and Date
 709:Core/Src/main.c ****   */
 710:Core/Src/main.c ****   sTime.Hours = 0x0;
 711:Core/Src/main.c ****   sTime.Minutes = 0x0;
 712:Core/Src/main.c ****   sTime.Seconds = 0x0;
 713:Core/Src/main.c ****   sTime.DayLightSaving = RTC_DAYLIGHTSAVING_NONE;
 714:Core/Src/main.c ****   sTime.StoreOperation = RTC_STOREOPERATION_RESET;
 715:Core/Src/main.c ****   if (HAL_RTC_SetTime(&hrtc, &sTime, RTC_FORMAT_BCD) != HAL_OK)
ARM GAS  C:\Users\kroko\AppData\Local\Temp\ccpAdhTr.s 			page 14


 716:Core/Src/main.c ****   {
 717:Core/Src/main.c ****     Error_Handler();
 718:Core/Src/main.c ****   }
 719:Core/Src/main.c ****   sDate.WeekDay = RTC_WEEKDAY_MONDAY;
 720:Core/Src/main.c ****   sDate.Month = RTC_MONTH_JANUARY;
 721:Core/Src/main.c ****   sDate.Date = 0x1;
 722:Core/Src/main.c ****   sDate.Year = 0x0;
 723:Core/Src/main.c **** 
 724:Core/Src/main.c ****   if (HAL_RTC_SetDate(&hrtc, &sDate, RTC_FORMAT_BCD) != HAL_OK)
 725:Core/Src/main.c ****   {
 726:Core/Src/main.c ****     Error_Handler();
 727:Core/Src/main.c ****   }
 728:Core/Src/main.c **** 
 729:Core/Src/main.c ****   /** Enable the Alarm A
 730:Core/Src/main.c ****   */
 731:Core/Src/main.c ****   sAlarm.AlarmTime.Hours = 0x0;
 732:Core/Src/main.c ****   sAlarm.AlarmTime.Minutes = 0x0;
 733:Core/Src/main.c ****   sAlarm.AlarmTime.Seconds = 0x0;
 734:Core/Src/main.c ****   sAlarm.AlarmTime.SubSeconds = 0x0;
 735:Core/Src/main.c ****   sAlarm.AlarmTime.DayLightSaving = RTC_DAYLIGHTSAVING_NONE;
 736:Core/Src/main.c ****   sAlarm.AlarmTime.StoreOperation = RTC_STOREOPERATION_RESET;
 737:Core/Src/main.c ****   sAlarm.AlarmMask = RTC_ALARMMASK_NONE;
 738:Core/Src/main.c ****   sAlarm.AlarmSubSecondMask = RTC_ALARMSUBSECONDMASK_ALL;
 739:Core/Src/main.c ****   sAlarm.AlarmDateWeekDaySel = RTC_ALARMDATEWEEKDAYSEL_DATE;
 740:Core/Src/main.c ****   sAlarm.AlarmDateWeekDay = 0x1;
 741:Core/Src/main.c ****   sAlarm.Alarm = RTC_ALARM_A;
 742:Core/Src/main.c ****   if (HAL_RTC_SetAlarm(&hrtc, &sAlarm, RTC_FORMAT_BCD) != HAL_OK)
 743:Core/Src/main.c ****   {
 744:Core/Src/main.c ****     Error_Handler();
 745:Core/Src/main.c ****   }
 746:Core/Src/main.c ****   /* USER CODE BEGIN RTC_Init 2 */
 747:Core/Src/main.c ****   // if(rtcBackup){
 748:Core/Src/main.c ****   //   HAL_RTC_SetTime(&hrtc, &gTime, RTC_FORMAT_BIN);
 749:Core/Src/main.c ****   //   HAL_RTC_SetDate(&hrtc, &gDate, RTC_FORMAT_BIN);
 750:Core/Src/main.c ****   // }
 751:Core/Src/main.c ****   /* USER CODE END RTC_Init 2 */
 752:Core/Src/main.c **** 
 753:Core/Src/main.c **** }
 754:Core/Src/main.c **** 
 755:Core/Src/main.c **** /**
 756:Core/Src/main.c ****   * @brief SPI1 Initialization Function
 757:Core/Src/main.c ****   * @param None
 758:Core/Src/main.c ****   * @retval None
 759:Core/Src/main.c ****   */
 760:Core/Src/main.c **** static void MX_SPI1_Init(void)
 761:Core/Src/main.c **** {
 762:Core/Src/main.c **** 
 763:Core/Src/main.c ****   /* USER CODE BEGIN SPI1_Init 0 */
 764:Core/Src/main.c **** 
 765:Core/Src/main.c ****   /* USER CODE END SPI1_Init 0 */
 766:Core/Src/main.c **** 
 767:Core/Src/main.c ****   /* USER CODE BEGIN SPI1_Init 1 */
 768:Core/Src/main.c **** 
 769:Core/Src/main.c ****   /* USER CODE END SPI1_Init 1 */
 770:Core/Src/main.c ****   /* SPI1 parameter configuration*/
 771:Core/Src/main.c ****   hspi1.Instance = SPI1;
 772:Core/Src/main.c ****   hspi1.Init.Mode = SPI_MODE_MASTER;
ARM GAS  C:\Users\kroko\AppData\Local\Temp\ccpAdhTr.s 			page 15


 773:Core/Src/main.c ****   hspi1.Init.Direction = SPI_DIRECTION_1LINE;
 774:Core/Src/main.c ****   hspi1.Init.DataSize = SPI_DATASIZE_8BIT;
 775:Core/Src/main.c ****   hspi1.Init.CLKPolarity = SPI_POLARITY_LOW;
 776:Core/Src/main.c ****   hspi1.Init.CLKPhase = SPI_PHASE_1EDGE;
 777:Core/Src/main.c ****   hspi1.Init.NSS = SPI_NSS_HARD_OUTPUT;
 778:Core/Src/main.c ****   hspi1.Init.BaudRatePrescaler = SPI_BAUDRATEPRESCALER_2;
 779:Core/Src/main.c ****   hspi1.Init.FirstBit = SPI_FIRSTBIT_MSB;
 780:Core/Src/main.c ****   hspi1.Init.TIMode = SPI_TIMODE_DISABLE;
 781:Core/Src/main.c ****   hspi1.Init.CRCCalculation = SPI_CRCCALCULATION_DISABLE;
 782:Core/Src/main.c ****   hspi1.Init.CRCPolynomial = 10;
 783:Core/Src/main.c ****   if (HAL_SPI_Init(&hspi1) != HAL_OK)
 784:Core/Src/main.c ****   {
 785:Core/Src/main.c ****     Error_Handler();
 786:Core/Src/main.c ****   }
 787:Core/Src/main.c ****   /* USER CODE BEGIN SPI1_Init 2 */
 788:Core/Src/main.c **** 
 789:Core/Src/main.c ****   /* USER CODE END SPI1_Init 2 */
 790:Core/Src/main.c **** 
 791:Core/Src/main.c **** }
 792:Core/Src/main.c **** 
 793:Core/Src/main.c **** /**
 794:Core/Src/main.c ****   * @brief SPI2 Initialization Function
 795:Core/Src/main.c ****   * @param None
 796:Core/Src/main.c ****   * @retval None
 797:Core/Src/main.c ****   */
 798:Core/Src/main.c **** static void MX_SPI2_Init(void)
 799:Core/Src/main.c **** {
 800:Core/Src/main.c **** 
 801:Core/Src/main.c ****   /* USER CODE BEGIN SPI2_Init 0 */
 802:Core/Src/main.c **** 
 803:Core/Src/main.c ****   /* USER CODE END SPI2_Init 0 */
 804:Core/Src/main.c **** 
 805:Core/Src/main.c ****   /* USER CODE BEGIN SPI2_Init 1 */
 806:Core/Src/main.c **** 
 807:Core/Src/main.c ****   /* USER CODE END SPI2_Init 1 */
 808:Core/Src/main.c ****   /* SPI2 parameter configuration*/
 809:Core/Src/main.c ****   hspi2.Instance = SPI2;
 810:Core/Src/main.c ****   hspi2.Init.Mode = SPI_MODE_MASTER;
 811:Core/Src/main.c ****   hspi2.Init.Direction = SPI_DIRECTION_2LINES;
 812:Core/Src/main.c ****   hspi2.Init.DataSize = SPI_DATASIZE_8BIT;
 813:Core/Src/main.c ****   hspi2.Init.CLKPolarity = SPI_POLARITY_LOW;
 814:Core/Src/main.c ****   hspi2.Init.CLKPhase = SPI_PHASE_1EDGE;
 815:Core/Src/main.c ****   hspi2.Init.NSS = SPI_NSS_SOFT;
 816:Core/Src/main.c ****   hspi2.Init.BaudRatePrescaler = SPI_BAUDRATEPRESCALER_256;
 817:Core/Src/main.c ****   hspi2.Init.FirstBit = SPI_FIRSTBIT_MSB;
 818:Core/Src/main.c ****   hspi2.Init.TIMode = SPI_TIMODE_DISABLE;
 819:Core/Src/main.c ****   hspi2.Init.CRCCalculation = SPI_CRCCALCULATION_DISABLE;
 820:Core/Src/main.c ****   hspi2.Init.CRCPolynomial = 10;
 821:Core/Src/main.c ****   if (HAL_SPI_Init(&hspi2) != HAL_OK)
 822:Core/Src/main.c ****   {
 823:Core/Src/main.c ****     Error_Handler();
 824:Core/Src/main.c ****   }
 825:Core/Src/main.c ****   /* USER CODE BEGIN SPI2_Init 2 */
 826:Core/Src/main.c **** 
 827:Core/Src/main.c ****   /* USER CODE END SPI2_Init 2 */
 828:Core/Src/main.c **** 
 829:Core/Src/main.c **** }
ARM GAS  C:\Users\kroko\AppData\Local\Temp\ccpAdhTr.s 			page 16


 830:Core/Src/main.c **** 
 831:Core/Src/main.c **** /**
 832:Core/Src/main.c ****   * @brief UART4 Initialization Function
 833:Core/Src/main.c ****   * @param None
 834:Core/Src/main.c ****   * @retval None
 835:Core/Src/main.c ****   */
 836:Core/Src/main.c **** static void MX_UART4_Init(void)
 837:Core/Src/main.c **** {
 838:Core/Src/main.c **** 
 839:Core/Src/main.c ****   /* USER CODE BEGIN UART4_Init 0 */
 840:Core/Src/main.c **** 
 841:Core/Src/main.c ****   /* USER CODE END UART4_Init 0 */
 842:Core/Src/main.c **** 
 843:Core/Src/main.c ****   /* USER CODE BEGIN UART4_Init 1 */
 844:Core/Src/main.c **** 
 845:Core/Src/main.c ****   /* USER CODE END UART4_Init 1 */
 846:Core/Src/main.c ****   huart4.Instance = UART4;
 847:Core/Src/main.c ****   huart4.Init.BaudRate = 115200;
 848:Core/Src/main.c ****   huart4.Init.WordLength = UART_WORDLENGTH_8B;
 849:Core/Src/main.c ****   huart4.Init.StopBits = UART_STOPBITS_1;
 850:Core/Src/main.c ****   huart4.Init.Parity = UART_PARITY_NONE;
 851:Core/Src/main.c ****   huart4.Init.Mode = UART_MODE_TX_RX;
 852:Core/Src/main.c ****   huart4.Init.HwFlowCtl = UART_HWCONTROL_NONE;
 853:Core/Src/main.c ****   huart4.Init.OverSampling = UART_OVERSAMPLING_16;
 854:Core/Src/main.c ****   if (HAL_UART_Init(&huart4) != HAL_OK)
 855:Core/Src/main.c ****   {
 856:Core/Src/main.c ****     Error_Handler();
 857:Core/Src/main.c ****   }
 858:Core/Src/main.c ****   /* USER CODE BEGIN UART4_Init 2 */
 859:Core/Src/main.c **** 
 860:Core/Src/main.c ****   /* USER CODE END UART4_Init 2 */
 861:Core/Src/main.c **** 
 862:Core/Src/main.c **** }
 863:Core/Src/main.c **** 
 864:Core/Src/main.c **** /**
 865:Core/Src/main.c ****   * @brief UART5 Initialization Function
 866:Core/Src/main.c ****   * @param None
 867:Core/Src/main.c ****   * @retval None
 868:Core/Src/main.c ****   */
 869:Core/Src/main.c **** static void MX_UART5_Init(void)
 870:Core/Src/main.c **** {
 871:Core/Src/main.c **** 
 872:Core/Src/main.c ****   /* USER CODE BEGIN UART5_Init 0 */
 873:Core/Src/main.c **** 
 874:Core/Src/main.c ****   /* USER CODE END UART5_Init 0 */
 875:Core/Src/main.c **** 
 876:Core/Src/main.c ****   /* USER CODE BEGIN UART5_Init 1 */
 877:Core/Src/main.c **** 
 878:Core/Src/main.c ****   /* USER CODE END UART5_Init 1 */
 879:Core/Src/main.c ****   huart5.Instance = UART5;
 880:Core/Src/main.c ****   huart5.Init.BaudRate = 115200;
 881:Core/Src/main.c ****   huart5.Init.WordLength = UART_WORDLENGTH_8B;
 882:Core/Src/main.c ****   huart5.Init.StopBits = UART_STOPBITS_1;
 883:Core/Src/main.c ****   huart5.Init.Parity = UART_PARITY_NONE;
 884:Core/Src/main.c ****   huart5.Init.Mode = UART_MODE_TX_RX;
 885:Core/Src/main.c ****   huart5.Init.HwFlowCtl = UART_HWCONTROL_NONE;
 886:Core/Src/main.c ****   huart5.Init.OverSampling = UART_OVERSAMPLING_16;
ARM GAS  C:\Users\kroko\AppData\Local\Temp\ccpAdhTr.s 			page 17


 887:Core/Src/main.c ****   if (HAL_UART_Init(&huart5) != HAL_OK)
 888:Core/Src/main.c ****   {
 889:Core/Src/main.c ****     Error_Handler();
 890:Core/Src/main.c ****   }
 891:Core/Src/main.c ****   /* USER CODE BEGIN UART5_Init 2 */
 892:Core/Src/main.c **** 
 893:Core/Src/main.c ****   /* USER CODE END UART5_Init 2 */
 894:Core/Src/main.c **** 
 895:Core/Src/main.c **** }
 896:Core/Src/main.c **** 
 897:Core/Src/main.c **** /**
 898:Core/Src/main.c ****   * @brief USART2 Initialization Function
 899:Core/Src/main.c ****   * @param None
 900:Core/Src/main.c ****   * @retval None
 901:Core/Src/main.c ****   */
 902:Core/Src/main.c **** static void MX_USART2_UART_Init(void)
 903:Core/Src/main.c **** {
 904:Core/Src/main.c **** 
 905:Core/Src/main.c ****   /* USER CODE BEGIN USART2_Init 0 */
 906:Core/Src/main.c **** 
 907:Core/Src/main.c ****   /* USER CODE END USART2_Init 0 */
 908:Core/Src/main.c **** 
 909:Core/Src/main.c ****   /* USER CODE BEGIN USART2_Init 1 */
 910:Core/Src/main.c **** 
 911:Core/Src/main.c ****   /* USER CODE END USART2_Init 1 */
 912:Core/Src/main.c ****   huart2.Instance = USART2;
 913:Core/Src/main.c ****   huart2.Init.BaudRate = 115200;
 914:Core/Src/main.c ****   huart2.Init.WordLength = UART_WORDLENGTH_8B;
 915:Core/Src/main.c ****   huart2.Init.StopBits = UART_STOPBITS_1;
 916:Core/Src/main.c ****   huart2.Init.Parity = UART_PARITY_NONE;
 917:Core/Src/main.c ****   huart2.Init.Mode = UART_MODE_TX_RX;
 918:Core/Src/main.c ****   huart2.Init.HwFlowCtl = UART_HWCONTROL_NONE;
 919:Core/Src/main.c ****   huart2.Init.OverSampling = UART_OVERSAMPLING_16;
 920:Core/Src/main.c ****   if (HAL_UART_Init(&huart2) != HAL_OK)
 921:Core/Src/main.c ****   {
 922:Core/Src/main.c ****     Error_Handler();
 923:Core/Src/main.c ****   }
 924:Core/Src/main.c ****   /* USER CODE BEGIN USART2_Init 2 */
 925:Core/Src/main.c **** 
 926:Core/Src/main.c ****   /* USER CODE END USART2_Init 2 */
 927:Core/Src/main.c **** 
 928:Core/Src/main.c **** }
 929:Core/Src/main.c **** 
 930:Core/Src/main.c **** /**
 931:Core/Src/main.c ****   * @brief USART3 Initialization Function
 932:Core/Src/main.c ****   * @param None
 933:Core/Src/main.c ****   * @retval None
 934:Core/Src/main.c ****   */
 935:Core/Src/main.c **** static void MX_USART3_UART_Init(void)
 936:Core/Src/main.c **** {
 937:Core/Src/main.c **** 
 938:Core/Src/main.c ****   /* USER CODE BEGIN USART3_Init 0 */
 939:Core/Src/main.c **** 
 940:Core/Src/main.c ****   /* USER CODE END USART3_Init 0 */
 941:Core/Src/main.c **** 
 942:Core/Src/main.c ****   /* USER CODE BEGIN USART3_Init 1 */
 943:Core/Src/main.c **** 
ARM GAS  C:\Users\kroko\AppData\Local\Temp\ccpAdhTr.s 			page 18


 944:Core/Src/main.c ****   /* USER CODE END USART3_Init 1 */
 945:Core/Src/main.c ****   huart3.Instance = USART3;
 946:Core/Src/main.c ****   huart3.Init.BaudRate = 115200;
 947:Core/Src/main.c ****   huart3.Init.WordLength = UART_WORDLENGTH_8B;
 948:Core/Src/main.c ****   huart3.Init.StopBits = UART_STOPBITS_1;
 949:Core/Src/main.c ****   huart3.Init.Parity = UART_PARITY_NONE;
 950:Core/Src/main.c ****   huart3.Init.Mode = UART_MODE_TX_RX;
 951:Core/Src/main.c ****   huart3.Init.HwFlowCtl = UART_HWCONTROL_NONE;
 952:Core/Src/main.c ****   huart3.Init.OverSampling = UART_OVERSAMPLING_16;
 953:Core/Src/main.c ****   if (HAL_UART_Init(&huart3) != HAL_OK)
 954:Core/Src/main.c ****   {
 955:Core/Src/main.c ****     Error_Handler();
 956:Core/Src/main.c ****   }
 957:Core/Src/main.c ****   /* USER CODE BEGIN USART3_Init 2 */
 958:Core/Src/main.c **** 
 959:Core/Src/main.c ****   /* USER CODE END USART3_Init 2 */
 960:Core/Src/main.c **** 
 961:Core/Src/main.c **** }
 962:Core/Src/main.c **** 
 963:Core/Src/main.c **** /**
 964:Core/Src/main.c ****   * @brief USART6 Initialization Function
 965:Core/Src/main.c ****   * @param None
 966:Core/Src/main.c ****   * @retval None
 967:Core/Src/main.c ****   */
 968:Core/Src/main.c **** static void MX_USART6_UART_Init(void)
 969:Core/Src/main.c **** {
 970:Core/Src/main.c **** 
 971:Core/Src/main.c ****   /* USER CODE BEGIN USART6_Init 0 */
 972:Core/Src/main.c **** 
 973:Core/Src/main.c ****   /* USER CODE END USART6_Init 0 */
 974:Core/Src/main.c **** 
 975:Core/Src/main.c ****   /* USER CODE BEGIN USART6_Init 1 */
 976:Core/Src/main.c **** 
 977:Core/Src/main.c ****   /* USER CODE END USART6_Init 1 */
 978:Core/Src/main.c ****   huart6.Instance = USART6;
 979:Core/Src/main.c ****   huart6.Init.BaudRate = 115200;
 980:Core/Src/main.c ****   huart6.Init.WordLength = UART_WORDLENGTH_8B;
 981:Core/Src/main.c ****   huart6.Init.StopBits = UART_STOPBITS_1;
 982:Core/Src/main.c ****   huart6.Init.Parity = UART_PARITY_NONE;
 983:Core/Src/main.c ****   huart6.Init.Mode = UART_MODE_TX_RX;
 984:Core/Src/main.c ****   huart6.Init.HwFlowCtl = UART_HWCONTROL_NONE;
 985:Core/Src/main.c ****   huart6.Init.OverSampling = UART_OVERSAMPLING_16;
 986:Core/Src/main.c ****   if (HAL_UART_Init(&huart6) != HAL_OK)
 987:Core/Src/main.c ****   {
 988:Core/Src/main.c ****     Error_Handler();
 989:Core/Src/main.c ****   }
 990:Core/Src/main.c ****   /* USER CODE BEGIN USART6_Init 2 */
 991:Core/Src/main.c **** 
 992:Core/Src/main.c ****   /* USER CODE END USART6_Init 2 */
 993:Core/Src/main.c **** 
 994:Core/Src/main.c **** }
 995:Core/Src/main.c **** 
 996:Core/Src/main.c **** /**
 997:Core/Src/main.c ****   * Enable DMA controller clock
 998:Core/Src/main.c ****   */
 999:Core/Src/main.c **** static void MX_DMA_Init(void)
1000:Core/Src/main.c **** {
ARM GAS  C:\Users\kroko\AppData\Local\Temp\ccpAdhTr.s 			page 19


1001:Core/Src/main.c **** 
1002:Core/Src/main.c ****   /* DMA controller clock enable */
1003:Core/Src/main.c ****   __HAL_RCC_DMA2_CLK_ENABLE();
1004:Core/Src/main.c ****   __HAL_RCC_DMA1_CLK_ENABLE();
1005:Core/Src/main.c **** 
1006:Core/Src/main.c ****   /* DMA interrupt init */
1007:Core/Src/main.c ****   /* DMA1_Stream0_IRQn interrupt configuration */
1008:Core/Src/main.c ****   HAL_NVIC_SetPriority(DMA1_Stream0_IRQn, 0, 0);
1009:Core/Src/main.c ****   HAL_NVIC_EnableIRQ(DMA1_Stream0_IRQn);
1010:Core/Src/main.c ****   /* DMA1_Stream1_IRQn interrupt configuration */
1011:Core/Src/main.c ****   HAL_NVIC_SetPriority(DMA1_Stream1_IRQn, 0, 0);
1012:Core/Src/main.c ****   HAL_NVIC_EnableIRQ(DMA1_Stream1_IRQn);
1013:Core/Src/main.c ****   /* DMA1_Stream2_IRQn interrupt configuration */
1014:Core/Src/main.c ****   HAL_NVIC_SetPriority(DMA1_Stream2_IRQn, 0, 0);
1015:Core/Src/main.c ****   HAL_NVIC_EnableIRQ(DMA1_Stream2_IRQn);
1016:Core/Src/main.c ****   /* DMA1_Stream3_IRQn interrupt configuration */
1017:Core/Src/main.c ****   HAL_NVIC_SetPriority(DMA1_Stream3_IRQn, 0, 0);
1018:Core/Src/main.c ****   HAL_NVIC_EnableIRQ(DMA1_Stream3_IRQn);
1019:Core/Src/main.c ****   /* DMA1_Stream4_IRQn interrupt configuration */
1020:Core/Src/main.c ****   HAL_NVIC_SetPriority(DMA1_Stream4_IRQn, 0, 0);
1021:Core/Src/main.c ****   HAL_NVIC_EnableIRQ(DMA1_Stream4_IRQn);
1022:Core/Src/main.c ****   /* DMA1_Stream5_IRQn interrupt configuration */
1023:Core/Src/main.c ****   HAL_NVIC_SetPriority(DMA1_Stream5_IRQn, 0, 0);
1024:Core/Src/main.c ****   HAL_NVIC_EnableIRQ(DMA1_Stream5_IRQn);
1025:Core/Src/main.c ****   /* DMA1_Stream6_IRQn interrupt configuration */
1026:Core/Src/main.c ****   HAL_NVIC_SetPriority(DMA1_Stream6_IRQn, 0, 0);
1027:Core/Src/main.c ****   HAL_NVIC_EnableIRQ(DMA1_Stream6_IRQn);
1028:Core/Src/main.c ****   /* DMA1_Stream7_IRQn interrupt configuration */
1029:Core/Src/main.c ****   HAL_NVIC_SetPriority(DMA1_Stream7_IRQn, 0, 0);
1030:Core/Src/main.c ****   HAL_NVIC_EnableIRQ(DMA1_Stream7_IRQn);
1031:Core/Src/main.c ****   /* DMA2_Stream1_IRQn interrupt configuration */
1032:Core/Src/main.c ****   HAL_NVIC_SetPriority(DMA2_Stream1_IRQn, 0, 0);
1033:Core/Src/main.c ****   HAL_NVIC_EnableIRQ(DMA2_Stream1_IRQn);
1034:Core/Src/main.c ****   /* DMA2_Stream2_IRQn interrupt configuration */
1035:Core/Src/main.c ****   HAL_NVIC_SetPriority(DMA2_Stream2_IRQn, 0, 0);
1036:Core/Src/main.c ****   HAL_NVIC_EnableIRQ(DMA2_Stream2_IRQn);
1037:Core/Src/main.c ****   /* DMA2_Stream6_IRQn interrupt configuration */
1038:Core/Src/main.c ****   HAL_NVIC_SetPriority(DMA2_Stream6_IRQn, 0, 0);
1039:Core/Src/main.c ****   HAL_NVIC_EnableIRQ(DMA2_Stream6_IRQn);
1040:Core/Src/main.c **** 
1041:Core/Src/main.c **** }
1042:Core/Src/main.c **** 
1043:Core/Src/main.c **** /**
1044:Core/Src/main.c ****   * @brief GPIO Initialization Function
1045:Core/Src/main.c ****   * @param None
1046:Core/Src/main.c ****   * @retval None
1047:Core/Src/main.c ****   */
1048:Core/Src/main.c **** static void MX_GPIO_Init(void)
1049:Core/Src/main.c **** {
  28              		.loc 1 1049 1 view -0
  29              		.cfi_startproc
  30              		@ args = 0, pretend = 0, frame = 40
  31              		@ frame_needed = 0, uses_anonymous_args = 0
  32 0000 2DE9F043 		push	{r4, r5, r6, r7, r8, r9, lr}
  33              		.cfi_def_cfa_offset 28
  34              		.cfi_offset 4, -28
  35              		.cfi_offset 5, -24
ARM GAS  C:\Users\kroko\AppData\Local\Temp\ccpAdhTr.s 			page 20


  36              		.cfi_offset 6, -20
  37              		.cfi_offset 7, -16
  38              		.cfi_offset 8, -12
  39              		.cfi_offset 9, -8
  40              		.cfi_offset 14, -4
  41 0004 8BB0     		sub	sp, sp, #44
  42              		.cfi_def_cfa_offset 72
1050:Core/Src/main.c ****   GPIO_InitTypeDef GPIO_InitStruct = {0};
  43              		.loc 1 1050 3 view .LVU1
  44              		.loc 1 1050 20 is_stmt 0 view .LVU2
  45 0006 0024     		movs	r4, #0
  46 0008 0594     		str	r4, [sp, #20]
  47 000a 0694     		str	r4, [sp, #24]
  48 000c 0794     		str	r4, [sp, #28]
  49 000e 0894     		str	r4, [sp, #32]
  50 0010 0994     		str	r4, [sp, #36]
1051:Core/Src/main.c **** /* USER CODE BEGIN MX_GPIO_Init_1 */
1052:Core/Src/main.c **** /* USER CODE END MX_GPIO_Init_1 */
1053:Core/Src/main.c **** 
1054:Core/Src/main.c ****   /* GPIO Ports Clock Enable */
1055:Core/Src/main.c ****   __HAL_RCC_GPIOC_CLK_ENABLE();
  51              		.loc 1 1055 3 is_stmt 1 view .LVU3
  52              	.LBB4:
  53              		.loc 1 1055 3 view .LVU4
  54 0012 0094     		str	r4, [sp]
  55              		.loc 1 1055 3 view .LVU5
  56 0014 474B     		ldr	r3, .L3
  57 0016 1A6B     		ldr	r2, [r3, #48]
  58 0018 42F00402 		orr	r2, r2, #4
  59 001c 1A63     		str	r2, [r3, #48]
  60              		.loc 1 1055 3 view .LVU6
  61 001e 1A6B     		ldr	r2, [r3, #48]
  62 0020 02F00402 		and	r2, r2, #4
  63 0024 0092     		str	r2, [sp]
  64              		.loc 1 1055 3 view .LVU7
  65 0026 009A     		ldr	r2, [sp]
  66              	.LBE4:
  67              		.loc 1 1055 3 view .LVU8
1056:Core/Src/main.c ****   __HAL_RCC_GPIOH_CLK_ENABLE();
  68              		.loc 1 1056 3 view .LVU9
  69              	.LBB5:
  70              		.loc 1 1056 3 view .LVU10
  71 0028 0194     		str	r4, [sp, #4]
  72              		.loc 1 1056 3 view .LVU11
  73 002a 1A6B     		ldr	r2, [r3, #48]
  74 002c 42F08002 		orr	r2, r2, #128
  75 0030 1A63     		str	r2, [r3, #48]
  76              		.loc 1 1056 3 view .LVU12
  77 0032 1A6B     		ldr	r2, [r3, #48]
  78 0034 02F08002 		and	r2, r2, #128
  79 0038 0192     		str	r2, [sp, #4]
  80              		.loc 1 1056 3 view .LVU13
  81 003a 019A     		ldr	r2, [sp, #4]
  82              	.LBE5:
  83              		.loc 1 1056 3 view .LVU14
1057:Core/Src/main.c ****   __HAL_RCC_GPIOA_CLK_ENABLE();
  84              		.loc 1 1057 3 view .LVU15
ARM GAS  C:\Users\kroko\AppData\Local\Temp\ccpAdhTr.s 			page 21


  85              	.LBB6:
  86              		.loc 1 1057 3 view .LVU16
  87 003c 0294     		str	r4, [sp, #8]
  88              		.loc 1 1057 3 view .LVU17
  89 003e 1A6B     		ldr	r2, [r3, #48]
  90 0040 42F00102 		orr	r2, r2, #1
  91 0044 1A63     		str	r2, [r3, #48]
  92              		.loc 1 1057 3 view .LVU18
  93 0046 1A6B     		ldr	r2, [r3, #48]
  94 0048 02F00102 		and	r2, r2, #1
  95 004c 0292     		str	r2, [sp, #8]
  96              		.loc 1 1057 3 view .LVU19
  97 004e 029A     		ldr	r2, [sp, #8]
  98              	.LBE6:
  99              		.loc 1 1057 3 view .LVU20
1058:Core/Src/main.c ****   __HAL_RCC_GPIOB_CLK_ENABLE();
 100              		.loc 1 1058 3 view .LVU21
 101              	.LBB7:
 102              		.loc 1 1058 3 view .LVU22
 103 0050 0394     		str	r4, [sp, #12]
 104              		.loc 1 1058 3 view .LVU23
 105 0052 1A6B     		ldr	r2, [r3, #48]
 106 0054 42F00202 		orr	r2, r2, #2
 107 0058 1A63     		str	r2, [r3, #48]
 108              		.loc 1 1058 3 view .LVU24
 109 005a 1A6B     		ldr	r2, [r3, #48]
 110 005c 02F00202 		and	r2, r2, #2
 111 0060 0392     		str	r2, [sp, #12]
 112              		.loc 1 1058 3 view .LVU25
 113 0062 039A     		ldr	r2, [sp, #12]
 114              	.LBE7:
 115              		.loc 1 1058 3 view .LVU26
1059:Core/Src/main.c ****   __HAL_RCC_GPIOD_CLK_ENABLE();
 116              		.loc 1 1059 3 view .LVU27
 117              	.LBB8:
 118              		.loc 1 1059 3 view .LVU28
 119 0064 0494     		str	r4, [sp, #16]
 120              		.loc 1 1059 3 view .LVU29
 121 0066 1A6B     		ldr	r2, [r3, #48]
 122 0068 42F00802 		orr	r2, r2, #8
 123 006c 1A63     		str	r2, [r3, #48]
 124              		.loc 1 1059 3 view .LVU30
 125 006e 1B6B     		ldr	r3, [r3, #48]
 126 0070 03F00803 		and	r3, r3, #8
 127 0074 0493     		str	r3, [sp, #16]
 128              		.loc 1 1059 3 view .LVU31
 129 0076 049B     		ldr	r3, [sp, #16]
 130              	.LBE8:
 131              		.loc 1 1059 3 view .LVU32
1060:Core/Src/main.c **** 
1061:Core/Src/main.c ****   /*Configure GPIO pin Output Level */
1062:Core/Src/main.c ****   HAL_GPIO_WritePin(GPIOC, GPIO_PIN_13|DEV0_RST_Pin|SPI2_CS_Pin|DC_Pin
 132              		.loc 1 1062 3 view .LVU33
 133 0078 DFF8C490 		ldr	r9, .L3+12
 134 007c 2246     		mov	r2, r4
 135 007e 42F21311 		movw	r1, #8467
 136 0082 4846     		mov	r0, r9
ARM GAS  C:\Users\kroko\AppData\Local\Temp\ccpAdhTr.s 			page 22


 137 0084 FFF7FEFF 		bl	HAL_GPIO_WritePin
 138              	.LVL0:
1063:Core/Src/main.c ****                           |BL_EN_Pin, GPIO_PIN_RESET);
1064:Core/Src/main.c **** 
1065:Core/Src/main.c ****   /*Configure GPIO pin Output Level */
1066:Core/Src/main.c ****   HAL_GPIO_WritePin(RST_GPIO_Port, RST_Pin, GPIO_PIN_RESET);
 139              		.loc 1 1066 3 view .LVU34
 140 0088 DFF8B880 		ldr	r8, .L3+16
 141 008c 2246     		mov	r2, r4
 142 008e 4021     		movs	r1, #64
 143 0090 4046     		mov	r0, r8
 144 0092 FFF7FEFF 		bl	HAL_GPIO_WritePin
 145              	.LVL1:
1067:Core/Src/main.c **** 
1068:Core/Src/main.c ****   /*Configure GPIO pin Output Level */
1069:Core/Src/main.c ****   HAL_GPIO_WritePin(GPIOB, DEV1_RST_Pin|DEV2_RST_Pin, GPIO_PIN_RESET);
 146              		.loc 1 1069 3 view .LVU35
 147 0096 284D     		ldr	r5, .L3+4
 148 0098 2246     		mov	r2, r4
 149 009a 0321     		movs	r1, #3
 150 009c 2846     		mov	r0, r5
 151 009e FFF7FEFF 		bl	HAL_GPIO_WritePin
 152              	.LVL2:
1070:Core/Src/main.c **** 
1071:Core/Src/main.c ****   /*Configure GPIO pin Output Level */
1072:Core/Src/main.c ****   HAL_GPIO_WritePin(DEV3_RST_GPIO_Port, DEV3_RST_Pin, GPIO_PIN_RESET);
 153              		.loc 1 1072 3 view .LVU36
 154 00a2 264F     		ldr	r7, .L3+8
 155 00a4 2246     		mov	r2, r4
 156 00a6 0421     		movs	r1, #4
 157 00a8 3846     		mov	r0, r7
 158 00aa FFF7FEFF 		bl	HAL_GPIO_WritePin
 159              	.LVL3:
1073:Core/Src/main.c **** 
1074:Core/Src/main.c ****   /*Configure GPIO pin Output Level */
1075:Core/Src/main.c ****   HAL_GPIO_WritePin(TP_RST_GPIO_Port, TP_RST_Pin, GPIO_PIN_SET);
 160              		.loc 1 1075 3 view .LVU37
 161 00ae 0122     		movs	r2, #1
 162 00b0 4FF48071 		mov	r1, #256
 163 00b4 2846     		mov	r0, r5
 164 00b6 FFF7FEFF 		bl	HAL_GPIO_WritePin
 165              	.LVL4:
1076:Core/Src/main.c **** 
1077:Core/Src/main.c ****   /*Configure GPIO pins : PC13 DEV0_RST_Pin SPI2_CS_Pin DC_Pin
1078:Core/Src/main.c ****                            BL_EN_Pin */
1079:Core/Src/main.c ****   GPIO_InitStruct.Pin = GPIO_PIN_13|DEV0_RST_Pin|SPI2_CS_Pin|DC_Pin
 166              		.loc 1 1079 3 view .LVU38
 167              		.loc 1 1079 23 is_stmt 0 view .LVU39
 168 00ba 42F21313 		movw	r3, #8467
 169 00be 0593     		str	r3, [sp, #20]
1080:Core/Src/main.c ****                           |BL_EN_Pin;
1081:Core/Src/main.c ****   GPIO_InitStruct.Mode = GPIO_MODE_OUTPUT_PP;
 170              		.loc 1 1081 3 is_stmt 1 view .LVU40
 171              		.loc 1 1081 24 is_stmt 0 view .LVU41
 172 00c0 0126     		movs	r6, #1
 173 00c2 0696     		str	r6, [sp, #24]
1082:Core/Src/main.c ****   GPIO_InitStruct.Pull = GPIO_NOPULL;
ARM GAS  C:\Users\kroko\AppData\Local\Temp\ccpAdhTr.s 			page 23


 174              		.loc 1 1082 3 is_stmt 1 view .LVU42
 175              		.loc 1 1082 24 is_stmt 0 view .LVU43
 176 00c4 0794     		str	r4, [sp, #28]
1083:Core/Src/main.c ****   GPIO_InitStruct.Speed = GPIO_SPEED_FREQ_LOW;
 177              		.loc 1 1083 3 is_stmt 1 view .LVU44
 178              		.loc 1 1083 25 is_stmt 0 view .LVU45
 179 00c6 0894     		str	r4, [sp, #32]
1084:Core/Src/main.c ****   HAL_GPIO_Init(GPIOC, &GPIO_InitStruct);
 180              		.loc 1 1084 3 is_stmt 1 view .LVU46
 181 00c8 05A9     		add	r1, sp, #20
 182 00ca 4846     		mov	r0, r9
 183 00cc FFF7FEFF 		bl	HAL_GPIO_Init
 184              	.LVL5:
1085:Core/Src/main.c **** 
1086:Core/Src/main.c ****   /*Configure GPIO pin : RST_Pin */
1087:Core/Src/main.c ****   GPIO_InitStruct.Pin = RST_Pin;
 185              		.loc 1 1087 3 view .LVU47
 186              		.loc 1 1087 23 is_stmt 0 view .LVU48
 187 00d0 4023     		movs	r3, #64
 188 00d2 0593     		str	r3, [sp, #20]
1088:Core/Src/main.c ****   GPIO_InitStruct.Mode = GPIO_MODE_OUTPUT_PP;
 189              		.loc 1 1088 3 is_stmt 1 view .LVU49
 190              		.loc 1 1088 24 is_stmt 0 view .LVU50
 191 00d4 0696     		str	r6, [sp, #24]
1089:Core/Src/main.c ****   GPIO_InitStruct.Pull = GPIO_NOPULL;
 192              		.loc 1 1089 3 is_stmt 1 view .LVU51
 193              		.loc 1 1089 24 is_stmt 0 view .LVU52
 194 00d6 0794     		str	r4, [sp, #28]
1090:Core/Src/main.c ****   GPIO_InitStruct.Speed = GPIO_SPEED_FREQ_LOW;
 195              		.loc 1 1090 3 is_stmt 1 view .LVU53
 196              		.loc 1 1090 25 is_stmt 0 view .LVU54
 197 00d8 0894     		str	r4, [sp, #32]
1091:Core/Src/main.c ****   HAL_GPIO_Init(RST_GPIO_Port, &GPIO_InitStruct);
 198              		.loc 1 1091 3 is_stmt 1 view .LVU55
 199 00da 05A9     		add	r1, sp, #20
 200 00dc 4046     		mov	r0, r8
 201 00de FFF7FEFF 		bl	HAL_GPIO_Init
 202              	.LVL6:
1092:Core/Src/main.c **** 
1093:Core/Src/main.c ****   /*Configure GPIO pins : DEV1_RST_Pin DEV2_RST_Pin TP_RST_Pin */
1094:Core/Src/main.c ****   GPIO_InitStruct.Pin = DEV1_RST_Pin|DEV2_RST_Pin|TP_RST_Pin;
 203              		.loc 1 1094 3 view .LVU56
 204              		.loc 1 1094 23 is_stmt 0 view .LVU57
 205 00e2 40F20313 		movw	r3, #259
 206 00e6 0593     		str	r3, [sp, #20]
1095:Core/Src/main.c ****   GPIO_InitStruct.Mode = GPIO_MODE_OUTPUT_PP;
 207              		.loc 1 1095 3 is_stmt 1 view .LVU58
 208              		.loc 1 1095 24 is_stmt 0 view .LVU59
 209 00e8 0696     		str	r6, [sp, #24]
1096:Core/Src/main.c ****   GPIO_InitStruct.Pull = GPIO_NOPULL;
 210              		.loc 1 1096 3 is_stmt 1 view .LVU60
 211              		.loc 1 1096 24 is_stmt 0 view .LVU61
 212 00ea 0794     		str	r4, [sp, #28]
1097:Core/Src/main.c ****   GPIO_InitStruct.Speed = GPIO_SPEED_FREQ_LOW;
 213              		.loc 1 1097 3 is_stmt 1 view .LVU62
 214              		.loc 1 1097 25 is_stmt 0 view .LVU63
 215 00ec 0894     		str	r4, [sp, #32]
ARM GAS  C:\Users\kroko\AppData\Local\Temp\ccpAdhTr.s 			page 24


1098:Core/Src/main.c ****   HAL_GPIO_Init(GPIOB, &GPIO_InitStruct);
 216              		.loc 1 1098 3 is_stmt 1 view .LVU64
 217 00ee 05A9     		add	r1, sp, #20
 218 00f0 2846     		mov	r0, r5
 219 00f2 FFF7FEFF 		bl	HAL_GPIO_Init
 220              	.LVL7:
1099:Core/Src/main.c **** 
1100:Core/Src/main.c ****   /*Configure GPIO pin : DEV3_RST_Pin */
1101:Core/Src/main.c ****   GPIO_InitStruct.Pin = DEV3_RST_Pin;
 221              		.loc 1 1101 3 view .LVU65
 222              		.loc 1 1101 23 is_stmt 0 view .LVU66
 223 00f6 0423     		movs	r3, #4
 224 00f8 0593     		str	r3, [sp, #20]
1102:Core/Src/main.c ****   GPIO_InitStruct.Mode = GPIO_MODE_OUTPUT_PP;
 225              		.loc 1 1102 3 is_stmt 1 view .LVU67
 226              		.loc 1 1102 24 is_stmt 0 view .LVU68
 227 00fa 0696     		str	r6, [sp, #24]
1103:Core/Src/main.c ****   GPIO_InitStruct.Pull = GPIO_NOPULL;
 228              		.loc 1 1103 3 is_stmt 1 view .LVU69
 229              		.loc 1 1103 24 is_stmt 0 view .LVU70
 230 00fc 0794     		str	r4, [sp, #28]
1104:Core/Src/main.c ****   GPIO_InitStruct.Speed = GPIO_SPEED_FREQ_LOW;
 231              		.loc 1 1104 3 is_stmt 1 view .LVU71
 232              		.loc 1 1104 25 is_stmt 0 view .LVU72
 233 00fe 0894     		str	r4, [sp, #32]
1105:Core/Src/main.c ****   HAL_GPIO_Init(DEV3_RST_GPIO_Port, &GPIO_InitStruct);
 234              		.loc 1 1105 3 is_stmt 1 view .LVU73
 235 0100 05A9     		add	r1, sp, #20
 236 0102 3846     		mov	r0, r7
 237 0104 FFF7FEFF 		bl	HAL_GPIO_Init
 238              	.LVL8:
1106:Core/Src/main.c **** 
1107:Core/Src/main.c ****   /*Configure GPIO pin : TP_INT_Pin */
1108:Core/Src/main.c ****   GPIO_InitStruct.Pin = TP_INT_Pin;
 239              		.loc 1 1108 3 view .LVU74
 240              		.loc 1 1108 23 is_stmt 0 view .LVU75
 241 0108 4FF40073 		mov	r3, #512
 242 010c 0593     		str	r3, [sp, #20]
1109:Core/Src/main.c ****   GPIO_InitStruct.Mode = GPIO_MODE_IT_RISING_FALLING;
 243              		.loc 1 1109 3 is_stmt 1 view .LVU76
 244              		.loc 1 1109 24 is_stmt 0 view .LVU77
 245 010e 4FF44413 		mov	r3, #3211264
 246 0112 0693     		str	r3, [sp, #24]
1110:Core/Src/main.c ****   GPIO_InitStruct.Pull = GPIO_NOPULL;
 247              		.loc 1 1110 3 is_stmt 1 view .LVU78
 248              		.loc 1 1110 24 is_stmt 0 view .LVU79
 249 0114 0794     		str	r4, [sp, #28]
1111:Core/Src/main.c ****   HAL_GPIO_Init(TP_INT_GPIO_Port, &GPIO_InitStruct);
 250              		.loc 1 1111 3 is_stmt 1 view .LVU80
 251 0116 05A9     		add	r1, sp, #20
 252 0118 2846     		mov	r0, r5
 253 011a FFF7FEFF 		bl	HAL_GPIO_Init
 254              	.LVL9:
1112:Core/Src/main.c **** 
1113:Core/Src/main.c ****   /* EXTI interrupt init*/
1114:Core/Src/main.c ****   HAL_NVIC_SetPriority(EXTI9_5_IRQn, 0, 0);
 255              		.loc 1 1114 3 view .LVU81
ARM GAS  C:\Users\kroko\AppData\Local\Temp\ccpAdhTr.s 			page 25


 256 011e 2246     		mov	r2, r4
 257 0120 2146     		mov	r1, r4
 258 0122 1720     		movs	r0, #23
 259 0124 FFF7FEFF 		bl	HAL_NVIC_SetPriority
 260              	.LVL10:
1115:Core/Src/main.c ****   HAL_NVIC_EnableIRQ(EXTI9_5_IRQn);
 261              		.loc 1 1115 3 view .LVU82
 262 0128 1720     		movs	r0, #23
 263 012a FFF7FEFF 		bl	HAL_NVIC_EnableIRQ
 264              	.LVL11:
1116:Core/Src/main.c **** 
1117:Core/Src/main.c **** /* USER CODE BEGIN MX_GPIO_Init_2 */
1118:Core/Src/main.c **** /* USER CODE END MX_GPIO_Init_2 */
1119:Core/Src/main.c **** }
 265              		.loc 1 1119 1 is_stmt 0 view .LVU83
 266 012e 0BB0     		add	sp, sp, #44
 267              		.cfi_def_cfa_offset 28
 268              		@ sp needed
 269 0130 BDE8F083 		pop	{r4, r5, r6, r7, r8, r9, pc}
 270              	.L4:
 271              		.align	2
 272              	.L3:
 273 0134 00380240 		.word	1073887232
 274 0138 00040240 		.word	1073873920
 275 013c 000C0240 		.word	1073875968
 276 0140 00080240 		.word	1073874944
 277 0144 00000240 		.word	1073872896
 278              		.cfi_endproc
 279              	.LFE150:
 281              		.section	.text.MX_DMA_Init,"ax",%progbits
 282              		.align	1
 283              		.syntax unified
 284              		.thumb
 285              		.thumb_func
 287              	MX_DMA_Init:
 288              	.LFB149:
1000:Core/Src/main.c **** 
 289              		.loc 1 1000 1 is_stmt 1 view -0
 290              		.cfi_startproc
 291              		@ args = 0, pretend = 0, frame = 8
 292              		@ frame_needed = 0, uses_anonymous_args = 0
 293 0000 10B5     		push	{r4, lr}
 294              		.cfi_def_cfa_offset 8
 295              		.cfi_offset 4, -8
 296              		.cfi_offset 14, -4
 297 0002 82B0     		sub	sp, sp, #8
 298              		.cfi_def_cfa_offset 16
1003:Core/Src/main.c ****   __HAL_RCC_DMA1_CLK_ENABLE();
 299              		.loc 1 1003 3 view .LVU85
 300              	.LBB9:
1003:Core/Src/main.c ****   __HAL_RCC_DMA1_CLK_ENABLE();
 301              		.loc 1 1003 3 view .LVU86
 302 0004 0024     		movs	r4, #0
 303 0006 0094     		str	r4, [sp]
1003:Core/Src/main.c ****   __HAL_RCC_DMA1_CLK_ENABLE();
 304              		.loc 1 1003 3 view .LVU87
 305 0008 364B     		ldr	r3, .L7
ARM GAS  C:\Users\kroko\AppData\Local\Temp\ccpAdhTr.s 			page 26


 306 000a 1A6B     		ldr	r2, [r3, #48]
 307 000c 42F48002 		orr	r2, r2, #4194304
 308 0010 1A63     		str	r2, [r3, #48]
1003:Core/Src/main.c ****   __HAL_RCC_DMA1_CLK_ENABLE();
 309              		.loc 1 1003 3 view .LVU88
 310 0012 1A6B     		ldr	r2, [r3, #48]
 311 0014 02F48002 		and	r2, r2, #4194304
 312 0018 0092     		str	r2, [sp]
1003:Core/Src/main.c ****   __HAL_RCC_DMA1_CLK_ENABLE();
 313              		.loc 1 1003 3 view .LVU89
 314 001a 009A     		ldr	r2, [sp]
 315              	.LBE9:
1003:Core/Src/main.c ****   __HAL_RCC_DMA1_CLK_ENABLE();
 316              		.loc 1 1003 3 view .LVU90
1004:Core/Src/main.c **** 
 317              		.loc 1 1004 3 view .LVU91
 318              	.LBB10:
1004:Core/Src/main.c **** 
 319              		.loc 1 1004 3 view .LVU92
 320 001c 0194     		str	r4, [sp, #4]
1004:Core/Src/main.c **** 
 321              		.loc 1 1004 3 view .LVU93
 322 001e 1A6B     		ldr	r2, [r3, #48]
 323 0020 42F40012 		orr	r2, r2, #2097152
 324 0024 1A63     		str	r2, [r3, #48]
1004:Core/Src/main.c **** 
 325              		.loc 1 1004 3 view .LVU94
 326 0026 1B6B     		ldr	r3, [r3, #48]
 327 0028 03F40013 		and	r3, r3, #2097152
 328 002c 0193     		str	r3, [sp, #4]
1004:Core/Src/main.c **** 
 329              		.loc 1 1004 3 view .LVU95
 330 002e 019B     		ldr	r3, [sp, #4]
 331              	.LBE10:
1004:Core/Src/main.c **** 
 332              		.loc 1 1004 3 view .LVU96
1008:Core/Src/main.c ****   HAL_NVIC_EnableIRQ(DMA1_Stream0_IRQn);
 333              		.loc 1 1008 3 view .LVU97
 334 0030 2246     		mov	r2, r4
 335 0032 2146     		mov	r1, r4
 336 0034 0B20     		movs	r0, #11
 337 0036 FFF7FEFF 		bl	HAL_NVIC_SetPriority
 338              	.LVL12:
1009:Core/Src/main.c ****   /* DMA1_Stream1_IRQn interrupt configuration */
 339              		.loc 1 1009 3 view .LVU98
 340 003a 0B20     		movs	r0, #11
 341 003c FFF7FEFF 		bl	HAL_NVIC_EnableIRQ
 342              	.LVL13:
1011:Core/Src/main.c ****   HAL_NVIC_EnableIRQ(DMA1_Stream1_IRQn);
 343              		.loc 1 1011 3 view .LVU99
 344 0040 2246     		mov	r2, r4
 345 0042 2146     		mov	r1, r4
 346 0044 0C20     		movs	r0, #12
 347 0046 FFF7FEFF 		bl	HAL_NVIC_SetPriority
 348              	.LVL14:
1012:Core/Src/main.c ****   /* DMA1_Stream2_IRQn interrupt configuration */
 349              		.loc 1 1012 3 view .LVU100
ARM GAS  C:\Users\kroko\AppData\Local\Temp\ccpAdhTr.s 			page 27


 350 004a 0C20     		movs	r0, #12
 351 004c FFF7FEFF 		bl	HAL_NVIC_EnableIRQ
 352              	.LVL15:
1014:Core/Src/main.c ****   HAL_NVIC_EnableIRQ(DMA1_Stream2_IRQn);
 353              		.loc 1 1014 3 view .LVU101
 354 0050 2246     		mov	r2, r4
 355 0052 2146     		mov	r1, r4
 356 0054 0D20     		movs	r0, #13
 357 0056 FFF7FEFF 		bl	HAL_NVIC_SetPriority
 358              	.LVL16:
1015:Core/Src/main.c ****   /* DMA1_Stream3_IRQn interrupt configuration */
 359              		.loc 1 1015 3 view .LVU102
 360 005a 0D20     		movs	r0, #13
 361 005c FFF7FEFF 		bl	HAL_NVIC_EnableIRQ
 362              	.LVL17:
1017:Core/Src/main.c ****   HAL_NVIC_EnableIRQ(DMA1_Stream3_IRQn);
 363              		.loc 1 1017 3 view .LVU103
 364 0060 2246     		mov	r2, r4
 365 0062 2146     		mov	r1, r4
 366 0064 0E20     		movs	r0, #14
 367 0066 FFF7FEFF 		bl	HAL_NVIC_SetPriority
 368              	.LVL18:
1018:Core/Src/main.c ****   /* DMA1_Stream4_IRQn interrupt configuration */
 369              		.loc 1 1018 3 view .LVU104
 370 006a 0E20     		movs	r0, #14
 371 006c FFF7FEFF 		bl	HAL_NVIC_EnableIRQ
 372              	.LVL19:
1020:Core/Src/main.c ****   HAL_NVIC_EnableIRQ(DMA1_Stream4_IRQn);
 373              		.loc 1 1020 3 view .LVU105
 374 0070 2246     		mov	r2, r4
 375 0072 2146     		mov	r1, r4
 376 0074 0F20     		movs	r0, #15
 377 0076 FFF7FEFF 		bl	HAL_NVIC_SetPriority
 378              	.LVL20:
1021:Core/Src/main.c ****   /* DMA1_Stream5_IRQn interrupt configuration */
 379              		.loc 1 1021 3 view .LVU106
 380 007a 0F20     		movs	r0, #15
 381 007c FFF7FEFF 		bl	HAL_NVIC_EnableIRQ
 382              	.LVL21:
1023:Core/Src/main.c ****   HAL_NVIC_EnableIRQ(DMA1_Stream5_IRQn);
 383              		.loc 1 1023 3 view .LVU107
 384 0080 2246     		mov	r2, r4
 385 0082 2146     		mov	r1, r4
 386 0084 1020     		movs	r0, #16
 387 0086 FFF7FEFF 		bl	HAL_NVIC_SetPriority
 388              	.LVL22:
1024:Core/Src/main.c ****   /* DMA1_Stream6_IRQn interrupt configuration */
 389              		.loc 1 1024 3 view .LVU108
 390 008a 1020     		movs	r0, #16
 391 008c FFF7FEFF 		bl	HAL_NVIC_EnableIRQ
 392              	.LVL23:
1026:Core/Src/main.c ****   HAL_NVIC_EnableIRQ(DMA1_Stream6_IRQn);
 393              		.loc 1 1026 3 view .LVU109
 394 0090 2246     		mov	r2, r4
 395 0092 2146     		mov	r1, r4
 396 0094 1120     		movs	r0, #17
 397 0096 FFF7FEFF 		bl	HAL_NVIC_SetPriority
ARM GAS  C:\Users\kroko\AppData\Local\Temp\ccpAdhTr.s 			page 28


 398              	.LVL24:
1027:Core/Src/main.c ****   /* DMA1_Stream7_IRQn interrupt configuration */
 399              		.loc 1 1027 3 view .LVU110
 400 009a 1120     		movs	r0, #17
 401 009c FFF7FEFF 		bl	HAL_NVIC_EnableIRQ
 402              	.LVL25:
1029:Core/Src/main.c ****   HAL_NVIC_EnableIRQ(DMA1_Stream7_IRQn);
 403              		.loc 1 1029 3 view .LVU111
 404 00a0 2246     		mov	r2, r4
 405 00a2 2146     		mov	r1, r4
 406 00a4 2F20     		movs	r0, #47
 407 00a6 FFF7FEFF 		bl	HAL_NVIC_SetPriority
 408              	.LVL26:
1030:Core/Src/main.c ****   /* DMA2_Stream1_IRQn interrupt configuration */
 409              		.loc 1 1030 3 view .LVU112
 410 00aa 2F20     		movs	r0, #47
 411 00ac FFF7FEFF 		bl	HAL_NVIC_EnableIRQ
 412              	.LVL27:
1032:Core/Src/main.c ****   HAL_NVIC_EnableIRQ(DMA2_Stream1_IRQn);
 413              		.loc 1 1032 3 view .LVU113
 414 00b0 2246     		mov	r2, r4
 415 00b2 2146     		mov	r1, r4
 416 00b4 3920     		movs	r0, #57
 417 00b6 FFF7FEFF 		bl	HAL_NVIC_SetPriority
 418              	.LVL28:
1033:Core/Src/main.c ****   /* DMA2_Stream2_IRQn interrupt configuration */
 419              		.loc 1 1033 3 view .LVU114
 420 00ba 3920     		movs	r0, #57
 421 00bc FFF7FEFF 		bl	HAL_NVIC_EnableIRQ
 422              	.LVL29:
1035:Core/Src/main.c ****   HAL_NVIC_EnableIRQ(DMA2_Stream2_IRQn);
 423              		.loc 1 1035 3 view .LVU115
 424 00c0 2246     		mov	r2, r4
 425 00c2 2146     		mov	r1, r4
 426 00c4 3A20     		movs	r0, #58
 427 00c6 FFF7FEFF 		bl	HAL_NVIC_SetPriority
 428              	.LVL30:
1036:Core/Src/main.c ****   /* DMA2_Stream6_IRQn interrupt configuration */
 429              		.loc 1 1036 3 view .LVU116
 430 00ca 3A20     		movs	r0, #58
 431 00cc FFF7FEFF 		bl	HAL_NVIC_EnableIRQ
 432              	.LVL31:
1038:Core/Src/main.c ****   HAL_NVIC_EnableIRQ(DMA2_Stream6_IRQn);
 433              		.loc 1 1038 3 view .LVU117
 434 00d0 2246     		mov	r2, r4
 435 00d2 2146     		mov	r1, r4
 436 00d4 4520     		movs	r0, #69
 437 00d6 FFF7FEFF 		bl	HAL_NVIC_SetPriority
 438              	.LVL32:
1039:Core/Src/main.c **** 
 439              		.loc 1 1039 3 view .LVU118
 440 00da 4520     		movs	r0, #69
 441 00dc FFF7FEFF 		bl	HAL_NVIC_EnableIRQ
 442              	.LVL33:
1041:Core/Src/main.c **** 
 443              		.loc 1 1041 1 is_stmt 0 view .LVU119
 444 00e0 02B0     		add	sp, sp, #8
ARM GAS  C:\Users\kroko\AppData\Local\Temp\ccpAdhTr.s 			page 29


 445              		.cfi_def_cfa_offset 8
 446              		@ sp needed
 447 00e2 10BD     		pop	{r4, pc}
 448              	.L8:
 449              		.align	2
 450              	.L7:
 451 00e4 00380240 		.word	1073887232
 452              		.cfi_endproc
 453              	.LFE149:
 455              		.section	.text.Set_Alarm,"ax",%progbits
 456              		.align	1
 457              		.global	Set_Alarm
 458              		.syntax unified
 459              		.thumb
 460              		.thumb_func
 462              	Set_Alarm:
 463              	.LVL34:
 464              	.LFB151:
1120:Core/Src/main.c **** 
1121:Core/Src/main.c **** /* USER CODE BEGIN 4 */
1122:Core/Src/main.c **** void Set_Alarm(uint8_t minutes)
1123:Core/Src/main.c **** {   
 465              		.loc 1 1123 1 is_stmt 1 view -0
 466              		.cfi_startproc
 467              		@ args = 0, pretend = 0, frame = 0
 468              		@ frame_needed = 0, uses_anonymous_args = 0
 469              		@ link register save eliminated.
1124:Core/Src/main.c ****   // RTC_DateTypeDef sDate;
1125:Core/Src/main.c ****   // RTC_TimeTypeDef sTime;
1126:Core/Src/main.c ****   // RTC_AlarmTypeDef sAlarm;
1127:Core/Src/main.c ****   // // Get the current RTC time and date
1128:Core/Src/main.c ****   // HAL_RTC_GetTime(&hrtc, &sTime, RTC_FORMAT_BIN);
1129:Core/Src/main.c ****   // HAL_RTC_GetDate(&hrtc, &sDate, RTC_FORMAT_BIN);
1130:Core/Src/main.c **** 
1131:Core/Src/main.c ****   // // Calculate the new alarm time
1132:Core/Src/main.c ****   // uint8_t newMinutes = (sTime.Minutes + minutes) % 60;
1133:Core/Src/main.c ****   // uint8_t minutesOverflow = (sTime.Minutes + minutes) / 60;
1134:Core/Src/main.c **** 
1135:Core/Src/main.c ****   // uint8_t newHours = (sTime.Hours + minutesOverflow) % 24;
1136:Core/Src/main.c ****   // uint8_t hoursOverflow = (sTime.Hours + minutesOverflow) / 24;
1137:Core/Src/main.c **** 
1138:Core/Src/main.c ****   // // Handle day, month, and year transitions
1139:Core/Src/main.c ****   // uint8_t newDay = sDate.Date + hoursOverflow;
1140:Core/Src/main.c ****   // uint8_t newMonth = sDate.Month;
1141:Core/Src/main.c ****   // uint16_t newYear = sDate.Year + 2000; // RTC returns year as offset from 2000
1142:Core/Src/main.c **** 
1143:Core/Src/main.c ****   // // Days in each month (account for leap year in February)
1144:Core/Src/main.c ****   // uint8_t daysInMonth[] = {31, (newYear % 4 == 0 && (newYear % 100 != 0 || newYear % 400 == 0)) 
1145:Core/Src/main.c **** 
1146:Core/Src/main.c ****   // // Adjust day and month
1147:Core/Src/main.c ****   // while (newDay > daysInMonth[newMonth - 1]) {
1148:Core/Src/main.c ****   //     newDay -= daysInMonth[newMonth - 1];
1149:Core/Src/main.c ****   //     newMonth++;
1150:Core/Src/main.c ****   //     if (newMonth > 12) {
1151:Core/Src/main.c ****   //         newMonth = 1;
1152:Core/Src/main.c ****   //         newYear++;
1153:Core/Src/main.c ****   //     }
ARM GAS  C:\Users\kroko\AppData\Local\Temp\ccpAdhTr.s 			page 30


1154:Core/Src/main.c ****   // }
1155:Core/Src/main.c **** 
1156:Core/Src/main.c ****   // // Set up the RTC alarm
1157:Core/Src/main.c ****   // sAlarm.AlarmTime.Hours = newHours;
1158:Core/Src/main.c ****   // sAlarm.AlarmTime.Minutes = newMinutes;
1159:Core/Src/main.c ****   // sAlarm.AlarmTime.Seconds = sTime.Seconds;
1160:Core/Src/main.c ****   // sAlarm.AlarmTime.TimeFormat = sTime.TimeFormat; // 24-hour format
1161:Core/Src/main.c **** 
1162:Core/Src/main.c ****   // sAlarm.AlarmDateWeekDay = newDay;
1163:Core/Src/main.c ****   // sAlarm.AlarmDateWeekDaySel = RTC_ALARMDATEWEEKDAYSEL_DATE; // Use specific date
1164:Core/Src/main.c ****   // sAlarm.AlarmMask = RTC_ALARMMASK_NONE; // Do not mask the date
1165:Core/Src/main.c ****   // sAlarm.Alarm = RTC_ALARM_A;
1166:Core/Src/main.c **** 
1167:Core/Src/main.c ****   // if (HAL_RTC_SetAlarm_IT(&hrtc, &sAlarm, RTC_FORMAT_BIN) != HAL_OK) {
1168:Core/Src/main.c ****   //     Error_Handler();
1169:Core/Src/main.c ****   // }
1170:Core/Src/main.c **** }
 470              		.loc 1 1170 1 view .LVU121
 471 0000 7047     		bx	lr
 472              		.cfi_endproc
 473              	.LFE151:
 475              		.section	.text.Set_RTC,"ax",%progbits
 476              		.align	1
 477              		.global	Set_RTC
 478              		.syntax unified
 479              		.thumb
 480              		.thumb_func
 482              	Set_RTC:
 483              	.LFB152:
1171:Core/Src/main.c **** 
1172:Core/Src/main.c **** void Set_RTC(){
 484              		.loc 1 1172 15 view -0
 485              		.cfi_startproc
 486              		@ args = 0, pretend = 0, frame = 0
 487              		@ frame_needed = 0, uses_anonymous_args = 0
 488              		@ link register save eliminated.
1173:Core/Src/main.c ****   // RTC_DateTypeDef gDate;
1174:Core/Src/main.c ****   // RTC_TimeTypeDef gTime;
1175:Core/Src/main.c ****   // while (1)
1176:Core/Src/main.c ****   // {
1177:Core/Src/main.c ****   //   Set_Time(&gDate, &gTime);
1178:Core/Src/main.c ****   //   // tick(&button);
1179:Core/Src/main.c ****   //   // if(isHold(&button)){return;}
1180:Core/Src/main.c ****   // }
1181:Core/Src/main.c **** }
 489              		.loc 1 1181 1 view .LVU123
 490 0000 7047     		bx	lr
 491              		.cfi_endproc
 492              	.LFE152:
 494              		.global	__aeabi_ddiv
 495              		.section	.text.HAL_UART_RxCpltCallback,"ax",%progbits
 496              		.align	1
 497              		.global	HAL_UART_RxCpltCallback
 498              		.syntax unified
 499              		.thumb
 500              		.thumb_func
 502              	HAL_UART_RxCpltCallback:
ARM GAS  C:\Users\kroko\AppData\Local\Temp\ccpAdhTr.s 			page 31


 503              	.LVL35:
 504              	.LFB153:
1182:Core/Src/main.c **** 
1183:Core/Src/main.c **** void HAL_UART_RxCpltCallback(UART_HandleTypeDef *huart)
1184:Core/Src/main.c **** {
 505              		.loc 1 1184 1 view -0
 506              		.cfi_startproc
 507              		@ args = 0, pretend = 0, frame = 16
 508              		@ frame_needed = 1, uses_anonymous_args = 0
 509              		.loc 1 1184 1 is_stmt 0 view .LVU125
 510 0000 2DE9F047 		push	{r4, r5, r6, r7, r8, r9, r10, lr}
 511              		.cfi_def_cfa_offset 32
 512              		.cfi_offset 4, -32
 513              		.cfi_offset 5, -28
 514              		.cfi_offset 6, -24
 515              		.cfi_offset 7, -20
 516              		.cfi_offset 8, -16
 517              		.cfi_offset 9, -12
 518              		.cfi_offset 10, -8
 519              		.cfi_offset 14, -4
 520 0004 84B0     		sub	sp, sp, #16
 521              		.cfi_def_cfa_offset 48
 522 0006 00AF     		add	r7, sp, #0
 523              		.cfi_def_cfa_register 7
1185:Core/Src/main.c ****   /*
1186:Core/Src/main.c ****   COMMUNICATION PROTOCOL
1187:Core/Src/main.c ****   Master    Slave
1188:Core/Src/main.c ****   T      -> palette(L/T), type(S/T/B), (value), X(value), (symbol) ... LB0X250Y%
1189:Core/Src/main.c ****   G      -> value ... 754
1190:Core/Src/main.c ****   val    -> OK
1191:Core/Src/main.c ****   ON     -> OK
1192:Core/Src/main.c ****   OFF    -> OK
1193:Core/Src/main.c ****   S      -> S(state(0/1)) ... S1
1194:Core/Src/main.c ****   */
1195:Core/Src/main.c ****   //uint8_t rx_buff[10];
1196:Core/Src/main.c ****  //(rx_buff, ""); 
1197:Core/Src/main.c ****   // HAL_UART_Receive_DMA(deviceList[dev_num].uart, rx_buff, 9);
1198:Core/Src/main.c ****   // if(trySIMInit){
1199:Core/Src/main.c ****   //     char rx_buff[10];
1200:Core/Src/main.c ****   // HAL_UART_Receive_DMA(deviceList[dev_num].uart, (uint8_t*)&rx_buff, 10);
1201:Core/Src/main.c ****   //   return;
1202:Core/Src/main.c ****   // }
1203:Core/Src/main.c **** 
1204:Core/Src/main.c ****   /* SIM COMMUNICATION */
1205:Core/Src/main.c ****   if (huart == SIM800_UART){
 524              		.loc 1 1205 3 is_stmt 1 view .LVU126
 525              		.loc 1 1205 6 is_stmt 0 view .LVU127
 526 0008 7F4B     		ldr	r3, .L43
 527 000a 8342     		cmp	r3, r0
 528 000c 1BD0     		beq	.L36
1206:Core/Src/main.c ****     SIMrxBuffer[RX_BUFFER_SIZE - 1] = '\0'; // Null-terminate the buffer for string operations
1207:Core/Src/main.c ****         // Restart the DMA reception
1208:Core/Src/main.c ****     HAL_UART_Receive_DMA(&huart6, SIMrxBuffer, RX_BUFFER_SIZE);
1209:Core/Src/main.c ****     return;
1210:Core/Src/main.c ****   }
1211:Core/Src/main.c **** 
1212:Core/Src/main.c **** 
ARM GAS  C:\Users\kroko\AppData\Local\Temp\ccpAdhTr.s 			page 32


1213:Core/Src/main.c ****   char rx_buff[10];
 529              		.loc 1 1213 3 is_stmt 1 view .LVU128
1214:Core/Src/main.c ****   HAL_UART_Receive_DMA(deviceList[dev_num].uart, (uint8_t*)&rx_buff, 10);
 530              		.loc 1 1214 3 view .LVU129
 531 000e 7F4B     		ldr	r3, .L43+4
 532 0010 1B78     		ldrb	r3, [r3]	@ zero_extendqisi2
 533 0012 03EBC303 		add	r3, r3, r3, lsl #3
 534 0016 0A22     		movs	r2, #10
 535 0018 391D     		adds	r1, r7, #4
 536 001a 7D48     		ldr	r0, .L43+8
 537              	.LVL36:
 538              		.loc 1 1214 3 is_stmt 0 view .LVU130
 539 001c 50F83300 		ldr	r0, [r0, r3, lsl #3]
 540 0020 FFF7FEFF 		bl	HAL_UART_Receive_DMA
 541              	.LVL37:
1215:Core/Src/main.c **** 
1216:Core/Src/main.c **** 
1217:Core/Src/main.c ****     // NEW CODE START
1218:Core/Src/main.c ****     // IF FIRST LETTER IS L OR T
1219:Core/Src/main.c ****   if(rx_buff[0] == 76 || rx_buff[0] == 84){
 542              		.loc 1 1219 3 is_stmt 1 view .LVU131
 543              		.loc 1 1219 13 is_stmt 0 view .LVU132
 544 0024 3B79     		ldrb	r3, [r7, #4]	@ zero_extendqisi2
 545              		.loc 1 1219 5 view .LVU133
 546 0026 4C2B     		cmp	r3, #76
 547 0028 17D0     		beq	.L14
 548              		.loc 1 1219 23 discriminator 1 view .LVU134
 549 002a 542B     		cmp	r3, #84
 550 002c 15D0     		beq	.L14
1220:Core/Src/main.c ****     // IF L
1221:Core/Src/main.c ****     if (rx_buff[0] == 76){
1222:Core/Src/main.c ****       deviceList[dev_num].paletteType = LIGHT_PALETTE;
1223:Core/Src/main.c ****     }else{
1224:Core/Src/main.c ****       deviceList[dev_num].paletteType = TEMP_PALETTE;
1225:Core/Src/main.c ****     }
1226:Core/Src/main.c ****     // ENDIF
1227:Core/Src/main.c **** 
1228:Core/Src/main.c ****     // DEVICE MODE
1229:Core/Src/main.c ****     switch (rx_buff[1])
1230:Core/Src/main.c ****     {
1231:Core/Src/main.c ****     case 83:
1232:Core/Src/main.c ****       deviceList[dev_num].deviceMode = TYPE_SET_ONLY;
1233:Core/Src/main.c ****       break;
1234:Core/Src/main.c ****     case 84:
1235:Core/Src/main.c ****       deviceList[dev_num].deviceMode = TYPE_TEL_ONLY;
1236:Core/Src/main.c ****       break;
1237:Core/Src/main.c ****     case 66:
1238:Core/Src/main.c ****       deviceList[dev_num].deviceMode = TYPE_SET_TEL;
1239:Core/Src/main.c ****       break;
1240:Core/Src/main.c ****     }
1241:Core/Src/main.c ****     // ENDIF
1242:Core/Src/main.c **** 
1243:Core/Src/main.c ****     //GET MIN, MAX VALUE & SYMBOL START
1244:Core/Src/main.c ****     uint8_t minValueEndIndex = 0;
1245:Core/Src/main.c ****     uint8_t maxValueEndIndex = 0;
1246:Core/Src/main.c **** 
1247:Core/Src/main.c ****     for (int i = 2; i<10; i++){
ARM GAS  C:\Users\kroko\AppData\Local\Temp\ccpAdhTr.s 			page 33


1248:Core/Src/main.c ****       if(rx_buff[i] == 88){
1249:Core/Src/main.c ****         minValueEndIndex = i-1;
1250:Core/Src/main.c ****       }
1251:Core/Src/main.c ****       if(rx_buff[i] == 89){
1252:Core/Src/main.c ****         maxValueEndIndex = i-1;
1253:Core/Src/main.c ****         break;
1254:Core/Src/main.c ****       }
1255:Core/Src/main.c ****     }
1256:Core/Src/main.c **** 
1257:Core/Src/main.c ****     char minValueArr[minValueEndIndex-1];
1258:Core/Src/main.c ****     char maxValueArr[maxValueEndIndex-minValueEndIndex-1];
1259:Core/Src/main.c **** 
1260:Core/Src/main.c ****     memcpy(minValueArr, &rx_buff[2], (minValueEndIndex-1) * sizeof(char));
1261:Core/Src/main.c **** 
1262:Core/Src/main.c ****     memcpy(maxValueArr, &rx_buff[minValueEndIndex+2], (maxValueEndIndex-minValueEndIndex) * sizeof(
1263:Core/Src/main.c **** 
1264:Core/Src/main.c ****     deviceList[dev_num].minValue = atof(minValueArr);
1265:Core/Src/main.c ****     deviceList[dev_num].maxValue = atof(maxValueArr);    
1266:Core/Src/main.c **** 
1267:Core/Src/main.c ****     deviceList[dev_num].symbol = rx_buff[maxValueEndIndex+2];
1268:Core/Src/main.c **** 
1269:Core/Src/main.c ****     deviceList[dev_num].tx_buff[0] = 71;
1270:Core/Src/main.c ****     // GET MIN, MAX VALUE & SYMBOL END
1271:Core/Src/main.c ****     if(state == STATE_INIT){
1272:Core/Src/main.c ****       deviceList[dev_num].initState = DEV_STATE_IN;
1273:Core/Src/main.c ****       allDeviceIsUnIn = false;
1274:Core/Src/main.c ****       act_dev_cnt++;
1275:Core/Src/main.c ****       for (uint8_t i = 0; i< 4; i++){
1276:Core/Src/main.c ****         if(act_dev_list[i] == -1){
1277:Core/Src/main.c ****           act_dev_list[i] = dev_num;
1278:Core/Src/main.c ****           break;
1279:Core/Src/main.c ****         }
1280:Core/Src/main.c ****       }
1281:Core/Src/main.c ****       dev_num++;
1282:Core/Src/main.c ****     }
1283:Core/Src/main.c ****   }
1284:Core/Src/main.c ****   // else if (rx_buff[0] == 83){
1285:Core/Src/main.c ****   //   if(atoi(rx_buff[1]) == 1){
1286:Core/Src/main.c ****   //     deviceList[dev_num].isDevOn = 1;
1287:Core/Src/main.c ****   //   }else{
1288:Core/Src/main.c ****   //     deviceList[dev_num].isDevOn = 0;
1289:Core/Src/main.c ****   //   }
1290:Core/Src/main.c ****   // }
1291:Core/Src/main.c ****   else if(rx_buff[0] == 79){
 551              		.loc 1 1291 8 is_stmt 1 view .LVU135
 552              		.loc 1 1291 10 is_stmt 0 view .LVU136
 553 002e 4F2B     		cmp	r3, #79
 554 0030 00F0CB80 		beq	.L37
1292:Core/Src/main.c ****     transmitMode = TRANSMIT_MODE_GET;
1293:Core/Src/main.c ****   }else{// ISSUE START
1294:Core/Src/main.c ****     if(!isDevPolledFirstTime){
 555              		.loc 1 1294 5 is_stmt 1 view .LVU137
 556              		.loc 1 1294 8 is_stmt 0 view .LVU138
 557 0034 774B     		ldr	r3, .L43+12
 558 0036 1B78     		ldrb	r3, [r3]	@ zero_extendqisi2
 559              		.loc 1 1294 7 view .LVU139
 560 0038 002B     		cmp	r3, #0
ARM GAS  C:\Users\kroko\AppData\Local\Temp\ccpAdhTr.s 			page 34


 561 003a 00F0CA80 		beq	.L38
1295:Core/Src/main.c ****       deviceList[dev_num].currentValue = atof(rx_buff);
1296:Core/Src/main.c ****       deviceList[dev_num].currentValue /= 10;
1297:Core/Src/main.c ****     }else{
1298:Core/Src/main.c ****       isDevPolledFirstTime = false;
 562              		.loc 1 1298 7 is_stmt 1 view .LVU140
 563              		.loc 1 1298 28 is_stmt 0 view .LVU141
 564 003e 754B     		ldr	r3, .L43+12
 565 0040 0022     		movs	r2, #0
 566 0042 1A70     		strb	r2, [r3]
 567 0044 BDE0     		b	.L11
 568              	.LVL38:
 569              	.L36:
1206:Core/Src/main.c ****         // Restart the DMA reception
 570              		.loc 1 1206 5 is_stmt 1 view .LVU142
1206:Core/Src/main.c ****         // Restart the DMA reception
 571              		.loc 1 1206 37 is_stmt 0 view .LVU143
 572 0046 7449     		ldr	r1, .L43+16
 573 0048 0023     		movs	r3, #0
 574 004a 81F8FF31 		strb	r3, [r1, #511]
1208:Core/Src/main.c ****     return;
 575              		.loc 1 1208 5 is_stmt 1 view .LVU144
 576 004e 4FF40072 		mov	r2, #512
 577 0052 6D48     		ldr	r0, .L43
 578              	.LVL39:
1208:Core/Src/main.c ****     return;
 579              		.loc 1 1208 5 is_stmt 0 view .LVU145
 580 0054 FFF7FEFF 		bl	HAL_UART_Receive_DMA
 581              	.LVL40:
1209:Core/Src/main.c ****   }
 582              		.loc 1 1209 5 is_stmt 1 view .LVU146
 583 0058 B3E0     		b	.L11
 584              	.L14:
 585              	.LBB11:
1221:Core/Src/main.c ****       deviceList[dev_num].paletteType = LIGHT_PALETTE;
 586              		.loc 1 1221 5 view .LVU147
1221:Core/Src/main.c ****       deviceList[dev_num].paletteType = LIGHT_PALETTE;
 587              		.loc 1 1221 8 is_stmt 0 view .LVU148
 588 005a 4C2B     		cmp	r3, #76
 589 005c 13D0     		beq	.L39
1224:Core/Src/main.c ****     }
 590              		.loc 1 1224 7 is_stmt 1 view .LVU149
1224:Core/Src/main.c ****     }
 591              		.loc 1 1224 26 is_stmt 0 view .LVU150
 592 005e 6B4B     		ldr	r3, .L43+4
 593 0060 1B78     		ldrb	r3, [r3]	@ zero_extendqisi2
1224:Core/Src/main.c ****     }
 594              		.loc 1 1224 39 view .LVU151
 595 0062 03EBC303 		add	r3, r3, r3, lsl #3
 596 0066 6A4A     		ldr	r2, .L43+8
 597 0068 02EBC303 		add	r3, r2, r3, lsl #3
 598 006c 0022     		movs	r2, #0
 599 006e 83F83220 		strb	r2, [r3, #50]
 600              	.L17:
1229:Core/Src/main.c ****     {
 601              		.loc 1 1229 5 is_stmt 1 view .LVU152
1229:Core/Src/main.c ****     {
ARM GAS  C:\Users\kroko\AppData\Local\Temp\ccpAdhTr.s 			page 35


 602              		.loc 1 1229 20 is_stmt 0 view .LVU153
 603 0072 7B79     		ldrb	r3, [r7, #5]	@ zero_extendqisi2
1229:Core/Src/main.c ****     {
 604              		.loc 1 1229 5 view .LVU154
 605 0074 532B     		cmp	r3, #83
 606 0076 11D0     		beq	.L18
 607 0078 542B     		cmp	r3, #84
 608 007a 19D0     		beq	.L19
 609 007c 422B     		cmp	r3, #66
 610 007e 21D0     		beq	.L20
 611              	.L21:
1244:Core/Src/main.c ****     uint8_t maxValueEndIndex = 0;
 612              		.loc 1 1244 5 is_stmt 1 view .LVU155
 613              	.LVL41:
1245:Core/Src/main.c **** 
 614              		.loc 1 1245 5 view .LVU156
1247:Core/Src/main.c ****       if(rx_buff[i] == 88){
 615              		.loc 1 1247 5 view .LVU157
 616              	.LBB12:
1247:Core/Src/main.c ****       if(rx_buff[i] == 88){
 617              		.loc 1 1247 10 view .LVU158
1247:Core/Src/main.c ****       if(rx_buff[i] == 88){
 618              		.loc 1 1247 14 is_stmt 0 view .LVU159
 619 0080 0223     		movs	r3, #2
 620              	.LBE12:
1244:Core/Src/main.c ****     uint8_t maxValueEndIndex = 0;
 621              		.loc 1 1244 13 view .LVU160
 622 0082 0025     		movs	r5, #0
 623              	.LBB13:
1247:Core/Src/main.c ****       if(rx_buff[i] == 88){
 624              		.loc 1 1247 5 view .LVU161
 625 0084 2BE0     		b	.L22
 626              	.LVL42:
 627              	.L39:
1247:Core/Src/main.c ****       if(rx_buff[i] == 88){
 628              		.loc 1 1247 5 view .LVU162
 629              	.LBE13:
1222:Core/Src/main.c ****     }else{
 630              		.loc 1 1222 7 is_stmt 1 view .LVU163
1222:Core/Src/main.c ****     }else{
 631              		.loc 1 1222 26 is_stmt 0 view .LVU164
 632 0086 614B     		ldr	r3, .L43+4
 633 0088 1B78     		ldrb	r3, [r3]	@ zero_extendqisi2
1222:Core/Src/main.c ****     }else{
 634              		.loc 1 1222 39 view .LVU165
 635 008a 03EBC303 		add	r3, r3, r3, lsl #3
 636 008e 604A     		ldr	r2, .L43+8
 637 0090 02EBC303 		add	r3, r2, r3, lsl #3
 638 0094 0122     		movs	r2, #1
 639 0096 83F83220 		strb	r2, [r3, #50]
 640 009a EAE7     		b	.L17
 641              	.L18:
1232:Core/Src/main.c ****       break;
 642              		.loc 1 1232 7 is_stmt 1 view .LVU166
1232:Core/Src/main.c ****       break;
 643              		.loc 1 1232 26 is_stmt 0 view .LVU167
 644 009c 5B4B     		ldr	r3, .L43+4
ARM GAS  C:\Users\kroko\AppData\Local\Temp\ccpAdhTr.s 			page 36


 645 009e 1B78     		ldrb	r3, [r3]	@ zero_extendqisi2
1232:Core/Src/main.c ****       break;
 646              		.loc 1 1232 38 view .LVU168
 647 00a0 03EBC303 		add	r3, r3, r3, lsl #3
 648 00a4 5A4A     		ldr	r2, .L43+8
 649 00a6 02EBC303 		add	r3, r2, r3, lsl #3
 650 00aa 0122     		movs	r2, #1
 651 00ac 5A71     		strb	r2, [r3, #5]
1233:Core/Src/main.c ****     case 84:
 652              		.loc 1 1233 7 is_stmt 1 view .LVU169
 653 00ae E7E7     		b	.L21
 654              	.L19:
1235:Core/Src/main.c ****       break;
 655              		.loc 1 1235 7 view .LVU170
1235:Core/Src/main.c ****       break;
 656              		.loc 1 1235 26 is_stmt 0 view .LVU171
 657 00b0 564B     		ldr	r3, .L43+4
 658 00b2 1B78     		ldrb	r3, [r3]	@ zero_extendqisi2
1235:Core/Src/main.c ****       break;
 659              		.loc 1 1235 38 view .LVU172
 660 00b4 03EBC303 		add	r3, r3, r3, lsl #3
 661 00b8 554A     		ldr	r2, .L43+8
 662 00ba 02EBC303 		add	r3, r2, r3, lsl #3
 663 00be 0222     		movs	r2, #2
 664 00c0 5A71     		strb	r2, [r3, #5]
1236:Core/Src/main.c ****     case 66:
 665              		.loc 1 1236 7 is_stmt 1 view .LVU173
 666 00c2 DDE7     		b	.L21
 667              	.L20:
1238:Core/Src/main.c ****       break;
 668              		.loc 1 1238 7 view .LVU174
1238:Core/Src/main.c ****       break;
 669              		.loc 1 1238 26 is_stmt 0 view .LVU175
 670 00c4 514B     		ldr	r3, .L43+4
 671 00c6 1B78     		ldrb	r3, [r3]	@ zero_extendqisi2
1238:Core/Src/main.c ****       break;
 672              		.loc 1 1238 38 view .LVU176
 673 00c8 03EBC303 		add	r3, r3, r3, lsl #3
 674 00cc 504A     		ldr	r2, .L43+8
 675 00ce 02EBC303 		add	r3, r2, r3, lsl #3
 676 00d2 0022     		movs	r2, #0
 677 00d4 5A71     		strb	r2, [r3, #5]
1239:Core/Src/main.c ****     }
 678              		.loc 1 1239 7 is_stmt 1 view .LVU177
 679 00d6 D3E7     		b	.L21
 680              	.LVL43:
 681              	.L23:
 682              	.LBB14:
1251:Core/Src/main.c ****         maxValueEndIndex = i-1;
 683              		.loc 1 1251 7 view .LVU178
1251:Core/Src/main.c ****         maxValueEndIndex = i-1;
 684              		.loc 1 1251 9 is_stmt 0 view .LVU179
 685 00d8 592A     		cmp	r2, #89
 686 00da 0DD0     		beq	.L40
1247:Core/Src/main.c ****       if(rx_buff[i] == 88){
 687              		.loc 1 1247 28 is_stmt 1 discriminator 2 view .LVU180
 688 00dc 0133     		adds	r3, r3, #1
ARM GAS  C:\Users\kroko\AppData\Local\Temp\ccpAdhTr.s 			page 37


 689              	.LVL44:
 690              	.L22:
1247:Core/Src/main.c ****       if(rx_buff[i] == 88){
 691              		.loc 1 1247 22 discriminator 1 view .LVU181
 692 00de 092B     		cmp	r3, #9
 693 00e0 0EDC     		bgt	.L41
1248:Core/Src/main.c ****         minValueEndIndex = i-1;
 694              		.loc 1 1248 7 view .LVU182
1248:Core/Src/main.c ****         minValueEndIndex = i-1;
 695              		.loc 1 1248 17 is_stmt 0 view .LVU183
 696 00e2 03F11002 		add	r2, r3, #16
 697 00e6 3A44     		add	r2, r2, r7
 698 00e8 12F80C2C 		ldrb	r2, [r2, #-12]	@ zero_extendqisi2
1248:Core/Src/main.c ****         minValueEndIndex = i-1;
 699              		.loc 1 1248 9 view .LVU184
 700 00ec 582A     		cmp	r2, #88
 701 00ee F3D1     		bne	.L23
1249:Core/Src/main.c ****       }
 702              		.loc 1 1249 9 is_stmt 1 view .LVU185
1249:Core/Src/main.c ****       }
 703              		.loc 1 1249 29 is_stmt 0 view .LVU186
 704 00f0 DDB2     		uxtb	r5, r3
 705              	.LVL45:
1249:Core/Src/main.c ****       }
 706              		.loc 1 1249 26 view .LVU187
 707 00f2 013D     		subs	r5, r5, #1
 708 00f4 EDB2     		uxtb	r5, r5
 709              	.LVL46:
1249:Core/Src/main.c ****       }
 710              		.loc 1 1249 26 view .LVU188
 711 00f6 EFE7     		b	.L23
 712              	.L40:
1252:Core/Src/main.c ****         break;
 713              		.loc 1 1252 9 is_stmt 1 view .LVU189
1252:Core/Src/main.c ****         break;
 714              		.loc 1 1252 29 is_stmt 0 view .LVU190
 715 00f8 DCB2     		uxtb	r4, r3
1252:Core/Src/main.c ****         break;
 716              		.loc 1 1252 26 view .LVU191
 717 00fa 013C     		subs	r4, r4, #1
 718 00fc E4B2     		uxtb	r4, r4
 719              	.LVL47:
1253:Core/Src/main.c ****       }
 720              		.loc 1 1253 9 is_stmt 1 view .LVU192
 721 00fe 00E0     		b	.L25
 722              	.LVL48:
 723              	.L41:
1253:Core/Src/main.c ****       }
 724              		.loc 1 1253 9 is_stmt 0 view .LVU193
 725              	.LBE14:
1245:Core/Src/main.c **** 
 726              		.loc 1 1245 13 view .LVU194
 727 0100 0024     		movs	r4, #0
 728              	.LVL49:
 729              	.L25:
1257:Core/Src/main.c ****     char maxValueArr[maxValueEndIndex-minValueEndIndex-1];
 730              		.loc 1 1257 5 is_stmt 1 view .LVU195
ARM GAS  C:\Users\kroko\AppData\Local\Temp\ccpAdhTr.s 			page 38


 731 0102 6E46     		mov	r6, sp
 732              	.LVL50:
1257:Core/Src/main.c ****     char maxValueArr[maxValueEndIndex-minValueEndIndex-1];
 733              		.loc 1 1257 10 is_stmt 0 discriminator 1 view .LVU196
 734 0104 AB1D     		adds	r3, r5, #6
 735              	.LVL51:
1257:Core/Src/main.c ****     char maxValueArr[maxValueEndIndex-minValueEndIndex-1];
 736              		.loc 1 1257 10 discriminator 1 view .LVU197
 737 0106 23F00703 		bic	r3, r3, #7
 738 010a ADEB030D 		sub	sp, sp, r3
 739 010e EA46     		mov	r10, sp
 740              	.LVL52:
1258:Core/Src/main.c **** 
 741              		.loc 1 1258 5 is_stmt 1 view .LVU198
1258:Core/Src/main.c **** 
 742              		.loc 1 1258 38 is_stmt 0 view .LVU199
 743 0110 A4EB0508 		sub	r8, r4, r5
 744              	.LVL53:
1258:Core/Src/main.c **** 
 745              		.loc 1 1258 10 view .LVU200
 746 0114 08F10603 		add	r3, r8, #6
 747 0118 23F00703 		bic	r3, r3, #7
 748 011c ADEB030D 		sub	sp, sp, r3
 749              	.LVL54:
1260:Core/Src/main.c **** 
 750              		.loc 1 1260 5 is_stmt 1 view .LVU201
 751 0120 6A1E     		subs	r2, r5, #1
 752 0122 B91D     		adds	r1, r7, #6
 753 0124 5046     		mov	r0, r10
 754 0126 FFF7FEFF 		bl	memcpy
 755              	.LVL55:
1262:Core/Src/main.c **** 
 756              		.loc 1 1262 5 view .LVU202
1262:Core/Src/main.c **** 
 757              		.loc 1 1262 50 is_stmt 0 view .LVU203
 758 012a A91C     		adds	r1, r5, #2
1262:Core/Src/main.c **** 
 759              		.loc 1 1262 5 view .LVU204
 760 012c 4246     		mov	r2, r8
 761 012e 3B1D     		adds	r3, r7, #4
 762 0130 1944     		add	r1, r1, r3
 763 0132 6846     		mov	r0, sp
 764 0134 FFF7FEFF 		bl	memcpy
 765              	.LVL56:
1264:Core/Src/main.c ****     deviceList[dev_num].maxValue = atof(maxValueArr);    
 766              		.loc 1 1264 5 is_stmt 1 view .LVU205
1264:Core/Src/main.c ****     deviceList[dev_num].maxValue = atof(maxValueArr);    
 767              		.loc 1 1264 24 is_stmt 0 view .LVU206
 768 0138 DFF8D090 		ldr	r9, .L43+4
 769 013c 99F80080 		ldrb	r8, [r9]	@ zero_extendqisi2
 770              	.LVL57:
1264:Core/Src/main.c ****     deviceList[dev_num].maxValue = atof(maxValueArr);    
 771              		.loc 1 1264 36 view .LVU207
 772 0140 5046     		mov	r0, r10
 773 0142 FFF7FEFF 		bl	atof
 774              	.LVL58:
1264:Core/Src/main.c ****     deviceList[dev_num].maxValue = atof(maxValueArr);    
ARM GAS  C:\Users\kroko\AppData\Local\Temp\ccpAdhTr.s 			page 39


 775              		.loc 1 1264 34 discriminator 1 view .LVU208
 776 0146 324D     		ldr	r5, .L43+8
 777              	.LVL59:
1264:Core/Src/main.c ****     deviceList[dev_num].maxValue = atof(maxValueArr);    
 778              		.loc 1 1264 34 discriminator 1 view .LVU209
 779 0148 08EBC808 		add	r8, r8, r8, lsl #3
 780 014c 05EBC808 		add	r8, r5, r8, lsl #3
 781 0150 88ED080B 		vstr.64	d0, [r8, #32]
1265:Core/Src/main.c **** 
 782              		.loc 1 1265 5 is_stmt 1 view .LVU210
1265:Core/Src/main.c **** 
 783              		.loc 1 1265 24 is_stmt 0 view .LVU211
 784 0154 99F80080 		ldrb	r8, [r9]	@ zero_extendqisi2
1265:Core/Src/main.c **** 
 785              		.loc 1 1265 36 view .LVU212
 786 0158 6846     		mov	r0, sp
 787 015a FFF7FEFF 		bl	atof
 788              	.LVL60:
1265:Core/Src/main.c **** 
 789              		.loc 1 1265 34 discriminator 1 view .LVU213
 790 015e 08EBC808 		add	r8, r8, r8, lsl #3
 791 0162 05EBC808 		add	r8, r5, r8, lsl #3
 792 0166 88ED0A0B 		vstr.64	d0, [r8, #40]
1267:Core/Src/main.c **** 
 793              		.loc 1 1267 5 is_stmt 1 view .LVU214
1267:Core/Src/main.c **** 
 794              		.loc 1 1267 24 is_stmt 0 view .LVU215
 795 016a 99F80010 		ldrb	r1, [r9]	@ zero_extendqisi2
1267:Core/Src/main.c **** 
 796              		.loc 1 1267 41 view .LVU216
 797 016e 04F11203 		add	r3, r4, #18
 798 0172 DC19     		adds	r4, r3, r7
 799              	.LVL61:
1267:Core/Src/main.c **** 
 800              		.loc 1 1267 41 view .LVU217
 801 0174 14F80C3C 		ldrb	r3, [r4, #-12]	@ zero_extendqisi2
 802              	.LVL62:
1267:Core/Src/main.c **** 
 803              		.loc 1 1267 32 view .LVU218
 804 0178 01EBC102 		add	r2, r1, r1, lsl #3
 805 017c 05EBC205 		add	r5, r5, r2, lsl #3
 806 0180 85F84730 		strb	r3, [r5, #71]
1269:Core/Src/main.c ****     // GET MIN, MAX VALUE & SYMBOL END
 807              		.loc 1 1269 5 is_stmt 1 view .LVU219
1269:Core/Src/main.c ****     // GET MIN, MAX VALUE & SYMBOL END
 808              		.loc 1 1269 36 is_stmt 0 view .LVU220
 809 0184 4723     		movs	r3, #71
 810 0186 85F83D30 		strb	r3, [r5, #61]
1271:Core/Src/main.c ****       deviceList[dev_num].initState = DEV_STATE_IN;
 811              		.loc 1 1271 5 is_stmt 1 view .LVU221
1271:Core/Src/main.c ****       deviceList[dev_num].initState = DEV_STATE_IN;
 812              		.loc 1 1271 14 is_stmt 0 view .LVU222
 813 018a 244B     		ldr	r3, .L43+20
 814 018c 1B78     		ldrb	r3, [r3]	@ zero_extendqisi2
1271:Core/Src/main.c ****       deviceList[dev_num].initState = DEV_STATE_IN;
 815              		.loc 1 1271 7 view .LVU223
 816 018e BBB9     		cbnz	r3, .L27
ARM GAS  C:\Users\kroko\AppData\Local\Temp\ccpAdhTr.s 			page 40


1272:Core/Src/main.c ****       allDeviceIsUnIn = false;
 817              		.loc 1 1272 7 is_stmt 1 view .LVU224
1272:Core/Src/main.c ****       allDeviceIsUnIn = false;
 818              		.loc 1 1272 37 is_stmt 0 view .LVU225
 819 0190 0120     		movs	r0, #1
 820 0192 2871     		strb	r0, [r5, #4]
1273:Core/Src/main.c ****       act_dev_cnt++;
 821              		.loc 1 1273 7 is_stmt 1 view .LVU226
1273:Core/Src/main.c ****       act_dev_cnt++;
 822              		.loc 1 1273 23 is_stmt 0 view .LVU227
 823 0194 224A     		ldr	r2, .L43+24
 824 0196 0020     		movs	r0, #0
 825 0198 1070     		strb	r0, [r2]
1274:Core/Src/main.c ****       for (uint8_t i = 0; i< 4; i++){
 826              		.loc 1 1274 7 is_stmt 1 view .LVU228
1274:Core/Src/main.c ****       for (uint8_t i = 0; i< 4; i++){
 827              		.loc 1 1274 18 is_stmt 0 view .LVU229
 828 019a 2248     		ldr	r0, .L43+28
 829 019c 0278     		ldrb	r2, [r0]	@ zero_extendqisi2
 830 019e 0132     		adds	r2, r2, #1
 831 01a0 0270     		strb	r2, [r0]
1275:Core/Src/main.c ****         if(act_dev_list[i] == -1){
 832              		.loc 1 1275 7 is_stmt 1 view .LVU230
 833              	.LBB15:
1275:Core/Src/main.c ****         if(act_dev_list[i] == -1){
 834              		.loc 1 1275 12 view .LVU231
 835              	.LVL63:
 836              	.L28:
1275:Core/Src/main.c ****         if(act_dev_list[i] == -1){
 837              		.loc 1 1275 28 discriminator 1 view .LVU232
 838 01a2 032B     		cmp	r3, #3
 839 01a4 09D8     		bhi	.L30
1276:Core/Src/main.c ****           act_dev_list[i] = dev_num;
 840              		.loc 1 1276 9 view .LVU233
1276:Core/Src/main.c ****           act_dev_list[i] = dev_num;
 841              		.loc 1 1276 24 is_stmt 0 view .LVU234
 842 01a6 204A     		ldr	r2, .L43+32
 843 01a8 D256     		ldrsb	r2, [r2, r3]
1276:Core/Src/main.c ****           act_dev_list[i] = dev_num;
 844              		.loc 1 1276 11 view .LVU235
 845 01aa B2F1FF3F 		cmp	r2, #-1
 846 01ae 02D0     		beq	.L42
1275:Core/Src/main.c ****         if(act_dev_list[i] == -1){
 847              		.loc 1 1275 34 is_stmt 1 discriminator 2 view .LVU236
 848 01b0 0133     		adds	r3, r3, #1
 849              	.LVL64:
1275:Core/Src/main.c ****         if(act_dev_list[i] == -1){
 850              		.loc 1 1275 34 is_stmt 0 discriminator 2 view .LVU237
 851 01b2 DBB2     		uxtb	r3, r3
 852              	.LVL65:
1275:Core/Src/main.c ****         if(act_dev_list[i] == -1){
 853              		.loc 1 1275 34 discriminator 2 view .LVU238
 854 01b4 F5E7     		b	.L28
 855              	.L42:
1277:Core/Src/main.c ****           break;
 856              		.loc 1 1277 11 is_stmt 1 view .LVU239
1277:Core/Src/main.c ****           break;
ARM GAS  C:\Users\kroko\AppData\Local\Temp\ccpAdhTr.s 			page 41


 857              		.loc 1 1277 27 is_stmt 0 view .LVU240
 858 01b6 1C4A     		ldr	r2, .L43+32
 859 01b8 D154     		strb	r1, [r2, r3]
1278:Core/Src/main.c ****         }
 860              		.loc 1 1278 11 is_stmt 1 view .LVU241
 861              	.L30:
 862              	.LBE15:
1281:Core/Src/main.c ****     }
 863              		.loc 1 1281 7 view .LVU242
1281:Core/Src/main.c ****     }
 864              		.loc 1 1281 14 is_stmt 0 view .LVU243
 865 01ba 4B1C     		adds	r3, r1, #1
 866              	.LVL66:
1281:Core/Src/main.c ****     }
 867              		.loc 1 1281 14 view .LVU244
 868 01bc 134A     		ldr	r2, .L43+4
 869 01be 1370     		strb	r3, [r2]
 870              	.LVL67:
 871              	.L27:
1281:Core/Src/main.c ****     }
 872              		.loc 1 1281 14 view .LVU245
 873 01c0 B546     		mov	sp, r6
 874              	.LVL68:
 875              	.L11:
1281:Core/Src/main.c ****     }
 876              		.loc 1 1281 14 view .LVU246
 877              	.LBE11:
1299:Core/Src/main.c ****     }
1300:Core/Src/main.c ****   }// ISSUE END
1301:Core/Src/main.c ****   // NEW CODE END
1302:Core/Src/main.c **** }
 878              		.loc 1 1302 1 view .LVU247
 879 01c2 1037     		adds	r7, r7, #16
 880              		.cfi_remember_state
 881              		.cfi_def_cfa_offset 32
 882 01c4 BD46     		mov	sp, r7
 883              		.cfi_def_cfa_register 13
 884              		@ sp needed
 885 01c6 BDE8F087 		pop	{r4, r5, r6, r7, r8, r9, r10, pc}
 886              	.L37:
 887              		.cfi_restore_state
1292:Core/Src/main.c ****   }else{// ISSUE START
 888              		.loc 1 1292 5 is_stmt 1 view .LVU248
1292:Core/Src/main.c ****   }else{// ISSUE START
 889              		.loc 1 1292 18 is_stmt 0 view .LVU249
 890 01ca 184B     		ldr	r3, .L43+36
 891 01cc 0022     		movs	r2, #0
 892 01ce 1A70     		strb	r2, [r3]
 893 01d0 F7E7     		b	.L11
 894              	.L38:
1295:Core/Src/main.c ****       deviceList[dev_num].currentValue /= 10;
 895              		.loc 1 1295 7 is_stmt 1 view .LVU250
1295:Core/Src/main.c ****       deviceList[dev_num].currentValue /= 10;
 896              		.loc 1 1295 26 is_stmt 0 view .LVU251
 897 01d2 0E4D     		ldr	r5, .L43+4
 898 01d4 2C78     		ldrb	r4, [r5]	@ zero_extendqisi2
1295:Core/Src/main.c ****       deviceList[dev_num].currentValue /= 10;
ARM GAS  C:\Users\kroko\AppData\Local\Temp\ccpAdhTr.s 			page 42


 899              		.loc 1 1295 42 view .LVU252
 900 01d6 381D     		adds	r0, r7, #4
 901 01d8 FFF7FEFF 		bl	atof
 902              	.LVL69:
1295:Core/Src/main.c ****       deviceList[dev_num].currentValue /= 10;
 903              		.loc 1 1295 40 discriminator 1 view .LVU253
 904 01dc 0C4A     		ldr	r2, .L43+8
 905 01de 04EBC404 		add	r4, r4, r4, lsl #3
 906 01e2 02EBC404 		add	r4, r2, r4, lsl #3
 907 01e6 84ED040B 		vstr.64	d0, [r4, #16]
1296:Core/Src/main.c ****     }else{
 908              		.loc 1 1296 7 is_stmt 1 view .LVU254
1296:Core/Src/main.c ****     }else{
 909              		.loc 1 1296 26 is_stmt 0 view .LVU255
 910 01ea 2B78     		ldrb	r3, [r5]	@ zero_extendqisi2
 911 01ec 03EBC301 		add	r1, r3, r3, lsl #3
 912 01f0 02EBC101 		add	r1, r2, r1, lsl #3
1296:Core/Src/main.c ****     }else{
 913              		.loc 1 1296 40 view .LVU256
 914 01f4 0C46     		mov	r4, r1
 915 01f6 0022     		movs	r2, #0
 916 01f8 0D4B     		ldr	r3, .L43+40
 917 01fa D1E90401 		ldrd	r0, [r1, #16]
 918 01fe FFF7FEFF 		bl	__aeabi_ddiv
 919              	.LVL70:
 920 0202 C4E90401 		strd	r0, [r4, #16]
 921 0206 DCE7     		b	.L11
 922              	.L44:
 923              		.align	2
 924              	.L43:
 925 0208 00000000 		.word	huart6
 926 020c 00000000 		.word	dev_num
 927 0210 00000000 		.word	deviceList
 928 0214 00000000 		.word	isDevPolledFirstTime
 929 0218 00000000 		.word	SIMrxBuffer
 930 021c 00000000 		.word	state
 931 0220 00000000 		.word	allDeviceIsUnIn
 932 0224 00000000 		.word	act_dev_cnt
 933 0228 00000000 		.word	act_dev_list
 934 022c 00000000 		.word	transmitMode
 935 0230 00002440 		.word	1076101120
 936              		.cfi_endproc
 937              	.LFE153:
 939              		.section	.text.HAL_GPIO_EXTI_Callback,"ax",%progbits
 940              		.align	1
 941              		.global	HAL_GPIO_EXTI_Callback
 942              		.syntax unified
 943              		.thumb
 944              		.thumb_func
 946              	HAL_GPIO_EXTI_Callback:
 947              	.LVL71:
 948              	.LFB154:
1303:Core/Src/main.c **** 
1304:Core/Src/main.c **** // void HAL_RTC_AlarmAEventCallback(RTC_HandleTypeDef *hrtc) 
1305:Core/Src/main.c **** // { 
1306:Core/Src/main.c **** //   // FATFS FatFs;
1307:Core/Src/main.c **** //   FRESULT FR_Status;
ARM GAS  C:\Users\kroko\AppData\Local\Temp\ccpAdhTr.s 			page 43


1308:Core/Src/main.c **** //   FIL Fil;
1309:Core/Src/main.c **** //   UINT bytesWrote;
1310:Core/Src/main.c **** 
1311:Core/Src/main.c **** //   /* RTC */
1312:Core/Src/main.c **** //   // GET RTC DATETIME
1313:Core/Src/main.c **** //   RTC_DateTypeDef gDate;
1314:Core/Src/main.c **** //   RTC_TimeTypeDef gTime;
1315:Core/Src/main.c **** 
1316:Core/Src/main.c **** //   /* Get the RTC current Time */
1317:Core/Src/main.c **** //   HAL_RTC_GetTime(hrtc, &gTime, RTC_FORMAT_BIN);
1318:Core/Src/main.c **** //   /* Get the RTC current Date */
1319:Core/Src/main.c **** //   HAL_RTC_GetDate(hrtc, &gDate, RTC_FORMAT_BIN);
1320:Core/Src/main.c **** 
1321:Core/Src/main.c **** //   char filename_buff[35];
1322:Core/Src/main.c **** //   uint8_t buf_len;
1323:Core/Src/main.c **** //   sprintf(filename_buff, "log_%02d-%02d-%02d_%02d-%02d-%2d.txt", gTime.Hours, gTime.Minutes, gTi
1324:Core/Src/main.c **** //   FR_Status = f_open(&Fil, filename_buff, FA_WRITE | FA_OPEN_ALWAYS | FA_CREATE_ALWAYS);
1325:Core/Src/main.c **** //   for (uint8_t i = 0; i < DEV_COUNT; i++){
1326:Core/Src/main.c **** //     char init_file_buf[75];
1327:Core/Src/main.c **** //     if(deviceList[i].initState == DEV_STATE_IN){
1328:Core/Src/main.c **** //       buf_len = sprintf(init_file_buf, "DEV: %d\nValue: %f\nSet value: %f\n", i, deviceList[i].c
1329:Core/Src/main.c **** //       FR_Status = f_write(&Fil, init_file_buf, buf_len, &bytesWrote);
1330:Core/Src/main.c **** //       if(FR_Status != 0){break;}
1331:Core/Src/main.c **** //     }
1332:Core/Src/main.c **** //   }
1333:Core/Src/main.c **** //   f_close(&Fil);
1334:Core/Src/main.c **** //   // SAVE CONFIG
1335:Core/Src/main.c **** //   Set_Alarm(alarm_timeout);
1336:Core/Src/main.c **** // }
1337:Core/Src/main.c **** 
1338:Core/Src/main.c **** void HAL_GPIO_EXTI_Callback(uint16_t GPIO_Pin)
1339:Core/Src/main.c **** {
 949              		.loc 1 1339 1 is_stmt 1 view -0
 950              		.cfi_startproc
 951              		@ args = 0, pretend = 0, frame = 0
 952              		@ frame_needed = 0, uses_anonymous_args = 0
 953              		@ link register save eliminated.
1340:Core/Src/main.c **** 	if(GPIO_Pin == GPIO_PIN_9){
 954              		.loc 1 1340 2 view .LVU258
 955              		.loc 1 1340 4 is_stmt 0 view .LVU259
 956 0000 B0F5007F 		cmp	r0, #512
 957 0004 01D0     		beq	.L48
1341:Core/Src/main.c ****     touchAvailable = true;
1342:Core/Src/main.c **** 	}else {
1343:Core/Src/main.c ****       __NOP();
 958              		.loc 1 1343 7 is_stmt 1 view .LVU260
 959              		.syntax unified
 960              	@ 1343 "Core/Src/main.c" 1
 961 0006 00BF     		nop
 962              	@ 0 "" 2
1344:Core/Src/main.c ****   }
1345:Core/Src/main.c **** }
 963              		.loc 1 1345 1 is_stmt 0 view .LVU261
 964              		.thumb
 965              		.syntax unified
 966 0008 7047     		bx	lr
 967              	.L48:
ARM GAS  C:\Users\kroko\AppData\Local\Temp\ccpAdhTr.s 			page 44


1341:Core/Src/main.c ****     touchAvailable = true;
 968              		.loc 1 1341 5 is_stmt 1 view .LVU262
1341:Core/Src/main.c ****     touchAvailable = true;
 969              		.loc 1 1341 20 is_stmt 0 view .LVU263
 970 000a 024B     		ldr	r3, .L49
 971 000c 0122     		movs	r2, #1
 972 000e 1A70     		strb	r2, [r3]
 973 0010 7047     		bx	lr
 974              	.L50:
 975 0012 00BF     		.align	2
 976              	.L49:
 977 0014 00000000 		.word	touchAvailable
 978              		.cfi_endproc
 979              	.LFE154:
 981              		.section	.text.findNextInDev,"ax",%progbits
 982              		.align	1
 983              		.global	findNextInDev
 984              		.syntax unified
 985              		.thumb
 986              		.thumb_func
 988              	findNextInDev:
 989              	.LVL72:
 990              	.LFB155:
1346:Core/Src/main.c **** 
1347:Core/Src/main.c **** void findNextInDev(bool dir){
 991              		.loc 1 1347 29 is_stmt 1 view -0
 992              		.cfi_startproc
 993              		@ args = 0, pretend = 0, frame = 0
 994              		@ frame_needed = 0, uses_anonymous_args = 0
 995              		@ link register save eliminated.
1348:Core/Src/main.c ****   if(!allDeviceIsUnIn){
 996              		.loc 1 1348 3 view .LVU265
 997              		.loc 1 1348 6 is_stmt 0 view .LVU266
 998 0000 184B     		ldr	r3, .L62
 999 0002 1B78     		ldrb	r3, [r3]	@ zero_extendqisi2
 1000              		.loc 1 1348 5 view .LVU267
 1001 0004 63BB     		cbnz	r3, .L51
1349:Core/Src/main.c ****     if(dir){
 1002              		.loc 1 1349 5 is_stmt 1 view .LVU268
 1003              		.loc 1 1349 7 is_stmt 0 view .LVU269
 1004 0006 00B3     		cbz	r0, .L53
 1005 0008 0BE0     		b	.L57
 1006              	.L60:
1350:Core/Src/main.c ****       do{
1351:Core/Src/main.c ****         if(dev_num < DEV_COUNT-1){
1352:Core/Src/main.c ****           dev_num++;
 1007              		.loc 1 1352 11 is_stmt 1 view .LVU270
 1008              		.loc 1 1352 18 is_stmt 0 view .LVU271
 1009 000a 0133     		adds	r3, r3, #1
 1010 000c 164A     		ldr	r2, .L62+4
 1011 000e 1370     		strb	r3, [r2]
 1012              	.L55:
1353:Core/Src/main.c ****         }else{
1354:Core/Src/main.c ****           dev_num=0;
1355:Core/Src/main.c ****         }
1356:Core/Src/main.c ****       }while (!deviceList[dev_num].initState);  
 1013              		.loc 1 1356 15 is_stmt 1 view .LVU272
ARM GAS  C:\Users\kroko\AppData\Local\Temp\ccpAdhTr.s 			page 45


 1014              		.loc 1 1356 35 is_stmt 0 view .LVU273
 1015 0010 154B     		ldr	r3, .L62+4
 1016 0012 1B78     		ldrb	r3, [r3]	@ zero_extendqisi2
 1017 0014 03EBC303 		add	r3, r3, r3, lsl #3
 1018 0018 144A     		ldr	r2, .L62+8
 1019 001a 02EBC303 		add	r3, r2, r3, lsl #3
 1020 001e 1B79     		ldrb	r3, [r3, #4]	@ zero_extendqisi2
 1021              		.loc 1 1356 15 view .LVU274
 1022 0020 DBB9     		cbnz	r3, .L56
 1023              	.L57:
1350:Core/Src/main.c ****       do{
 1024              		.loc 1 1350 7 is_stmt 1 view .LVU275
1351:Core/Src/main.c ****           dev_num++;
 1025              		.loc 1 1351 9 view .LVU276
1351:Core/Src/main.c ****           dev_num++;
 1026              		.loc 1 1351 20 is_stmt 0 view .LVU277
 1027 0022 114B     		ldr	r3, .L62+4
 1028 0024 1B78     		ldrb	r3, [r3]	@ zero_extendqisi2
1351:Core/Src/main.c ****           dev_num++;
 1029              		.loc 1 1351 11 view .LVU278
 1030 0026 022B     		cmp	r3, #2
 1031 0028 EFD9     		bls	.L60
1354:Core/Src/main.c ****         }
 1032              		.loc 1 1354 11 is_stmt 1 view .LVU279
1354:Core/Src/main.c ****         }
 1033              		.loc 1 1354 18 is_stmt 0 view .LVU280
 1034 002a 0F4B     		ldr	r3, .L62+4
 1035 002c 0022     		movs	r2, #0
 1036 002e 1A70     		strb	r2, [r3]
 1037 0030 EEE7     		b	.L55
 1038              	.L61:
1357:Core/Src/main.c ****     }else{
1358:Core/Src/main.c ****       do{
1359:Core/Src/main.c ****         if(dev_num > 0){
1360:Core/Src/main.c ****           dev_num--;
 1039              		.loc 1 1360 11 is_stmt 1 view .LVU281
 1040              		.loc 1 1360 18 is_stmt 0 view .LVU282
 1041 0032 013B     		subs	r3, r3, #1
 1042 0034 0C4A     		ldr	r2, .L62+4
 1043 0036 1370     		strb	r3, [r2]
 1044              	.L59:
1361:Core/Src/main.c ****         }else{
1362:Core/Src/main.c ****           dev_num=DEV_COUNT-1;
1363:Core/Src/main.c ****         }
1364:Core/Src/main.c ****       }while (!deviceList[dev_num].initState);  
 1045              		.loc 1 1364 15 is_stmt 1 view .LVU283
 1046              		.loc 1 1364 35 is_stmt 0 view .LVU284
 1047 0038 0B4B     		ldr	r3, .L62+4
 1048 003a 1B78     		ldrb	r3, [r3]	@ zero_extendqisi2
 1049 003c 03EBC303 		add	r3, r3, r3, lsl #3
 1050 0040 0A4A     		ldr	r2, .L62+8
 1051 0042 02EBC303 		add	r3, r2, r3, lsl #3
 1052 0046 1B79     		ldrb	r3, [r3, #4]	@ zero_extendqisi2
 1053              		.loc 1 1364 15 view .LVU285
 1054 0048 3BB9     		cbnz	r3, .L56
 1055              	.L53:
1358:Core/Src/main.c ****         if(dev_num > 0){
ARM GAS  C:\Users\kroko\AppData\Local\Temp\ccpAdhTr.s 			page 46


 1056              		.loc 1 1358 7 is_stmt 1 view .LVU286
1359:Core/Src/main.c ****           dev_num--;
 1057              		.loc 1 1359 9 view .LVU287
1359:Core/Src/main.c ****           dev_num--;
 1058              		.loc 1 1359 20 is_stmt 0 view .LVU288
 1059 004a 074B     		ldr	r3, .L62+4
 1060 004c 1B78     		ldrb	r3, [r3]	@ zero_extendqisi2
1359:Core/Src/main.c ****           dev_num--;
 1061              		.loc 1 1359 11 view .LVU289
 1062 004e 002B     		cmp	r3, #0
 1063 0050 EFD1     		bne	.L61
1362:Core/Src/main.c ****         }
 1064              		.loc 1 1362 11 is_stmt 1 view .LVU290
1362:Core/Src/main.c ****         }
 1065              		.loc 1 1362 18 is_stmt 0 view .LVU291
 1066 0052 054B     		ldr	r3, .L62+4
 1067 0054 0322     		movs	r2, #3
 1068 0056 1A70     		strb	r2, [r3]
 1069 0058 EEE7     		b	.L59
 1070              	.L56:
1365:Core/Src/main.c ****     }
1366:Core/Src/main.c ****     isDevPolledFirstTime = true;
 1071              		.loc 1 1366 5 is_stmt 1 view .LVU292
 1072              		.loc 1 1366 26 is_stmt 0 view .LVU293
 1073 005a 054B     		ldr	r3, .L62+12
 1074 005c 0122     		movs	r2, #1
 1075 005e 1A70     		strb	r2, [r3]
 1076              	.L51:
1367:Core/Src/main.c ****   }
1368:Core/Src/main.c **** }
 1077              		.loc 1 1368 1 view .LVU294
 1078 0060 7047     		bx	lr
 1079              	.L63:
 1080 0062 00BF     		.align	2
 1081              	.L62:
 1082 0064 00000000 		.word	allDeviceIsUnIn
 1083 0068 00000000 		.word	dev_num
 1084 006c 00000000 		.word	deviceList
 1085 0070 00000000 		.word	isDevPolledFirstTime
 1086              		.cfi_endproc
 1087              	.LFE155:
 1089              		.section	.text.map,"ax",%progbits
 1090              		.align	1
 1091              		.global	map
 1092              		.syntax unified
 1093              		.thumb
 1094              		.thumb_func
 1096              	map:
 1097              	.LVL73:
 1098              	.LFB156:
1369:Core/Src/main.c **** 
1370:Core/Src/main.c **** uint32_t map(uint32_t x, uint32_t in_min, uint32_t in_max, uint32_t out_min, uint32_t out_max){
 1099              		.loc 1 1370 95 is_stmt 1 view -0
 1100              		.cfi_startproc
 1101              		@ args = 4, pretend = 0, frame = 0
 1102              		@ frame_needed = 0, uses_anonymous_args = 0
 1103              		@ link register save eliminated.
ARM GAS  C:\Users\kroko\AppData\Local\Temp\ccpAdhTr.s 			page 47


1371:Core/Src/main.c ****   return (x - in_min) * (out_max - out_min) / (in_max - in_min) + out_min;
 1104              		.loc 1 1371 3 view .LVU296
 1105              		.loc 1 1371 13 is_stmt 0 view .LVU297
 1106 0000 A0EB010C 		sub	ip, r0, r1
 1107              		.loc 1 1371 34 view .LVU298
 1108 0004 0098     		ldr	r0, [sp]
 1109              	.LVL74:
 1110              		.loc 1 1371 34 view .LVU299
 1111 0006 C01A     		subs	r0, r0, r3
 1112              		.loc 1 1371 23 view .LVU300
 1113 0008 00FB0CFC 		mul	ip, r0, ip
 1114              		.loc 1 1371 55 view .LVU301
 1115 000c 521A     		subs	r2, r2, r1
 1116              	.LVL75:
 1117              		.loc 1 1371 45 view .LVU302
 1118 000e BCFBF2FC 		udiv	ip, ip, r2
1372:Core/Src/main.c **** }
 1119              		.loc 1 1372 1 view .LVU303
 1120 0012 0CEB0300 		add	r0, ip, r3
 1121 0016 7047     		bx	lr
 1122              		.cfi_endproc
 1123              	.LFE156:
 1125              		.section	.rodata.SIM_sendCommand.str1.4,"aMS",%progbits,1
 1126              		.align	2
 1127              	.LC0:
 1128 0000 25730D0A 		.ascii	"%s\015\012\000"
 1128      00
 1129              		.section	.text.SIM_sendCommand,"ax",%progbits
 1130              		.align	1
 1131              		.global	SIM_sendCommand
 1132              		.syntax unified
 1133              		.thumb
 1134              		.thumb_func
 1136              	SIM_sendCommand:
 1137              	.LVL76:
 1138              	.LFB157:
1373:Core/Src/main.c **** 
1374:Core/Src/main.c **** void SIM_sendCommand(const char *command){
 1139              		.loc 1 1374 42 is_stmt 1 view -0
 1140              		.cfi_startproc
 1141              		@ args = 0, pretend = 0, frame = 0
 1142              		@ frame_needed = 0, uses_anonymous_args = 0
 1143              		.loc 1 1374 42 is_stmt 0 view .LVU305
 1144 0000 70B5     		push	{r4, r5, r6, lr}
 1145              		.cfi_def_cfa_offset 16
 1146              		.cfi_offset 4, -16
 1147              		.cfi_offset 5, -12
 1148              		.cfi_offset 6, -8
 1149              		.cfi_offset 14, -4
 1150 0002 0546     		mov	r5, r0
1375:Core/Src/main.c ****     memset(SIMtxBuffer, 0, TX_BUFFER_SIZE);
 1151              		.loc 1 1375 5 is_stmt 1 view .LVU306
 1152 0004 0A4C     		ldr	r4, .L67
 1153 0006 8026     		movs	r6, #128
 1154 0008 3246     		mov	r2, r6
 1155 000a 0021     		movs	r1, #0
 1156 000c 2046     		mov	r0, r4
ARM GAS  C:\Users\kroko\AppData\Local\Temp\ccpAdhTr.s 			page 48


 1157              	.LVL77:
 1158              		.loc 1 1375 5 is_stmt 0 view .LVU307
 1159 000e FFF7FEFF 		bl	memset
 1160              	.LVL78:
1376:Core/Src/main.c ****     snprintf((char *)SIMtxBuffer, TX_BUFFER_SIZE, "%s\r\n", command);
 1161              		.loc 1 1376 5 is_stmt 1 view .LVU308
 1162 0012 2B46     		mov	r3, r5
 1163 0014 074A     		ldr	r2, .L67+4
 1164 0016 3146     		mov	r1, r6
 1165 0018 2046     		mov	r0, r4
 1166 001a FFF7FEFF 		bl	snprintf
 1167              	.LVL79:
1377:Core/Src/main.c ****     HAL_UART_Transmit_DMA(&huart6, SIMtxBuffer, strlen((char *)SIMtxBuffer));
 1168              		.loc 1 1377 5 view .LVU309
 1169              		.loc 1 1377 49 is_stmt 0 view .LVU310
 1170 001e 2046     		mov	r0, r4
 1171 0020 FFF7FEFF 		bl	strlen
 1172              	.LVL80:
 1173              		.loc 1 1377 5 discriminator 1 view .LVU311
 1174 0024 82B2     		uxth	r2, r0
 1175 0026 2146     		mov	r1, r4
 1176 0028 0348     		ldr	r0, .L67+8
 1177 002a FFF7FEFF 		bl	HAL_UART_Transmit_DMA
 1178              	.LVL81:
1378:Core/Src/main.c **** }
 1179              		.loc 1 1378 1 view .LVU312
 1180 002e 70BD     		pop	{r4, r5, r6, pc}
 1181              	.LVL82:
 1182              	.L68:
 1183              		.loc 1 1378 1 view .LVU313
 1184              		.align	2
 1185              	.L67:
 1186 0030 00000000 		.word	SIMtxBuffer
 1187 0034 00000000 		.word	.LC0
 1188 0038 00000000 		.word	huart6
 1189              		.cfi_endproc
 1190              	.LFE157:
 1192              		.section	.rodata.checkSIMStatus.str1.4,"aMS",%progbits,1
 1193              		.align	2
 1194              	.LC1:
 1195 0000 41542B43 		.ascii	"AT+CSMINS?\000"
 1195      534D494E 
 1195      533F00
 1196 000b 00       		.align	2
 1197              	.LC2:
 1198 000c 2B43534D 		.ascii	"+CSMINS: 0,1\000"
 1198      494E533A 
 1198      20302C31 
 1198      00
 1199              		.section	.text.checkSIMStatus,"ax",%progbits
 1200              		.align	1
 1201              		.global	checkSIMStatus
 1202              		.syntax unified
 1203              		.thumb
 1204              		.thumb_func
 1206              	checkSIMStatus:
 1207              	.LFB158:
ARM GAS  C:\Users\kroko\AppData\Local\Temp\ccpAdhTr.s 			page 49


1379:Core/Src/main.c **** 
1380:Core/Src/main.c **** bool checkSIMStatus(){
 1208              		.loc 1 1380 22 is_stmt 1 view -0
 1209              		.cfi_startproc
 1210              		@ args = 0, pretend = 0, frame = 0
 1211              		@ frame_needed = 0, uses_anonymous_args = 0
 1212 0000 08B5     		push	{r3, lr}
 1213              		.cfi_def_cfa_offset 8
 1214              		.cfi_offset 3, -8
 1215              		.cfi_offset 14, -4
1381:Core/Src/main.c ****     SIM_sendCommand("AT+CSMINS?");
 1216              		.loc 1 1381 5 view .LVU315
 1217 0002 0648     		ldr	r0, .L73
 1218 0004 FFF7FEFF 		bl	SIM_sendCommand
 1219              	.LVL83:
1382:Core/Src/main.c ****     HAL_Delay(100);
 1220              		.loc 1 1382 5 view .LVU316
 1221 0008 6420     		movs	r0, #100
 1222 000a FFF7FEFF 		bl	HAL_Delay
 1223              	.LVL84:
1383:Core/Src/main.c ****     if (strstr((char *)SIMrxBuffer, "+CSMINS: 0,1") != NULL) {
 1224              		.loc 1 1383 5 view .LVU317
 1225              		.loc 1 1383 9 is_stmt 0 view .LVU318
 1226 000e 0449     		ldr	r1, .L73+4
 1227 0010 0448     		ldr	r0, .L73+8
 1228 0012 FFF7FEFF 		bl	strstr
 1229              	.LVL85:
 1230              		.loc 1 1383 8 discriminator 1 view .LVU319
 1231 0016 00B1     		cbz	r0, .L70
1384:Core/Src/main.c ****         return true; // SIM installed
 1232              		.loc 1 1384 16 view .LVU320
 1233 0018 0120     		movs	r0, #1
 1234              	.L70:
1385:Core/Src/main.c ****     }
1386:Core/Src/main.c ****     return false; // SIM not installed
1387:Core/Src/main.c **** }
 1235              		.loc 1 1387 1 view .LVU321
 1236 001a 08BD     		pop	{r3, pc}
 1237              	.L74:
 1238              		.align	2
 1239              	.L73:
 1240 001c 00000000 		.word	.LC1
 1241 0020 0C000000 		.word	.LC2
 1242 0024 00000000 		.word	SIMrxBuffer
 1243              		.cfi_endproc
 1244              	.LFE158:
 1246              		.section	.rodata.checkInitStatus.str1.4,"aMS",%progbits,1
 1247              		.align	2
 1248              	.LC3:
 1249 0000 41542B43 		.ascii	"AT+CREG?\000"
 1249      5245473F 
 1249      00
 1250 0009 000000   		.align	2
 1251              	.LC4:
 1252 000c 2B435245 		.ascii	"+CREG: 0,1\000"
 1252      473A2030 
 1252      2C3100
ARM GAS  C:\Users\kroko\AppData\Local\Temp\ccpAdhTr.s 			page 50


 1253              		.section	.text.checkInitStatus,"ax",%progbits
 1254              		.align	1
 1255              		.global	checkInitStatus
 1256              		.syntax unified
 1257              		.thumb
 1258              		.thumb_func
 1260              	checkInitStatus:
 1261              	.LFB159:
1388:Core/Src/main.c **** 
1389:Core/Src/main.c **** bool checkInitStatus(){
 1262              		.loc 1 1389 23 is_stmt 1 view -0
 1263              		.cfi_startproc
 1264              		@ args = 0, pretend = 0, frame = 0
 1265              		@ frame_needed = 0, uses_anonymous_args = 0
 1266 0000 08B5     		push	{r3, lr}
 1267              		.cfi_def_cfa_offset 8
 1268              		.cfi_offset 3, -8
 1269              		.cfi_offset 14, -4
1390:Core/Src/main.c ****   SIM_sendCommand("AT+CREG?");
 1270              		.loc 1 1390 3 view .LVU323
 1271 0002 0548     		ldr	r0, .L79
 1272 0004 FFF7FEFF 		bl	SIM_sendCommand
 1273              	.LVL86:
1391:Core/Src/main.c ****   if (strstr((char *)SIMrxBuffer, "+CREG: 0,1") != NULL) {
 1274              		.loc 1 1391 3 view .LVU324
 1275              		.loc 1 1391 7 is_stmt 0 view .LVU325
 1276 0008 0449     		ldr	r1, .L79+4
 1277 000a 0548     		ldr	r0, .L79+8
 1278 000c FFF7FEFF 		bl	strstr
 1279              	.LVL87:
 1280              		.loc 1 1391 6 discriminator 1 view .LVU326
 1281 0010 00B1     		cbz	r0, .L76
1392:Core/Src/main.c ****     return true;
 1282              		.loc 1 1392 12 view .LVU327
 1283 0012 0120     		movs	r0, #1
 1284              	.L76:
1393:Core/Src/main.c ****   }
1394:Core/Src/main.c ****   return false;
1395:Core/Src/main.c **** }
 1285              		.loc 1 1395 1 view .LVU328
 1286 0014 08BD     		pop	{r3, pc}
 1287              	.L80:
 1288 0016 00BF     		.align	2
 1289              	.L79:
 1290 0018 00000000 		.word	.LC3
 1291 001c 0C000000 		.word	.LC4
 1292 0020 00000000 		.word	SIMrxBuffer
 1293              		.cfi_endproc
 1294              	.LFE159:
 1296              		.section	.rodata.sendSMS.str1.4,"aMS",%progbits,1
 1297              		.align	2
 1298              	.LC5:
 1299 0000 41542B43 		.ascii	"AT+CMGF=1\000"
 1299      4D47463D 
 1299      3100
 1300 000a 0000     		.align	2
 1301              	.LC6:
ARM GAS  C:\Users\kroko\AppData\Local\Temp\ccpAdhTr.s 			page 51


 1302 000c 41542B43 		.ascii	"AT+CMGS=\"+37122310302\"\000"
 1302      4D47533D 
 1302      222B3337 
 1302      31323233 
 1302      31303330 
 1303 0023 00       		.align	2
 1304              	.LC7:
 1305 0024 4552524F 		.ascii	"ERROR\000"
 1305      5200
 1306              		.section	.text.sendSMS,"ax",%progbits
 1307              		.align	1
 1308              		.global	sendSMS
 1309              		.syntax unified
 1310              		.thumb
 1311              		.thumb_func
 1313              	sendSMS:
 1314              	.LVL88:
 1315              	.LFB160:
1396:Core/Src/main.c **** 
1397:Core/Src/main.c **** bool sendSMS(char *message){
 1316              		.loc 1 1397 28 is_stmt 1 view -0
 1317              		.cfi_startproc
 1318              		@ args = 0, pretend = 0, frame = 8
 1319              		@ frame_needed = 0, uses_anonymous_args = 0
 1320              		.loc 1 1397 28 is_stmt 0 view .LVU330
 1321 0000 10B5     		push	{r4, lr}
 1322              		.cfi_def_cfa_offset 8
 1323              		.cfi_offset 4, -8
 1324              		.cfi_offset 14, -4
 1325 0002 82B0     		sub	sp, sp, #8
 1326              		.cfi_def_cfa_offset 16
 1327 0004 0446     		mov	r4, r0
1398:Core/Src/main.c ****   SIM_sendCommand("AT+CMGF=1");
 1328              		.loc 1 1398 3 is_stmt 1 view .LVU331
 1329 0006 1248     		ldr	r0, .L86
 1330              	.LVL89:
 1331              		.loc 1 1398 3 is_stmt 0 view .LVU332
 1332 0008 FFF7FEFF 		bl	SIM_sendCommand
 1333              	.LVL90:
1399:Core/Src/main.c ****   HAL_Delay(50);
 1334              		.loc 1 1399 3 is_stmt 1 view .LVU333
 1335 000c 3220     		movs	r0, #50
 1336 000e FFF7FEFF 		bl	HAL_Delay
 1337              	.LVL91:
1400:Core/Src/main.c ****   SIM_sendCommand("AT+CMGS=\"+37122310302\"");
 1338              		.loc 1 1400 3 view .LVU334
 1339 0012 1048     		ldr	r0, .L86+4
 1340 0014 FFF7FEFF 		bl	SIM_sendCommand
 1341              	.LVL92:
1401:Core/Src/main.c ****   HAL_Delay(50);
 1342              		.loc 1 1401 3 view .LVU335
 1343 0018 3220     		movs	r0, #50
 1344 001a FFF7FEFF 		bl	HAL_Delay
 1345              	.LVL93:
1402:Core/Src/main.c ****   SIM_sendCommand(message);
 1346              		.loc 1 1402 3 view .LVU336
 1347 001e 2046     		mov	r0, r4
ARM GAS  C:\Users\kroko\AppData\Local\Temp\ccpAdhTr.s 			page 52


 1348 0020 FFF7FEFF 		bl	SIM_sendCommand
 1349              	.LVL94:
1403:Core/Src/main.c ****   HAL_Delay(50);
 1350              		.loc 1 1403 3 view .LVU337
 1351 0024 3220     		movs	r0, #50
 1352 0026 FFF7FEFF 		bl	HAL_Delay
 1353              	.LVL95:
1404:Core/Src/main.c ****   uint8_t ctrlZ[] = {26};
 1354              		.loc 1 1404 3 view .LVU338
 1355              		.loc 1 1404 11 is_stmt 0 view .LVU339
 1356 002a 1A23     		movs	r3, #26
 1357 002c 8DF80430 		strb	r3, [sp, #4]
1405:Core/Src/main.c ****   HAL_UART_Transmit_DMA(&huart6, ctrlZ, 1);
 1358              		.loc 1 1405 3 is_stmt 1 view .LVU340
 1359 0030 0122     		movs	r2, #1
 1360 0032 01A9     		add	r1, sp, #4
 1361 0034 0848     		ldr	r0, .L86+8
 1362 0036 FFF7FEFF 		bl	HAL_UART_Transmit_DMA
 1363              	.LVL96:
1406:Core/Src/main.c ****   if (strstr((char *)SIMrxBuffer, "ERROR") != NULL) {
 1364              		.loc 1 1406 3 view .LVU341
 1365              		.loc 1 1406 7 is_stmt 0 view .LVU342
 1366 003a 0849     		ldr	r1, .L86+12
 1367 003c 0848     		ldr	r0, .L86+16
 1368 003e FFF7FEFF 		bl	strstr
 1369              	.LVL97:
 1370              		.loc 1 1406 6 discriminator 1 view .LVU343
 1371 0042 10B1     		cbz	r0, .L85
1407:Core/Src/main.c ****     return false;
 1372              		.loc 1 1407 12 view .LVU344
 1373 0044 0020     		movs	r0, #0
 1374              	.L82:
1408:Core/Src/main.c ****   }
1409:Core/Src/main.c ****   return true;
1410:Core/Src/main.c **** }
 1375              		.loc 1 1410 1 view .LVU345
 1376 0046 02B0     		add	sp, sp, #8
 1377              		.cfi_remember_state
 1378              		.cfi_def_cfa_offset 8
 1379              		@ sp needed
 1380 0048 10BD     		pop	{r4, pc}
 1381              	.LVL98:
 1382              	.L85:
 1383              		.cfi_restore_state
1409:Core/Src/main.c **** }
 1384              		.loc 1 1409 10 view .LVU346
 1385 004a 0120     		movs	r0, #1
 1386 004c FBE7     		b	.L82
 1387              	.L87:
 1388 004e 00BF     		.align	2
 1389              	.L86:
 1390 0050 00000000 		.word	.LC5
 1391 0054 0C000000 		.word	.LC6
 1392 0058 00000000 		.word	huart6
 1393 005c 24000000 		.word	.LC7
 1394 0060 00000000 		.word	SIMrxBuffer
 1395              		.cfi_endproc
ARM GAS  C:\Users\kroko\AppData\Local\Temp\ccpAdhTr.s 			page 53


 1396              	.LFE160:
 1398              		.section	.rodata.resetModule.str1.4,"aMS",%progbits,1
 1399              		.align	2
 1400              	.LC8:
 1401 0000 41542B43 		.ascii	"AT+CFUN=1,1\000"
 1401      46554E3D 
 1401      312C3100 
 1402              		.section	.text.resetModule,"ax",%progbits
 1403              		.align	1
 1404              		.global	resetModule
 1405              		.syntax unified
 1406              		.thumb
 1407              		.thumb_func
 1409              	resetModule:
 1410              	.LFB161:
1411:Core/Src/main.c **** 
1412:Core/Src/main.c **** void resetModule(){
 1411              		.loc 1 1412 19 is_stmt 1 view -0
 1412              		.cfi_startproc
 1413              		@ args = 0, pretend = 0, frame = 0
 1414              		@ frame_needed = 0, uses_anonymous_args = 0
 1415 0000 08B5     		push	{r3, lr}
 1416              		.cfi_def_cfa_offset 8
 1417              		.cfi_offset 3, -8
 1418              		.cfi_offset 14, -4
1413:Core/Src/main.c ****   SIM_sendCommand("AT+CFUN=1,1");
 1419              		.loc 1 1413 3 view .LVU348
 1420 0002 0348     		ldr	r0, .L90
 1421 0004 FFF7FEFF 		bl	SIM_sendCommand
 1422              	.LVL99:
1414:Core/Src/main.c ****   HAL_Delay(50);
 1423              		.loc 1 1414 3 view .LVU349
 1424 0008 3220     		movs	r0, #50
 1425 000a FFF7FEFF 		bl	HAL_Delay
 1426              	.LVL100:
1415:Core/Src/main.c **** }
 1427              		.loc 1 1415 1 is_stmt 0 view .LVU350
 1428 000e 08BD     		pop	{r3, pc}
 1429              	.L91:
 1430              		.align	2
 1431              	.L90:
 1432 0010 00000000 		.word	.LC8
 1433              		.cfi_endproc
 1434              	.LFE161:
 1436              		.section	.rodata.syncTime.str1.4,"aMS",%progbits,1
 1437              		.align	2
 1438              	.LC9:
 1439 0000 41542B43 		.ascii	"AT+CLTS=1\000"
 1439      4C54533D 
 1439      3100
 1440 000a 0000     		.align	2
 1441              	.LC10:
 1442 000c 41542657 		.ascii	"AT&W\000"
 1442      00
 1443              		.section	.text.syncTime,"ax",%progbits
 1444              		.align	1
 1445              		.global	syncTime
ARM GAS  C:\Users\kroko\AppData\Local\Temp\ccpAdhTr.s 			page 54


 1446              		.syntax unified
 1447              		.thumb
 1448              		.thumb_func
 1450              	syncTime:
 1451              	.LFB162:
1416:Core/Src/main.c **** 
1417:Core/Src/main.c **** void syncTime(){
 1452              		.loc 1 1417 16 is_stmt 1 view -0
 1453              		.cfi_startproc
 1454              		@ args = 0, pretend = 0, frame = 0
 1455              		@ frame_needed = 0, uses_anonymous_args = 0
 1456 0000 08B5     		push	{r3, lr}
 1457              		.cfi_def_cfa_offset 8
 1458              		.cfi_offset 3, -8
 1459              		.cfi_offset 14, -4
1418:Core/Src/main.c ****   SIM_sendCommand("AT+CLTS=1");
 1460              		.loc 1 1418 3 view .LVU352
 1461 0002 0648     		ldr	r0, .L94
 1462 0004 FFF7FEFF 		bl	SIM_sendCommand
 1463              	.LVL101:
1419:Core/Src/main.c ****   HAL_Delay(50);
 1464              		.loc 1 1419 3 view .LVU353
 1465 0008 3220     		movs	r0, #50
 1466 000a FFF7FEFF 		bl	HAL_Delay
 1467              	.LVL102:
1420:Core/Src/main.c ****   SIM_sendCommand("AT&W");
 1468              		.loc 1 1420 3 view .LVU354
 1469 000e 0448     		ldr	r0, .L94+4
 1470 0010 FFF7FEFF 		bl	SIM_sendCommand
 1471              	.LVL103:
1421:Core/Src/main.c ****   HAL_Delay(50);
 1472              		.loc 1 1421 3 view .LVU355
 1473 0014 3220     		movs	r0, #50
 1474 0016 FFF7FEFF 		bl	HAL_Delay
 1475              	.LVL104:
1422:Core/Src/main.c **** 
1423:Core/Src/main.c **** }
 1476              		.loc 1 1423 1 is_stmt 0 view .LVU356
 1477 001a 08BD     		pop	{r3, pc}
 1478              	.L95:
 1479              		.align	2
 1480              	.L94:
 1481 001c 00000000 		.word	.LC9
 1482 0020 0C000000 		.word	.LC10
 1483              		.cfi_endproc
 1484              	.LFE162:
 1486              		.section	.rodata.enableGPRS.str1.4,"aMS",%progbits,1
 1487              		.align	2
 1488              	.LC11:
 1489 0000 41542B53 		.ascii	"AT+SAPBR=3,1,\"CONTYPE\",\"GPRS\"\000"
 1489      41504252 
 1489      3D332C31 
 1489      2C22434F 
 1489      4E545950 
 1490 001e 0000     		.align	2
 1491              	.LC12:
 1492 0020 41542B53 		.ascii	"AT+SAPBR=3,1,\"APN\",\"internet\"\000"
ARM GAS  C:\Users\kroko\AppData\Local\Temp\ccpAdhTr.s 			page 55


 1492      41504252 
 1492      3D332C31 
 1492      2C224150 
 1492      4E222C22 
 1493 003e 0000     		.align	2
 1494              	.LC13:
 1495 0040 41542B53 		.ascii	"AT+SAPBR=1,1\000"
 1495      41504252 
 1495      3D312C31 
 1495      00
 1496              		.section	.text.enableGPRS,"ax",%progbits
 1497              		.align	1
 1498              		.global	enableGPRS
 1499              		.syntax unified
 1500              		.thumb
 1501              		.thumb_func
 1503              	enableGPRS:
 1504              	.LFB164:
1424:Core/Src/main.c **** 
1425:Core/Src/main.c **** void getTime(){
1426:Core/Src/main.c ****   char time[30];
1427:Core/Src/main.c **** 
1428:Core/Src/main.c ****   SIM_sendCommand("AT+CCLK?");
1429:Core/Src/main.c ****   HAL_Delay(50);
1430:Core/Src/main.c **** 
1431:Core/Src/main.c ****   int i, j, k;
1432:Core/Src/main.c ****   char *cclk = "+CCLK";
1433:Core/Src/main.c ****   for(i=0; SIMrxBuffer[i]!='\0'; i++) {
1434:Core/Src/main.c ****     for(j=i, k=0; cclk[k]!='\0' && SIMrxBuffer[j]==cclk[k]; j++, k++)
1435:Core/Src/main.c ****         ;
1436:Core/Src/main.c ****     if(k>0 && cclk[k]=='\0')
1437:Core/Src/main.c ****     {
1438:Core/Src/main.c ****         for (uint8_t l = 0; l < 30; l++){
1439:Core/Src/main.c ****           time[l] = SIMrxBuffer[i+l];
1440:Core/Src/main.c ****         }
1441:Core/Src/main.c ****         break;
1442:Core/Src/main.c ****     }
1443:Core/Src/main.c ****   }
1444:Core/Src/main.c ****   time[29] ='\0';
1445:Core/Src/main.c ****   //Show_Message(time, 1000);
1446:Core/Src/main.c **** 
1447:Core/Src/main.c ****   RTC_DateTypeDef nDate;
1448:Core/Src/main.c ****   RTC_TimeTypeDef nTime;
1449:Core/Src/main.c ****   // BUG!!!!!!
1450:Core/Src/main.c **** // Separate the date and time from the input string
1451:Core/Src/main.c ****   char date_part[9];  // For "23/12/31"
1452:Core/Src/main.c ****   char time_part[9];   // For "14:45:30"
1453:Core/Src/main.c ****   char offset_part[4]; // For "+05"
1454:Core/Src/main.c ****   
1455:Core/Src/main.c ****   // Use sscanf to extract date, time, and offset parts
1456:Core/Src/main.c ****   int result = sscanf(time, "+CCLK: \"%8s,%8s%3s\"", date_part, time_part, offset_part);
1457:Core/Src/main.c **** 
1458:Core/Src/main.c ****   if (result == 3) {
1459:Core/Src/main.c ****     // Now parse the date part (e.g., "23/12/31")
1460:Core/Src/main.c ****     uint8_t day, month, year;
1461:Core/Src/main.c ****     sscanf(date_part, "%2d/%2d/%2d", &year, &month, &day);
1462:Core/Src/main.c **** 
ARM GAS  C:\Users\kroko\AppData\Local\Temp\ccpAdhTr.s 			page 56


1463:Core/Src/main.c ****     // Fill the RTC_DateTypeDef structure
1464:Core/Src/main.c ****     nDate.Year = year;
1465:Core/Src/main.c ****     nDate.Month = month;
1466:Core/Src/main.c ****     nDate.Date = day;
1467:Core/Src/main.c ****     nDate.WeekDay = 5;
1468:Core/Src/main.c **** 
1469:Core/Src/main.c ****     if (HAL_RTC_SetDate(&hrtc, &nDate, RTC_FORMAT_BIN) != HAL_OK)
1470:Core/Src/main.c ****     {
1471:Core/Src/main.c ****       Error_Handler();
1472:Core/Src/main.c ****     }
1473:Core/Src/main.c **** 
1474:Core/Src/main.c ****       // Parse the time part (e.g., "14:45:30")
1475:Core/Src/main.c ****     uint8_t hours, minutes, seconds;
1476:Core/Src/main.c ****     sscanf(time_part, "%2d:%2d:%2d", &hours, &minutes, &seconds);
1477:Core/Src/main.c **** 
1478:Core/Src/main.c ****     // Fill the RTC_TimeTypeDef structure
1479:Core/Src/main.c ****     nTime.Hours = hours;
1480:Core/Src/main.c ****     nTime.Minutes = minutes;
1481:Core/Src/main.c ****     nTime.Seconds = seconds;
1482:Core/Src/main.c ****     nTime.DayLightSaving = RTC_DAYLIGHTSAVING_NONE;
1483:Core/Src/main.c ****     nTime.StoreOperation = RTC_STOREOPERATION_RESET;
1484:Core/Src/main.c **** 
1485:Core/Src/main.c ****     if (HAL_RTC_SetTime(&hrtc, &nTime, RTC_FORMAT_BIN) != HAL_OK)
1486:Core/Src/main.c ****     {
1487:Core/Src/main.c ****       Error_Handler();
1488:Core/Src/main.c ****     }
1489:Core/Src/main.c ****     HAL_RTCEx_BKUPWrite(&hrtc, RTC_BKP_DR1, RTC_BKP_CONSTANT);
1490:Core/Src/main.c ****   }
1491:Core/Src/main.c **** }
1492:Core/Src/main.c **** 
1493:Core/Src/main.c **** bool enableGPRS(){
 1505              		.loc 1 1493 18 is_stmt 1 view -0
 1506              		.cfi_startproc
 1507              		@ args = 0, pretend = 0, frame = 0
 1508              		@ frame_needed = 0, uses_anonymous_args = 0
 1509 0000 08B5     		push	{r3, lr}
 1510              		.cfi_def_cfa_offset 8
 1511              		.cfi_offset 3, -8
 1512              		.cfi_offset 14, -4
1494:Core/Src/main.c ****   //char apn[50];
1495:Core/Src/main.c ****   SIM_sendCommand("AT+SAPBR=3,1,\"CONTYPE\",\"GPRS\"");
 1513              		.loc 1 1495 3 view .LVU358
 1514 0002 0D48     		ldr	r0, .L101
 1515 0004 FFF7FEFF 		bl	SIM_sendCommand
 1516              	.LVL105:
1496:Core/Src/main.c ****   HAL_Delay(50);
 1517              		.loc 1 1496 3 view .LVU359
 1518 0008 3220     		movs	r0, #50
 1519 000a FFF7FEFF 		bl	HAL_Delay
 1520              	.LVL106:
1497:Core/Src/main.c ****   //sprintf(apn, "AT+SAPBR=3,1,\"APN\",\"%c\"", bite_apn);
1498:Core/Src/main.c ****   SIM_sendCommand("AT+SAPBR=3,1,\"APN\",\"internet\"");
 1521              		.loc 1 1498 3 view .LVU360
 1522 000e 0B48     		ldr	r0, .L101+4
 1523 0010 FFF7FEFF 		bl	SIM_sendCommand
 1524              	.LVL107:
1499:Core/Src/main.c ****   HAL_Delay(50);
ARM GAS  C:\Users\kroko\AppData\Local\Temp\ccpAdhTr.s 			page 57


 1525              		.loc 1 1499 3 view .LVU361
 1526 0014 3220     		movs	r0, #50
 1527 0016 FFF7FEFF 		bl	HAL_Delay
 1528              	.LVL108:
1500:Core/Src/main.c ****   SIM_sendCommand("AT+SAPBR=1,1");
 1529              		.loc 1 1500 3 view .LVU362
 1530 001a 0948     		ldr	r0, .L101+8
 1531 001c FFF7FEFF 		bl	SIM_sendCommand
 1532              	.LVL109:
1501:Core/Src/main.c ****   HAL_Delay(50);
 1533              		.loc 1 1501 3 view .LVU363
 1534 0020 3220     		movs	r0, #50
 1535 0022 FFF7FEFF 		bl	HAL_Delay
 1536              	.LVL110:
1502:Core/Src/main.c ****   if (strstr((char *)SIMrxBuffer, "ERROR") != NULL) {
 1537              		.loc 1 1502 3 view .LVU364
 1538              		.loc 1 1502 7 is_stmt 0 view .LVU365
 1539 0026 0749     		ldr	r1, .L101+12
 1540 0028 0748     		ldr	r0, .L101+16
 1541 002a FFF7FEFF 		bl	strstr
 1542              	.LVL111:
 1543              		.loc 1 1502 6 discriminator 1 view .LVU366
 1544 002e 08B1     		cbz	r0, .L100
1503:Core/Src/main.c ****     return false;
 1545              		.loc 1 1503 12 view .LVU367
 1546 0030 0020     		movs	r0, #0
 1547              	.L97:
1504:Core/Src/main.c ****   }
1505:Core/Src/main.c ****   return true;
1506:Core/Src/main.c **** }
 1548              		.loc 1 1506 1 view .LVU368
 1549 0032 08BD     		pop	{r3, pc}
 1550              	.L100:
1505:Core/Src/main.c **** }
 1551              		.loc 1 1505 10 view .LVU369
 1552 0034 0120     		movs	r0, #1
 1553 0036 FCE7     		b	.L97
 1554              	.L102:
 1555              		.align	2
 1556              	.L101:
 1557 0038 00000000 		.word	.LC11
 1558 003c 20000000 		.word	.LC12
 1559 0040 40000000 		.word	.LC13
 1560 0044 24000000 		.word	.LC7
 1561 0048 00000000 		.word	SIMrxBuffer
 1562              		.cfi_endproc
 1563              	.LFE164:
 1565              		.section	.text.Error_Handler,"ax",%progbits
 1566              		.align	1
 1567              		.global	Error_Handler
 1568              		.syntax unified
 1569              		.thumb
 1570              		.thumb_func
 1572              	Error_Handler:
 1573              	.LFB165:
1507:Core/Src/main.c **** /* USER CODE END 4 */
1508:Core/Src/main.c **** 
ARM GAS  C:\Users\kroko\AppData\Local\Temp\ccpAdhTr.s 			page 58


1509:Core/Src/main.c **** /**
1510:Core/Src/main.c ****   * @brief  This function is executed in case of error occurrence.
1511:Core/Src/main.c ****   * @retval None
1512:Core/Src/main.c ****   */
1513:Core/Src/main.c **** void Error_Handler(void)
1514:Core/Src/main.c **** {
 1574              		.loc 1 1514 1 is_stmt 1 view -0
 1575              		.cfi_startproc
 1576              		@ args = 0, pretend = 0, frame = 0
 1577              		@ frame_needed = 0, uses_anonymous_args = 0
 1578 0000 08B5     		push	{r3, lr}
 1579              		.cfi_def_cfa_offset 8
 1580              		.cfi_offset 3, -8
 1581              		.cfi_offset 14, -4
1515:Core/Src/main.c ****   /* USER CODE BEGIN Error_Handler_Debug */
1516:Core/Src/main.c ****   /* User can add his own implementation to report the HAL error return state */
1517:Core/Src/main.c ****   __disable_irq();
 1582              		.loc 1 1517 3 view .LVU371
 1583              	.LBB16:
 1584              	.LBI16:
 1585              		.file 2 "Drivers/CMSIS/Include/cmsis_gcc.h"
   1:Drivers/CMSIS/Include/cmsis_gcc.h **** /**************************************************************************//**
   2:Drivers/CMSIS/Include/cmsis_gcc.h ****  * @file     cmsis_gcc.h
   3:Drivers/CMSIS/Include/cmsis_gcc.h ****  * @brief    CMSIS compiler GCC header file
   4:Drivers/CMSIS/Include/cmsis_gcc.h ****  * @version  V5.4.1
   5:Drivers/CMSIS/Include/cmsis_gcc.h ****  * @date     27. May 2021
   6:Drivers/CMSIS/Include/cmsis_gcc.h ****  ******************************************************************************/
   7:Drivers/CMSIS/Include/cmsis_gcc.h **** /*
   8:Drivers/CMSIS/Include/cmsis_gcc.h ****  * Copyright (c) 2009-2021 Arm Limited. All rights reserved.
   9:Drivers/CMSIS/Include/cmsis_gcc.h ****  *
  10:Drivers/CMSIS/Include/cmsis_gcc.h ****  * SPDX-License-Identifier: Apache-2.0
  11:Drivers/CMSIS/Include/cmsis_gcc.h ****  *
  12:Drivers/CMSIS/Include/cmsis_gcc.h ****  * Licensed under the Apache License, Version 2.0 (the License); you may
  13:Drivers/CMSIS/Include/cmsis_gcc.h ****  * not use this file except in compliance with the License.
  14:Drivers/CMSIS/Include/cmsis_gcc.h ****  * You may obtain a copy of the License at
  15:Drivers/CMSIS/Include/cmsis_gcc.h ****  *
  16:Drivers/CMSIS/Include/cmsis_gcc.h ****  * www.apache.org/licenses/LICENSE-2.0
  17:Drivers/CMSIS/Include/cmsis_gcc.h ****  *
  18:Drivers/CMSIS/Include/cmsis_gcc.h ****  * Unless required by applicable law or agreed to in writing, software
  19:Drivers/CMSIS/Include/cmsis_gcc.h ****  * distributed under the License is distributed on an AS IS BASIS, WITHOUT
  20:Drivers/CMSIS/Include/cmsis_gcc.h ****  * WARRANTIES OR CONDITIONS OF ANY KIND, either express or implied.
  21:Drivers/CMSIS/Include/cmsis_gcc.h ****  * See the License for the specific language governing permissions and
  22:Drivers/CMSIS/Include/cmsis_gcc.h ****  * limitations under the License.
  23:Drivers/CMSIS/Include/cmsis_gcc.h ****  */
  24:Drivers/CMSIS/Include/cmsis_gcc.h **** 
  25:Drivers/CMSIS/Include/cmsis_gcc.h **** #ifndef __CMSIS_GCC_H
  26:Drivers/CMSIS/Include/cmsis_gcc.h **** #define __CMSIS_GCC_H
  27:Drivers/CMSIS/Include/cmsis_gcc.h **** 
  28:Drivers/CMSIS/Include/cmsis_gcc.h **** /* ignore some GCC warnings */
  29:Drivers/CMSIS/Include/cmsis_gcc.h **** #pragma GCC diagnostic push
  30:Drivers/CMSIS/Include/cmsis_gcc.h **** #pragma GCC diagnostic ignored "-Wsign-conversion"
  31:Drivers/CMSIS/Include/cmsis_gcc.h **** #pragma GCC diagnostic ignored "-Wconversion"
  32:Drivers/CMSIS/Include/cmsis_gcc.h **** #pragma GCC diagnostic ignored "-Wunused-parameter"
  33:Drivers/CMSIS/Include/cmsis_gcc.h **** 
  34:Drivers/CMSIS/Include/cmsis_gcc.h **** /* Fallback for __has_builtin */
  35:Drivers/CMSIS/Include/cmsis_gcc.h **** #ifndef __has_builtin
  36:Drivers/CMSIS/Include/cmsis_gcc.h ****   #define __has_builtin(x) (0)
ARM GAS  C:\Users\kroko\AppData\Local\Temp\ccpAdhTr.s 			page 59


  37:Drivers/CMSIS/Include/cmsis_gcc.h **** #endif
  38:Drivers/CMSIS/Include/cmsis_gcc.h **** 
  39:Drivers/CMSIS/Include/cmsis_gcc.h **** /* CMSIS compiler specific defines */
  40:Drivers/CMSIS/Include/cmsis_gcc.h **** #ifndef   __ASM
  41:Drivers/CMSIS/Include/cmsis_gcc.h ****   #define __ASM                                  __asm
  42:Drivers/CMSIS/Include/cmsis_gcc.h **** #endif
  43:Drivers/CMSIS/Include/cmsis_gcc.h **** #ifndef   __INLINE
  44:Drivers/CMSIS/Include/cmsis_gcc.h ****   #define __INLINE                               inline
  45:Drivers/CMSIS/Include/cmsis_gcc.h **** #endif
  46:Drivers/CMSIS/Include/cmsis_gcc.h **** #ifndef   __STATIC_INLINE
  47:Drivers/CMSIS/Include/cmsis_gcc.h ****   #define __STATIC_INLINE                        static inline
  48:Drivers/CMSIS/Include/cmsis_gcc.h **** #endif
  49:Drivers/CMSIS/Include/cmsis_gcc.h **** #ifndef   __STATIC_FORCEINLINE
  50:Drivers/CMSIS/Include/cmsis_gcc.h ****   #define __STATIC_FORCEINLINE                   __attribute__((always_inline)) static inline
  51:Drivers/CMSIS/Include/cmsis_gcc.h **** #endif
  52:Drivers/CMSIS/Include/cmsis_gcc.h **** #ifndef   __NO_RETURN
  53:Drivers/CMSIS/Include/cmsis_gcc.h ****   #define __NO_RETURN                            __attribute__((__noreturn__))
  54:Drivers/CMSIS/Include/cmsis_gcc.h **** #endif
  55:Drivers/CMSIS/Include/cmsis_gcc.h **** #ifndef   __USED
  56:Drivers/CMSIS/Include/cmsis_gcc.h ****   #define __USED                                 __attribute__((used))
  57:Drivers/CMSIS/Include/cmsis_gcc.h **** #endif
  58:Drivers/CMSIS/Include/cmsis_gcc.h **** #ifndef   __WEAK
  59:Drivers/CMSIS/Include/cmsis_gcc.h ****   #define __WEAK                                 __attribute__((weak))
  60:Drivers/CMSIS/Include/cmsis_gcc.h **** #endif
  61:Drivers/CMSIS/Include/cmsis_gcc.h **** #ifndef   __PACKED
  62:Drivers/CMSIS/Include/cmsis_gcc.h ****   #define __PACKED                               __attribute__((packed, aligned(1)))
  63:Drivers/CMSIS/Include/cmsis_gcc.h **** #endif
  64:Drivers/CMSIS/Include/cmsis_gcc.h **** #ifndef   __PACKED_STRUCT
  65:Drivers/CMSIS/Include/cmsis_gcc.h ****   #define __PACKED_STRUCT                        struct __attribute__((packed, aligned(1)))
  66:Drivers/CMSIS/Include/cmsis_gcc.h **** #endif
  67:Drivers/CMSIS/Include/cmsis_gcc.h **** #ifndef   __PACKED_UNION
  68:Drivers/CMSIS/Include/cmsis_gcc.h ****   #define __PACKED_UNION                         union __attribute__((packed, aligned(1)))
  69:Drivers/CMSIS/Include/cmsis_gcc.h **** #endif
  70:Drivers/CMSIS/Include/cmsis_gcc.h **** #ifndef   __UNALIGNED_UINT32        /* deprecated */
  71:Drivers/CMSIS/Include/cmsis_gcc.h ****   #pragma GCC diagnostic push
  72:Drivers/CMSIS/Include/cmsis_gcc.h ****   #pragma GCC diagnostic ignored "-Wpacked"
  73:Drivers/CMSIS/Include/cmsis_gcc.h ****   #pragma GCC diagnostic ignored "-Wattributes"
  74:Drivers/CMSIS/Include/cmsis_gcc.h ****   struct __attribute__((packed)) T_UINT32 { uint32_t v; };
  75:Drivers/CMSIS/Include/cmsis_gcc.h ****   #pragma GCC diagnostic pop
  76:Drivers/CMSIS/Include/cmsis_gcc.h ****   #define __UNALIGNED_UINT32(x)                  (((struct T_UINT32 *)(x))->v)
  77:Drivers/CMSIS/Include/cmsis_gcc.h **** #endif
  78:Drivers/CMSIS/Include/cmsis_gcc.h **** #ifndef   __UNALIGNED_UINT16_WRITE
  79:Drivers/CMSIS/Include/cmsis_gcc.h ****   #pragma GCC diagnostic push
  80:Drivers/CMSIS/Include/cmsis_gcc.h ****   #pragma GCC diagnostic ignored "-Wpacked"
  81:Drivers/CMSIS/Include/cmsis_gcc.h ****   #pragma GCC diagnostic ignored "-Wattributes"
  82:Drivers/CMSIS/Include/cmsis_gcc.h ****   __PACKED_STRUCT T_UINT16_WRITE { uint16_t v; };
  83:Drivers/CMSIS/Include/cmsis_gcc.h ****   #pragma GCC diagnostic pop
  84:Drivers/CMSIS/Include/cmsis_gcc.h ****   #define __UNALIGNED_UINT16_WRITE(addr, val)    (void)((((struct T_UINT16_WRITE *)(void *)(addr))-
  85:Drivers/CMSIS/Include/cmsis_gcc.h **** #endif
  86:Drivers/CMSIS/Include/cmsis_gcc.h **** #ifndef   __UNALIGNED_UINT16_READ
  87:Drivers/CMSIS/Include/cmsis_gcc.h ****   #pragma GCC diagnostic push
  88:Drivers/CMSIS/Include/cmsis_gcc.h ****   #pragma GCC diagnostic ignored "-Wpacked"
  89:Drivers/CMSIS/Include/cmsis_gcc.h ****   #pragma GCC diagnostic ignored "-Wattributes"
  90:Drivers/CMSIS/Include/cmsis_gcc.h ****   __PACKED_STRUCT T_UINT16_READ { uint16_t v; };
  91:Drivers/CMSIS/Include/cmsis_gcc.h ****   #pragma GCC diagnostic pop
  92:Drivers/CMSIS/Include/cmsis_gcc.h ****   #define __UNALIGNED_UINT16_READ(addr)          (((const struct T_UINT16_READ *)(const void *)(add
  93:Drivers/CMSIS/Include/cmsis_gcc.h **** #endif
ARM GAS  C:\Users\kroko\AppData\Local\Temp\ccpAdhTr.s 			page 60


  94:Drivers/CMSIS/Include/cmsis_gcc.h **** #ifndef   __UNALIGNED_UINT32_WRITE
  95:Drivers/CMSIS/Include/cmsis_gcc.h ****   #pragma GCC diagnostic push
  96:Drivers/CMSIS/Include/cmsis_gcc.h ****   #pragma GCC diagnostic ignored "-Wpacked"
  97:Drivers/CMSIS/Include/cmsis_gcc.h ****   #pragma GCC diagnostic ignored "-Wattributes"
  98:Drivers/CMSIS/Include/cmsis_gcc.h ****   __PACKED_STRUCT T_UINT32_WRITE { uint32_t v; };
  99:Drivers/CMSIS/Include/cmsis_gcc.h ****   #pragma GCC diagnostic pop
 100:Drivers/CMSIS/Include/cmsis_gcc.h ****   #define __UNALIGNED_UINT32_WRITE(addr, val)    (void)((((struct T_UINT32_WRITE *)(void *)(addr))-
 101:Drivers/CMSIS/Include/cmsis_gcc.h **** #endif
 102:Drivers/CMSIS/Include/cmsis_gcc.h **** #ifndef   __UNALIGNED_UINT32_READ
 103:Drivers/CMSIS/Include/cmsis_gcc.h ****   #pragma GCC diagnostic push
 104:Drivers/CMSIS/Include/cmsis_gcc.h ****   #pragma GCC diagnostic ignored "-Wpacked"
 105:Drivers/CMSIS/Include/cmsis_gcc.h ****   #pragma GCC diagnostic ignored "-Wattributes"
 106:Drivers/CMSIS/Include/cmsis_gcc.h ****   __PACKED_STRUCT T_UINT32_READ { uint32_t v; };
 107:Drivers/CMSIS/Include/cmsis_gcc.h ****   #pragma GCC diagnostic pop
 108:Drivers/CMSIS/Include/cmsis_gcc.h ****   #define __UNALIGNED_UINT32_READ(addr)          (((const struct T_UINT32_READ *)(const void *)(add
 109:Drivers/CMSIS/Include/cmsis_gcc.h **** #endif
 110:Drivers/CMSIS/Include/cmsis_gcc.h **** #ifndef   __ALIGNED
 111:Drivers/CMSIS/Include/cmsis_gcc.h ****   #define __ALIGNED(x)                           __attribute__((aligned(x)))
 112:Drivers/CMSIS/Include/cmsis_gcc.h **** #endif
 113:Drivers/CMSIS/Include/cmsis_gcc.h **** #ifndef   __RESTRICT
 114:Drivers/CMSIS/Include/cmsis_gcc.h ****   #define __RESTRICT                             __restrict
 115:Drivers/CMSIS/Include/cmsis_gcc.h **** #endif
 116:Drivers/CMSIS/Include/cmsis_gcc.h **** #ifndef   __COMPILER_BARRIER
 117:Drivers/CMSIS/Include/cmsis_gcc.h ****   #define __COMPILER_BARRIER()                   __ASM volatile("":::"memory")
 118:Drivers/CMSIS/Include/cmsis_gcc.h **** #endif
 119:Drivers/CMSIS/Include/cmsis_gcc.h **** 
 120:Drivers/CMSIS/Include/cmsis_gcc.h **** /* #########################  Startup and Lowlevel Init  ######################## */
 121:Drivers/CMSIS/Include/cmsis_gcc.h **** 
 122:Drivers/CMSIS/Include/cmsis_gcc.h **** #ifndef __PROGRAM_START
 123:Drivers/CMSIS/Include/cmsis_gcc.h **** 
 124:Drivers/CMSIS/Include/cmsis_gcc.h **** /**
 125:Drivers/CMSIS/Include/cmsis_gcc.h ****   \brief   Initializes data and bss sections
 126:Drivers/CMSIS/Include/cmsis_gcc.h ****   \details This default implementations initialized all data and additional bss
 127:Drivers/CMSIS/Include/cmsis_gcc.h ****            sections relying on .copy.table and .zero.table specified properly
 128:Drivers/CMSIS/Include/cmsis_gcc.h ****            in the used linker script.
 129:Drivers/CMSIS/Include/cmsis_gcc.h **** 
 130:Drivers/CMSIS/Include/cmsis_gcc.h ****  */
 131:Drivers/CMSIS/Include/cmsis_gcc.h **** __STATIC_FORCEINLINE __NO_RETURN void __cmsis_start(void)
 132:Drivers/CMSIS/Include/cmsis_gcc.h **** {
 133:Drivers/CMSIS/Include/cmsis_gcc.h ****   extern void _start(void) __NO_RETURN;
 134:Drivers/CMSIS/Include/cmsis_gcc.h **** 
 135:Drivers/CMSIS/Include/cmsis_gcc.h ****   typedef struct {
 136:Drivers/CMSIS/Include/cmsis_gcc.h ****     uint32_t const* src;
 137:Drivers/CMSIS/Include/cmsis_gcc.h ****     uint32_t* dest;
 138:Drivers/CMSIS/Include/cmsis_gcc.h ****     uint32_t  wlen;
 139:Drivers/CMSIS/Include/cmsis_gcc.h ****   } __copy_table_t;
 140:Drivers/CMSIS/Include/cmsis_gcc.h **** 
 141:Drivers/CMSIS/Include/cmsis_gcc.h ****   typedef struct {
 142:Drivers/CMSIS/Include/cmsis_gcc.h ****     uint32_t* dest;
 143:Drivers/CMSIS/Include/cmsis_gcc.h ****     uint32_t  wlen;
 144:Drivers/CMSIS/Include/cmsis_gcc.h ****   } __zero_table_t;
 145:Drivers/CMSIS/Include/cmsis_gcc.h **** 
 146:Drivers/CMSIS/Include/cmsis_gcc.h ****   extern const __copy_table_t __copy_table_start__;
 147:Drivers/CMSIS/Include/cmsis_gcc.h ****   extern const __copy_table_t __copy_table_end__;
 148:Drivers/CMSIS/Include/cmsis_gcc.h ****   extern const __zero_table_t __zero_table_start__;
 149:Drivers/CMSIS/Include/cmsis_gcc.h ****   extern const __zero_table_t __zero_table_end__;
 150:Drivers/CMSIS/Include/cmsis_gcc.h **** 
ARM GAS  C:\Users\kroko\AppData\Local\Temp\ccpAdhTr.s 			page 61


 151:Drivers/CMSIS/Include/cmsis_gcc.h ****   for (__copy_table_t const* pTable = &__copy_table_start__; pTable < &__copy_table_end__; ++pTable
 152:Drivers/CMSIS/Include/cmsis_gcc.h ****     for(uint32_t i=0u; i<pTable->wlen; ++i) {
 153:Drivers/CMSIS/Include/cmsis_gcc.h ****       pTable->dest[i] = pTable->src[i];
 154:Drivers/CMSIS/Include/cmsis_gcc.h ****     }
 155:Drivers/CMSIS/Include/cmsis_gcc.h ****   }
 156:Drivers/CMSIS/Include/cmsis_gcc.h **** 
 157:Drivers/CMSIS/Include/cmsis_gcc.h ****   for (__zero_table_t const* pTable = &__zero_table_start__; pTable < &__zero_table_end__; ++pTable
 158:Drivers/CMSIS/Include/cmsis_gcc.h ****     for(uint32_t i=0u; i<pTable->wlen; ++i) {
 159:Drivers/CMSIS/Include/cmsis_gcc.h ****       pTable->dest[i] = 0u;
 160:Drivers/CMSIS/Include/cmsis_gcc.h ****     }
 161:Drivers/CMSIS/Include/cmsis_gcc.h ****   }
 162:Drivers/CMSIS/Include/cmsis_gcc.h **** 
 163:Drivers/CMSIS/Include/cmsis_gcc.h ****   _start();
 164:Drivers/CMSIS/Include/cmsis_gcc.h **** }
 165:Drivers/CMSIS/Include/cmsis_gcc.h **** 
 166:Drivers/CMSIS/Include/cmsis_gcc.h **** #define __PROGRAM_START           __cmsis_start
 167:Drivers/CMSIS/Include/cmsis_gcc.h **** #endif
 168:Drivers/CMSIS/Include/cmsis_gcc.h **** 
 169:Drivers/CMSIS/Include/cmsis_gcc.h **** #ifndef __INITIAL_SP
 170:Drivers/CMSIS/Include/cmsis_gcc.h **** #define __INITIAL_SP              __StackTop
 171:Drivers/CMSIS/Include/cmsis_gcc.h **** #endif
 172:Drivers/CMSIS/Include/cmsis_gcc.h **** 
 173:Drivers/CMSIS/Include/cmsis_gcc.h **** #ifndef __STACK_LIMIT
 174:Drivers/CMSIS/Include/cmsis_gcc.h **** #define __STACK_LIMIT             __StackLimit
 175:Drivers/CMSIS/Include/cmsis_gcc.h **** #endif
 176:Drivers/CMSIS/Include/cmsis_gcc.h **** 
 177:Drivers/CMSIS/Include/cmsis_gcc.h **** #ifndef __VECTOR_TABLE
 178:Drivers/CMSIS/Include/cmsis_gcc.h **** #define __VECTOR_TABLE            __Vectors
 179:Drivers/CMSIS/Include/cmsis_gcc.h **** #endif
 180:Drivers/CMSIS/Include/cmsis_gcc.h **** 
 181:Drivers/CMSIS/Include/cmsis_gcc.h **** #ifndef __VECTOR_TABLE_ATTRIBUTE
 182:Drivers/CMSIS/Include/cmsis_gcc.h **** #define __VECTOR_TABLE_ATTRIBUTE  __attribute__((used, section(".vectors")))
 183:Drivers/CMSIS/Include/cmsis_gcc.h **** #endif
 184:Drivers/CMSIS/Include/cmsis_gcc.h **** 
 185:Drivers/CMSIS/Include/cmsis_gcc.h **** #if defined (__ARM_FEATURE_CMSE) && (__ARM_FEATURE_CMSE == 3U)
 186:Drivers/CMSIS/Include/cmsis_gcc.h **** #ifndef __STACK_SEAL
 187:Drivers/CMSIS/Include/cmsis_gcc.h **** #define __STACK_SEAL              __StackSeal
 188:Drivers/CMSIS/Include/cmsis_gcc.h **** #endif
 189:Drivers/CMSIS/Include/cmsis_gcc.h **** 
 190:Drivers/CMSIS/Include/cmsis_gcc.h **** #ifndef __TZ_STACK_SEAL_SIZE
 191:Drivers/CMSIS/Include/cmsis_gcc.h **** #define __TZ_STACK_SEAL_SIZE      8U
 192:Drivers/CMSIS/Include/cmsis_gcc.h **** #endif
 193:Drivers/CMSIS/Include/cmsis_gcc.h **** 
 194:Drivers/CMSIS/Include/cmsis_gcc.h **** #ifndef __TZ_STACK_SEAL_VALUE
 195:Drivers/CMSIS/Include/cmsis_gcc.h **** #define __TZ_STACK_SEAL_VALUE     0xFEF5EDA5FEF5EDA5ULL
 196:Drivers/CMSIS/Include/cmsis_gcc.h **** #endif
 197:Drivers/CMSIS/Include/cmsis_gcc.h **** 
 198:Drivers/CMSIS/Include/cmsis_gcc.h **** 
 199:Drivers/CMSIS/Include/cmsis_gcc.h **** __STATIC_FORCEINLINE void __TZ_set_STACKSEAL_S (uint32_t* stackTop) {
 200:Drivers/CMSIS/Include/cmsis_gcc.h ****   *((uint64_t *)stackTop) = __TZ_STACK_SEAL_VALUE;
 201:Drivers/CMSIS/Include/cmsis_gcc.h **** }
 202:Drivers/CMSIS/Include/cmsis_gcc.h **** #endif
 203:Drivers/CMSIS/Include/cmsis_gcc.h **** 
 204:Drivers/CMSIS/Include/cmsis_gcc.h **** 
 205:Drivers/CMSIS/Include/cmsis_gcc.h **** /* ##########################  Core Instruction Access  ######################### */
 206:Drivers/CMSIS/Include/cmsis_gcc.h **** /** \defgroup CMSIS_Core_InstructionInterface CMSIS Core Instruction Interface
 207:Drivers/CMSIS/Include/cmsis_gcc.h ****   Access to dedicated instructions
ARM GAS  C:\Users\kroko\AppData\Local\Temp\ccpAdhTr.s 			page 62


 208:Drivers/CMSIS/Include/cmsis_gcc.h ****   @{
 209:Drivers/CMSIS/Include/cmsis_gcc.h **** */
 210:Drivers/CMSIS/Include/cmsis_gcc.h **** 
 211:Drivers/CMSIS/Include/cmsis_gcc.h **** /* Define macros for porting to both thumb1 and thumb2.
 212:Drivers/CMSIS/Include/cmsis_gcc.h ****  * For thumb1, use low register (r0-r7), specified by constraint "l"
 213:Drivers/CMSIS/Include/cmsis_gcc.h ****  * Otherwise, use general registers, specified by constraint "r" */
 214:Drivers/CMSIS/Include/cmsis_gcc.h **** #if defined (__thumb__) && !defined (__thumb2__)
 215:Drivers/CMSIS/Include/cmsis_gcc.h **** #define __CMSIS_GCC_OUT_REG(r) "=l" (r)
 216:Drivers/CMSIS/Include/cmsis_gcc.h **** #define __CMSIS_GCC_RW_REG(r) "+l" (r)
 217:Drivers/CMSIS/Include/cmsis_gcc.h **** #define __CMSIS_GCC_USE_REG(r) "l" (r)
 218:Drivers/CMSIS/Include/cmsis_gcc.h **** #else
 219:Drivers/CMSIS/Include/cmsis_gcc.h **** #define __CMSIS_GCC_OUT_REG(r) "=r" (r)
 220:Drivers/CMSIS/Include/cmsis_gcc.h **** #define __CMSIS_GCC_RW_REG(r) "+r" (r)
 221:Drivers/CMSIS/Include/cmsis_gcc.h **** #define __CMSIS_GCC_USE_REG(r) "r" (r)
 222:Drivers/CMSIS/Include/cmsis_gcc.h **** #endif
 223:Drivers/CMSIS/Include/cmsis_gcc.h **** 
 224:Drivers/CMSIS/Include/cmsis_gcc.h **** /**
 225:Drivers/CMSIS/Include/cmsis_gcc.h ****   \brief   No Operation
 226:Drivers/CMSIS/Include/cmsis_gcc.h ****   \details No Operation does nothing. This instruction can be used for code alignment purposes.
 227:Drivers/CMSIS/Include/cmsis_gcc.h ****  */
 228:Drivers/CMSIS/Include/cmsis_gcc.h **** #define __NOP()                             __ASM volatile ("nop")
 229:Drivers/CMSIS/Include/cmsis_gcc.h **** 
 230:Drivers/CMSIS/Include/cmsis_gcc.h **** /**
 231:Drivers/CMSIS/Include/cmsis_gcc.h ****   \brief   Wait For Interrupt
 232:Drivers/CMSIS/Include/cmsis_gcc.h ****   \details Wait For Interrupt is a hint instruction that suspends execution until one of a number o
 233:Drivers/CMSIS/Include/cmsis_gcc.h ****  */
 234:Drivers/CMSIS/Include/cmsis_gcc.h **** #define __WFI()                             __ASM volatile ("wfi":::"memory")
 235:Drivers/CMSIS/Include/cmsis_gcc.h **** 
 236:Drivers/CMSIS/Include/cmsis_gcc.h **** 
 237:Drivers/CMSIS/Include/cmsis_gcc.h **** /**
 238:Drivers/CMSIS/Include/cmsis_gcc.h ****   \brief   Wait For Event
 239:Drivers/CMSIS/Include/cmsis_gcc.h ****   \details Wait For Event is a hint instruction that permits the processor to enter
 240:Drivers/CMSIS/Include/cmsis_gcc.h ****            a low-power state until one of a number of events occurs.
 241:Drivers/CMSIS/Include/cmsis_gcc.h ****  */
 242:Drivers/CMSIS/Include/cmsis_gcc.h **** #define __WFE()                             __ASM volatile ("wfe":::"memory")
 243:Drivers/CMSIS/Include/cmsis_gcc.h **** 
 244:Drivers/CMSIS/Include/cmsis_gcc.h **** 
 245:Drivers/CMSIS/Include/cmsis_gcc.h **** /**
 246:Drivers/CMSIS/Include/cmsis_gcc.h ****   \brief   Send Event
 247:Drivers/CMSIS/Include/cmsis_gcc.h ****   \details Send Event is a hint instruction. It causes an event to be signaled to the CPU.
 248:Drivers/CMSIS/Include/cmsis_gcc.h ****  */
 249:Drivers/CMSIS/Include/cmsis_gcc.h **** #define __SEV()                             __ASM volatile ("sev")
 250:Drivers/CMSIS/Include/cmsis_gcc.h **** 
 251:Drivers/CMSIS/Include/cmsis_gcc.h **** 
 252:Drivers/CMSIS/Include/cmsis_gcc.h **** /**
 253:Drivers/CMSIS/Include/cmsis_gcc.h ****   \brief   Instruction Synchronization Barrier
 254:Drivers/CMSIS/Include/cmsis_gcc.h ****   \details Instruction Synchronization Barrier flushes the pipeline in the processor,
 255:Drivers/CMSIS/Include/cmsis_gcc.h ****            so that all instructions following the ISB are fetched from cache or memory,
 256:Drivers/CMSIS/Include/cmsis_gcc.h ****            after the instruction has been completed.
 257:Drivers/CMSIS/Include/cmsis_gcc.h ****  */
 258:Drivers/CMSIS/Include/cmsis_gcc.h **** __STATIC_FORCEINLINE void __ISB(void)
 259:Drivers/CMSIS/Include/cmsis_gcc.h **** {
 260:Drivers/CMSIS/Include/cmsis_gcc.h ****   __ASM volatile ("isb 0xF":::"memory");
 261:Drivers/CMSIS/Include/cmsis_gcc.h **** }
 262:Drivers/CMSIS/Include/cmsis_gcc.h **** 
 263:Drivers/CMSIS/Include/cmsis_gcc.h **** 
 264:Drivers/CMSIS/Include/cmsis_gcc.h **** /**
ARM GAS  C:\Users\kroko\AppData\Local\Temp\ccpAdhTr.s 			page 63


 265:Drivers/CMSIS/Include/cmsis_gcc.h ****   \brief   Data Synchronization Barrier
 266:Drivers/CMSIS/Include/cmsis_gcc.h ****   \details Acts as a special kind of Data Memory Barrier.
 267:Drivers/CMSIS/Include/cmsis_gcc.h ****            It completes when all explicit memory accesses before this instruction complete.
 268:Drivers/CMSIS/Include/cmsis_gcc.h ****  */
 269:Drivers/CMSIS/Include/cmsis_gcc.h **** __STATIC_FORCEINLINE void __DSB(void)
 270:Drivers/CMSIS/Include/cmsis_gcc.h **** {
 271:Drivers/CMSIS/Include/cmsis_gcc.h ****   __ASM volatile ("dsb 0xF":::"memory");
 272:Drivers/CMSIS/Include/cmsis_gcc.h **** }
 273:Drivers/CMSIS/Include/cmsis_gcc.h **** 
 274:Drivers/CMSIS/Include/cmsis_gcc.h **** 
 275:Drivers/CMSIS/Include/cmsis_gcc.h **** /**
 276:Drivers/CMSIS/Include/cmsis_gcc.h ****   \brief   Data Memory Barrier
 277:Drivers/CMSIS/Include/cmsis_gcc.h ****   \details Ensures the apparent order of the explicit memory operations before
 278:Drivers/CMSIS/Include/cmsis_gcc.h ****            and after the instruction, without ensuring their completion.
 279:Drivers/CMSIS/Include/cmsis_gcc.h ****  */
 280:Drivers/CMSIS/Include/cmsis_gcc.h **** __STATIC_FORCEINLINE void __DMB(void)
 281:Drivers/CMSIS/Include/cmsis_gcc.h **** {
 282:Drivers/CMSIS/Include/cmsis_gcc.h ****   __ASM volatile ("dmb 0xF":::"memory");
 283:Drivers/CMSIS/Include/cmsis_gcc.h **** }
 284:Drivers/CMSIS/Include/cmsis_gcc.h **** 
 285:Drivers/CMSIS/Include/cmsis_gcc.h **** 
 286:Drivers/CMSIS/Include/cmsis_gcc.h **** /**
 287:Drivers/CMSIS/Include/cmsis_gcc.h ****   \brief   Reverse byte order (32 bit)
 288:Drivers/CMSIS/Include/cmsis_gcc.h ****   \details Reverses the byte order in unsigned integer value. For example, 0x12345678 becomes 0x785
 289:Drivers/CMSIS/Include/cmsis_gcc.h ****   \param [in]    value  Value to reverse
 290:Drivers/CMSIS/Include/cmsis_gcc.h ****   \return               Reversed value
 291:Drivers/CMSIS/Include/cmsis_gcc.h ****  */
 292:Drivers/CMSIS/Include/cmsis_gcc.h **** __STATIC_FORCEINLINE uint32_t __REV(uint32_t value)
 293:Drivers/CMSIS/Include/cmsis_gcc.h **** {
 294:Drivers/CMSIS/Include/cmsis_gcc.h **** #if (__GNUC__ > 4) || (__GNUC__ == 4 && __GNUC_MINOR__ >= 5)
 295:Drivers/CMSIS/Include/cmsis_gcc.h ****   return __builtin_bswap32(value);
 296:Drivers/CMSIS/Include/cmsis_gcc.h **** #else
 297:Drivers/CMSIS/Include/cmsis_gcc.h ****   uint32_t result;
 298:Drivers/CMSIS/Include/cmsis_gcc.h **** 
 299:Drivers/CMSIS/Include/cmsis_gcc.h ****   __ASM ("rev %0, %1" : __CMSIS_GCC_OUT_REG (result) : __CMSIS_GCC_USE_REG (value) );
 300:Drivers/CMSIS/Include/cmsis_gcc.h ****   return result;
 301:Drivers/CMSIS/Include/cmsis_gcc.h **** #endif
 302:Drivers/CMSIS/Include/cmsis_gcc.h **** }
 303:Drivers/CMSIS/Include/cmsis_gcc.h **** 
 304:Drivers/CMSIS/Include/cmsis_gcc.h **** 
 305:Drivers/CMSIS/Include/cmsis_gcc.h **** /**
 306:Drivers/CMSIS/Include/cmsis_gcc.h ****   \brief   Reverse byte order (16 bit)
 307:Drivers/CMSIS/Include/cmsis_gcc.h ****   \details Reverses the byte order within each halfword of a word. For example, 0x12345678 becomes 
 308:Drivers/CMSIS/Include/cmsis_gcc.h ****   \param [in]    value  Value to reverse
 309:Drivers/CMSIS/Include/cmsis_gcc.h ****   \return               Reversed value
 310:Drivers/CMSIS/Include/cmsis_gcc.h ****  */
 311:Drivers/CMSIS/Include/cmsis_gcc.h **** __STATIC_FORCEINLINE uint32_t __REV16(uint32_t value)
 312:Drivers/CMSIS/Include/cmsis_gcc.h **** {
 313:Drivers/CMSIS/Include/cmsis_gcc.h ****   uint32_t result;
 314:Drivers/CMSIS/Include/cmsis_gcc.h **** 
 315:Drivers/CMSIS/Include/cmsis_gcc.h ****   __ASM ("rev16 %0, %1" : __CMSIS_GCC_OUT_REG (result) : __CMSIS_GCC_USE_REG (value) );
 316:Drivers/CMSIS/Include/cmsis_gcc.h ****   return result;
 317:Drivers/CMSIS/Include/cmsis_gcc.h **** }
 318:Drivers/CMSIS/Include/cmsis_gcc.h **** 
 319:Drivers/CMSIS/Include/cmsis_gcc.h **** 
 320:Drivers/CMSIS/Include/cmsis_gcc.h **** /**
 321:Drivers/CMSIS/Include/cmsis_gcc.h ****   \brief   Reverse byte order (16 bit)
ARM GAS  C:\Users\kroko\AppData\Local\Temp\ccpAdhTr.s 			page 64


 322:Drivers/CMSIS/Include/cmsis_gcc.h ****   \details Reverses the byte order in a 16-bit value and returns the signed 16-bit result. For exam
 323:Drivers/CMSIS/Include/cmsis_gcc.h ****   \param [in]    value  Value to reverse
 324:Drivers/CMSIS/Include/cmsis_gcc.h ****   \return               Reversed value
 325:Drivers/CMSIS/Include/cmsis_gcc.h ****  */
 326:Drivers/CMSIS/Include/cmsis_gcc.h **** __STATIC_FORCEINLINE int16_t __REVSH(int16_t value)
 327:Drivers/CMSIS/Include/cmsis_gcc.h **** {
 328:Drivers/CMSIS/Include/cmsis_gcc.h **** #if (__GNUC__ > 4) || (__GNUC__ == 4 && __GNUC_MINOR__ >= 8)
 329:Drivers/CMSIS/Include/cmsis_gcc.h ****   return (int16_t)__builtin_bswap16(value);
 330:Drivers/CMSIS/Include/cmsis_gcc.h **** #else
 331:Drivers/CMSIS/Include/cmsis_gcc.h ****   int16_t result;
 332:Drivers/CMSIS/Include/cmsis_gcc.h **** 
 333:Drivers/CMSIS/Include/cmsis_gcc.h ****   __ASM ("revsh %0, %1" : __CMSIS_GCC_OUT_REG (result) : __CMSIS_GCC_USE_REG (value) );
 334:Drivers/CMSIS/Include/cmsis_gcc.h ****   return result;
 335:Drivers/CMSIS/Include/cmsis_gcc.h **** #endif
 336:Drivers/CMSIS/Include/cmsis_gcc.h **** }
 337:Drivers/CMSIS/Include/cmsis_gcc.h **** 
 338:Drivers/CMSIS/Include/cmsis_gcc.h **** 
 339:Drivers/CMSIS/Include/cmsis_gcc.h **** /**
 340:Drivers/CMSIS/Include/cmsis_gcc.h ****   \brief   Rotate Right in unsigned value (32 bit)
 341:Drivers/CMSIS/Include/cmsis_gcc.h ****   \details Rotate Right (immediate) provides the value of the contents of a register rotated by a v
 342:Drivers/CMSIS/Include/cmsis_gcc.h ****   \param [in]    op1  Value to rotate
 343:Drivers/CMSIS/Include/cmsis_gcc.h ****   \param [in]    op2  Number of Bits to rotate
 344:Drivers/CMSIS/Include/cmsis_gcc.h ****   \return               Rotated value
 345:Drivers/CMSIS/Include/cmsis_gcc.h ****  */
 346:Drivers/CMSIS/Include/cmsis_gcc.h **** __STATIC_FORCEINLINE uint32_t __ROR(uint32_t op1, uint32_t op2)
 347:Drivers/CMSIS/Include/cmsis_gcc.h **** {
 348:Drivers/CMSIS/Include/cmsis_gcc.h ****   op2 %= 32U;
 349:Drivers/CMSIS/Include/cmsis_gcc.h ****   if (op2 == 0U)
 350:Drivers/CMSIS/Include/cmsis_gcc.h ****   {
 351:Drivers/CMSIS/Include/cmsis_gcc.h ****     return op1;
 352:Drivers/CMSIS/Include/cmsis_gcc.h ****   }
 353:Drivers/CMSIS/Include/cmsis_gcc.h ****   return (op1 >> op2) | (op1 << (32U - op2));
 354:Drivers/CMSIS/Include/cmsis_gcc.h **** }
 355:Drivers/CMSIS/Include/cmsis_gcc.h **** 
 356:Drivers/CMSIS/Include/cmsis_gcc.h **** 
 357:Drivers/CMSIS/Include/cmsis_gcc.h **** /**
 358:Drivers/CMSIS/Include/cmsis_gcc.h ****   \brief   Breakpoint
 359:Drivers/CMSIS/Include/cmsis_gcc.h ****   \details Causes the processor to enter Debug state.
 360:Drivers/CMSIS/Include/cmsis_gcc.h ****            Debug tools can use this to investigate system state when the instruction at a particula
 361:Drivers/CMSIS/Include/cmsis_gcc.h ****   \param [in]    value  is ignored by the processor.
 362:Drivers/CMSIS/Include/cmsis_gcc.h ****                  If required, a debugger can use it to store additional information about the break
 363:Drivers/CMSIS/Include/cmsis_gcc.h ****  */
 364:Drivers/CMSIS/Include/cmsis_gcc.h **** #define __BKPT(value)                       __ASM volatile ("bkpt "#value)
 365:Drivers/CMSIS/Include/cmsis_gcc.h **** 
 366:Drivers/CMSIS/Include/cmsis_gcc.h **** 
 367:Drivers/CMSIS/Include/cmsis_gcc.h **** /**
 368:Drivers/CMSIS/Include/cmsis_gcc.h ****   \brief   Reverse bit order of value
 369:Drivers/CMSIS/Include/cmsis_gcc.h ****   \details Reverses the bit order of the given value.
 370:Drivers/CMSIS/Include/cmsis_gcc.h ****   \param [in]    value  Value to reverse
 371:Drivers/CMSIS/Include/cmsis_gcc.h ****   \return               Reversed value
 372:Drivers/CMSIS/Include/cmsis_gcc.h ****  */
 373:Drivers/CMSIS/Include/cmsis_gcc.h **** __STATIC_FORCEINLINE uint32_t __RBIT(uint32_t value)
 374:Drivers/CMSIS/Include/cmsis_gcc.h **** {
 375:Drivers/CMSIS/Include/cmsis_gcc.h ****   uint32_t result;
 376:Drivers/CMSIS/Include/cmsis_gcc.h **** 
 377:Drivers/CMSIS/Include/cmsis_gcc.h **** #if ((defined (__ARM_ARCH_7M__      ) && (__ARM_ARCH_7M__      == 1)) || \
 378:Drivers/CMSIS/Include/cmsis_gcc.h ****      (defined (__ARM_ARCH_7EM__     ) && (__ARM_ARCH_7EM__     == 1)) || \
ARM GAS  C:\Users\kroko\AppData\Local\Temp\ccpAdhTr.s 			page 65


 379:Drivers/CMSIS/Include/cmsis_gcc.h ****      (defined (__ARM_ARCH_8M_MAIN__ ) && (__ARM_ARCH_8M_MAIN__ == 1))    )
 380:Drivers/CMSIS/Include/cmsis_gcc.h ****    __ASM ("rbit %0, %1" : "=r" (result) : "r" (value) );
 381:Drivers/CMSIS/Include/cmsis_gcc.h **** #else
 382:Drivers/CMSIS/Include/cmsis_gcc.h ****   uint32_t s = (4U /*sizeof(v)*/ * 8U) - 1U; /* extra shift needed at end */
 383:Drivers/CMSIS/Include/cmsis_gcc.h **** 
 384:Drivers/CMSIS/Include/cmsis_gcc.h ****   result = value;                      /* r will be reversed bits of v; first get LSB of v */
 385:Drivers/CMSIS/Include/cmsis_gcc.h ****   for (value >>= 1U; value != 0U; value >>= 1U)
 386:Drivers/CMSIS/Include/cmsis_gcc.h ****   {
 387:Drivers/CMSIS/Include/cmsis_gcc.h ****     result <<= 1U;
 388:Drivers/CMSIS/Include/cmsis_gcc.h ****     result |= value & 1U;
 389:Drivers/CMSIS/Include/cmsis_gcc.h ****     s--;
 390:Drivers/CMSIS/Include/cmsis_gcc.h ****   }
 391:Drivers/CMSIS/Include/cmsis_gcc.h ****   result <<= s;                        /* shift when v's highest bits are zero */
 392:Drivers/CMSIS/Include/cmsis_gcc.h **** #endif
 393:Drivers/CMSIS/Include/cmsis_gcc.h ****   return result;
 394:Drivers/CMSIS/Include/cmsis_gcc.h **** }
 395:Drivers/CMSIS/Include/cmsis_gcc.h **** 
 396:Drivers/CMSIS/Include/cmsis_gcc.h **** 
 397:Drivers/CMSIS/Include/cmsis_gcc.h **** /**
 398:Drivers/CMSIS/Include/cmsis_gcc.h ****   \brief   Count leading zeros
 399:Drivers/CMSIS/Include/cmsis_gcc.h ****   \details Counts the number of leading zeros of a data value.
 400:Drivers/CMSIS/Include/cmsis_gcc.h ****   \param [in]  value  Value to count the leading zeros
 401:Drivers/CMSIS/Include/cmsis_gcc.h ****   \return             number of leading zeros in value
 402:Drivers/CMSIS/Include/cmsis_gcc.h ****  */
 403:Drivers/CMSIS/Include/cmsis_gcc.h **** __STATIC_FORCEINLINE uint8_t __CLZ(uint32_t value)
 404:Drivers/CMSIS/Include/cmsis_gcc.h **** {
 405:Drivers/CMSIS/Include/cmsis_gcc.h ****   /* Even though __builtin_clz produces a CLZ instruction on ARM, formally
 406:Drivers/CMSIS/Include/cmsis_gcc.h ****      __builtin_clz(0) is undefined behaviour, so handle this case specially.
 407:Drivers/CMSIS/Include/cmsis_gcc.h ****      This guarantees ARM-compatible results if happening to compile on a non-ARM
 408:Drivers/CMSIS/Include/cmsis_gcc.h ****      target, and ensures the compiler doesn't decide to activate any
 409:Drivers/CMSIS/Include/cmsis_gcc.h ****      optimisations using the logic "value was passed to __builtin_clz, so it
 410:Drivers/CMSIS/Include/cmsis_gcc.h ****      is non-zero".
 411:Drivers/CMSIS/Include/cmsis_gcc.h ****      ARM GCC 7.3 and possibly earlier will optimise this test away, leaving a
 412:Drivers/CMSIS/Include/cmsis_gcc.h ****      single CLZ instruction.
 413:Drivers/CMSIS/Include/cmsis_gcc.h ****    */
 414:Drivers/CMSIS/Include/cmsis_gcc.h ****   if (value == 0U)
 415:Drivers/CMSIS/Include/cmsis_gcc.h ****   {
 416:Drivers/CMSIS/Include/cmsis_gcc.h ****     return 32U;
 417:Drivers/CMSIS/Include/cmsis_gcc.h ****   }
 418:Drivers/CMSIS/Include/cmsis_gcc.h ****   return __builtin_clz(value);
 419:Drivers/CMSIS/Include/cmsis_gcc.h **** }
 420:Drivers/CMSIS/Include/cmsis_gcc.h **** 
 421:Drivers/CMSIS/Include/cmsis_gcc.h **** 
 422:Drivers/CMSIS/Include/cmsis_gcc.h **** #if ((defined (__ARM_ARCH_7M__      ) && (__ARM_ARCH_7M__      == 1)) || \
 423:Drivers/CMSIS/Include/cmsis_gcc.h ****      (defined (__ARM_ARCH_7EM__     ) && (__ARM_ARCH_7EM__     == 1)) || \
 424:Drivers/CMSIS/Include/cmsis_gcc.h ****      (defined (__ARM_ARCH_8M_MAIN__ ) && (__ARM_ARCH_8M_MAIN__ == 1)) || \
 425:Drivers/CMSIS/Include/cmsis_gcc.h ****      (defined (__ARM_ARCH_8M_BASE__ ) && (__ARM_ARCH_8M_BASE__ == 1))    )
 426:Drivers/CMSIS/Include/cmsis_gcc.h **** /**
 427:Drivers/CMSIS/Include/cmsis_gcc.h ****   \brief   LDR Exclusive (8 bit)
 428:Drivers/CMSIS/Include/cmsis_gcc.h ****   \details Executes a exclusive LDR instruction for 8 bit value.
 429:Drivers/CMSIS/Include/cmsis_gcc.h ****   \param [in]    ptr  Pointer to data
 430:Drivers/CMSIS/Include/cmsis_gcc.h ****   \return             value of type uint8_t at (*ptr)
 431:Drivers/CMSIS/Include/cmsis_gcc.h ****  */
 432:Drivers/CMSIS/Include/cmsis_gcc.h **** __STATIC_FORCEINLINE uint8_t __LDREXB(volatile uint8_t *addr)
 433:Drivers/CMSIS/Include/cmsis_gcc.h **** {
 434:Drivers/CMSIS/Include/cmsis_gcc.h ****     uint32_t result;
 435:Drivers/CMSIS/Include/cmsis_gcc.h **** 
ARM GAS  C:\Users\kroko\AppData\Local\Temp\ccpAdhTr.s 			page 66


 436:Drivers/CMSIS/Include/cmsis_gcc.h **** #if (__GNUC__ > 4) || (__GNUC__ == 4 && __GNUC_MINOR__ >= 8)
 437:Drivers/CMSIS/Include/cmsis_gcc.h ****    __ASM volatile ("ldrexb %0, %1" : "=r" (result) : "Q" (*addr) );
 438:Drivers/CMSIS/Include/cmsis_gcc.h **** #else
 439:Drivers/CMSIS/Include/cmsis_gcc.h ****     /* Prior to GCC 4.8, "Q" will be expanded to [rx, #0] which is not
 440:Drivers/CMSIS/Include/cmsis_gcc.h ****        accepted by assembler. So has to use following less efficient pattern.
 441:Drivers/CMSIS/Include/cmsis_gcc.h ****     */
 442:Drivers/CMSIS/Include/cmsis_gcc.h ****    __ASM volatile ("ldrexb %0, [%1]" : "=r" (result) : "r" (addr) : "memory" );
 443:Drivers/CMSIS/Include/cmsis_gcc.h **** #endif
 444:Drivers/CMSIS/Include/cmsis_gcc.h ****    return ((uint8_t) result);    /* Add explicit type cast here */
 445:Drivers/CMSIS/Include/cmsis_gcc.h **** }
 446:Drivers/CMSIS/Include/cmsis_gcc.h **** 
 447:Drivers/CMSIS/Include/cmsis_gcc.h **** 
 448:Drivers/CMSIS/Include/cmsis_gcc.h **** /**
 449:Drivers/CMSIS/Include/cmsis_gcc.h ****   \brief   LDR Exclusive (16 bit)
 450:Drivers/CMSIS/Include/cmsis_gcc.h ****   \details Executes a exclusive LDR instruction for 16 bit values.
 451:Drivers/CMSIS/Include/cmsis_gcc.h ****   \param [in]    ptr  Pointer to data
 452:Drivers/CMSIS/Include/cmsis_gcc.h ****   \return        value of type uint16_t at (*ptr)
 453:Drivers/CMSIS/Include/cmsis_gcc.h ****  */
 454:Drivers/CMSIS/Include/cmsis_gcc.h **** __STATIC_FORCEINLINE uint16_t __LDREXH(volatile uint16_t *addr)
 455:Drivers/CMSIS/Include/cmsis_gcc.h **** {
 456:Drivers/CMSIS/Include/cmsis_gcc.h ****     uint32_t result;
 457:Drivers/CMSIS/Include/cmsis_gcc.h **** 
 458:Drivers/CMSIS/Include/cmsis_gcc.h **** #if (__GNUC__ > 4) || (__GNUC__ == 4 && __GNUC_MINOR__ >= 8)
 459:Drivers/CMSIS/Include/cmsis_gcc.h ****    __ASM volatile ("ldrexh %0, %1" : "=r" (result) : "Q" (*addr) );
 460:Drivers/CMSIS/Include/cmsis_gcc.h **** #else
 461:Drivers/CMSIS/Include/cmsis_gcc.h ****     /* Prior to GCC 4.8, "Q" will be expanded to [rx, #0] which is not
 462:Drivers/CMSIS/Include/cmsis_gcc.h ****        accepted by assembler. So has to use following less efficient pattern.
 463:Drivers/CMSIS/Include/cmsis_gcc.h ****     */
 464:Drivers/CMSIS/Include/cmsis_gcc.h ****    __ASM volatile ("ldrexh %0, [%1]" : "=r" (result) : "r" (addr) : "memory" );
 465:Drivers/CMSIS/Include/cmsis_gcc.h **** #endif
 466:Drivers/CMSIS/Include/cmsis_gcc.h ****    return ((uint16_t) result);    /* Add explicit type cast here */
 467:Drivers/CMSIS/Include/cmsis_gcc.h **** }
 468:Drivers/CMSIS/Include/cmsis_gcc.h **** 
 469:Drivers/CMSIS/Include/cmsis_gcc.h **** 
 470:Drivers/CMSIS/Include/cmsis_gcc.h **** /**
 471:Drivers/CMSIS/Include/cmsis_gcc.h ****   \brief   LDR Exclusive (32 bit)
 472:Drivers/CMSIS/Include/cmsis_gcc.h ****   \details Executes a exclusive LDR instruction for 32 bit values.
 473:Drivers/CMSIS/Include/cmsis_gcc.h ****   \param [in]    ptr  Pointer to data
 474:Drivers/CMSIS/Include/cmsis_gcc.h ****   \return        value of type uint32_t at (*ptr)
 475:Drivers/CMSIS/Include/cmsis_gcc.h ****  */
 476:Drivers/CMSIS/Include/cmsis_gcc.h **** __STATIC_FORCEINLINE uint32_t __LDREXW(volatile uint32_t *addr)
 477:Drivers/CMSIS/Include/cmsis_gcc.h **** {
 478:Drivers/CMSIS/Include/cmsis_gcc.h ****     uint32_t result;
 479:Drivers/CMSIS/Include/cmsis_gcc.h **** 
 480:Drivers/CMSIS/Include/cmsis_gcc.h ****    __ASM volatile ("ldrex %0, %1" : "=r" (result) : "Q" (*addr) );
 481:Drivers/CMSIS/Include/cmsis_gcc.h ****    return(result);
 482:Drivers/CMSIS/Include/cmsis_gcc.h **** }
 483:Drivers/CMSIS/Include/cmsis_gcc.h **** 
 484:Drivers/CMSIS/Include/cmsis_gcc.h **** 
 485:Drivers/CMSIS/Include/cmsis_gcc.h **** /**
 486:Drivers/CMSIS/Include/cmsis_gcc.h ****   \brief   STR Exclusive (8 bit)
 487:Drivers/CMSIS/Include/cmsis_gcc.h ****   \details Executes a exclusive STR instruction for 8 bit values.
 488:Drivers/CMSIS/Include/cmsis_gcc.h ****   \param [in]  value  Value to store
 489:Drivers/CMSIS/Include/cmsis_gcc.h ****   \param [in]    ptr  Pointer to location
 490:Drivers/CMSIS/Include/cmsis_gcc.h ****   \return          0  Function succeeded
 491:Drivers/CMSIS/Include/cmsis_gcc.h ****   \return          1  Function failed
 492:Drivers/CMSIS/Include/cmsis_gcc.h ****  */
ARM GAS  C:\Users\kroko\AppData\Local\Temp\ccpAdhTr.s 			page 67


 493:Drivers/CMSIS/Include/cmsis_gcc.h **** __STATIC_FORCEINLINE uint32_t __STREXB(uint8_t value, volatile uint8_t *addr)
 494:Drivers/CMSIS/Include/cmsis_gcc.h **** {
 495:Drivers/CMSIS/Include/cmsis_gcc.h ****    uint32_t result;
 496:Drivers/CMSIS/Include/cmsis_gcc.h **** 
 497:Drivers/CMSIS/Include/cmsis_gcc.h ****    __ASM volatile ("strexb %0, %2, %1" : "=&r" (result), "=Q" (*addr) : "r" ((uint32_t)value) );
 498:Drivers/CMSIS/Include/cmsis_gcc.h ****    return(result);
 499:Drivers/CMSIS/Include/cmsis_gcc.h **** }
 500:Drivers/CMSIS/Include/cmsis_gcc.h **** 
 501:Drivers/CMSIS/Include/cmsis_gcc.h **** 
 502:Drivers/CMSIS/Include/cmsis_gcc.h **** /**
 503:Drivers/CMSIS/Include/cmsis_gcc.h ****   \brief   STR Exclusive (16 bit)
 504:Drivers/CMSIS/Include/cmsis_gcc.h ****   \details Executes a exclusive STR instruction for 16 bit values.
 505:Drivers/CMSIS/Include/cmsis_gcc.h ****   \param [in]  value  Value to store
 506:Drivers/CMSIS/Include/cmsis_gcc.h ****   \param [in]    ptr  Pointer to location
 507:Drivers/CMSIS/Include/cmsis_gcc.h ****   \return          0  Function succeeded
 508:Drivers/CMSIS/Include/cmsis_gcc.h ****   \return          1  Function failed
 509:Drivers/CMSIS/Include/cmsis_gcc.h ****  */
 510:Drivers/CMSIS/Include/cmsis_gcc.h **** __STATIC_FORCEINLINE uint32_t __STREXH(uint16_t value, volatile uint16_t *addr)
 511:Drivers/CMSIS/Include/cmsis_gcc.h **** {
 512:Drivers/CMSIS/Include/cmsis_gcc.h ****    uint32_t result;
 513:Drivers/CMSIS/Include/cmsis_gcc.h **** 
 514:Drivers/CMSIS/Include/cmsis_gcc.h ****    __ASM volatile ("strexh %0, %2, %1" : "=&r" (result), "=Q" (*addr) : "r" ((uint32_t)value) );
 515:Drivers/CMSIS/Include/cmsis_gcc.h ****    return(result);
 516:Drivers/CMSIS/Include/cmsis_gcc.h **** }
 517:Drivers/CMSIS/Include/cmsis_gcc.h **** 
 518:Drivers/CMSIS/Include/cmsis_gcc.h **** 
 519:Drivers/CMSIS/Include/cmsis_gcc.h **** /**
 520:Drivers/CMSIS/Include/cmsis_gcc.h ****   \brief   STR Exclusive (32 bit)
 521:Drivers/CMSIS/Include/cmsis_gcc.h ****   \details Executes a exclusive STR instruction for 32 bit values.
 522:Drivers/CMSIS/Include/cmsis_gcc.h ****   \param [in]  value  Value to store
 523:Drivers/CMSIS/Include/cmsis_gcc.h ****   \param [in]    ptr  Pointer to location
 524:Drivers/CMSIS/Include/cmsis_gcc.h ****   \return          0  Function succeeded
 525:Drivers/CMSIS/Include/cmsis_gcc.h ****   \return          1  Function failed
 526:Drivers/CMSIS/Include/cmsis_gcc.h ****  */
 527:Drivers/CMSIS/Include/cmsis_gcc.h **** __STATIC_FORCEINLINE uint32_t __STREXW(uint32_t value, volatile uint32_t *addr)
 528:Drivers/CMSIS/Include/cmsis_gcc.h **** {
 529:Drivers/CMSIS/Include/cmsis_gcc.h ****    uint32_t result;
 530:Drivers/CMSIS/Include/cmsis_gcc.h **** 
 531:Drivers/CMSIS/Include/cmsis_gcc.h ****    __ASM volatile ("strex %0, %2, %1" : "=&r" (result), "=Q" (*addr) : "r" (value) );
 532:Drivers/CMSIS/Include/cmsis_gcc.h ****    return(result);
 533:Drivers/CMSIS/Include/cmsis_gcc.h **** }
 534:Drivers/CMSIS/Include/cmsis_gcc.h **** 
 535:Drivers/CMSIS/Include/cmsis_gcc.h **** 
 536:Drivers/CMSIS/Include/cmsis_gcc.h **** /**
 537:Drivers/CMSIS/Include/cmsis_gcc.h ****   \brief   Remove the exclusive lock
 538:Drivers/CMSIS/Include/cmsis_gcc.h ****   \details Removes the exclusive lock which is created by LDREX.
 539:Drivers/CMSIS/Include/cmsis_gcc.h ****  */
 540:Drivers/CMSIS/Include/cmsis_gcc.h **** __STATIC_FORCEINLINE void __CLREX(void)
 541:Drivers/CMSIS/Include/cmsis_gcc.h **** {
 542:Drivers/CMSIS/Include/cmsis_gcc.h ****   __ASM volatile ("clrex" ::: "memory");
 543:Drivers/CMSIS/Include/cmsis_gcc.h **** }
 544:Drivers/CMSIS/Include/cmsis_gcc.h **** 
 545:Drivers/CMSIS/Include/cmsis_gcc.h **** #endif /* ((defined (__ARM_ARCH_7M__      ) && (__ARM_ARCH_7M__      == 1)) || \
 546:Drivers/CMSIS/Include/cmsis_gcc.h ****            (defined (__ARM_ARCH_7EM__     ) && (__ARM_ARCH_7EM__     == 1)) || \
 547:Drivers/CMSIS/Include/cmsis_gcc.h ****            (defined (__ARM_ARCH_8M_MAIN__ ) && (__ARM_ARCH_8M_MAIN__ == 1)) || \
 548:Drivers/CMSIS/Include/cmsis_gcc.h ****            (defined (__ARM_ARCH_8M_BASE__ ) && (__ARM_ARCH_8M_BASE__ == 1))    ) */
 549:Drivers/CMSIS/Include/cmsis_gcc.h **** 
ARM GAS  C:\Users\kroko\AppData\Local\Temp\ccpAdhTr.s 			page 68


 550:Drivers/CMSIS/Include/cmsis_gcc.h **** 
 551:Drivers/CMSIS/Include/cmsis_gcc.h **** #if ((defined (__ARM_ARCH_7M__      ) && (__ARM_ARCH_7M__      == 1)) || \
 552:Drivers/CMSIS/Include/cmsis_gcc.h ****      (defined (__ARM_ARCH_7EM__     ) && (__ARM_ARCH_7EM__     == 1)) || \
 553:Drivers/CMSIS/Include/cmsis_gcc.h ****      (defined (__ARM_ARCH_8M_MAIN__ ) && (__ARM_ARCH_8M_MAIN__ == 1))    )
 554:Drivers/CMSIS/Include/cmsis_gcc.h **** /**
 555:Drivers/CMSIS/Include/cmsis_gcc.h ****   \brief   Signed Saturate
 556:Drivers/CMSIS/Include/cmsis_gcc.h ****   \details Saturates a signed value.
 557:Drivers/CMSIS/Include/cmsis_gcc.h ****   \param [in]  ARG1  Value to be saturated
 558:Drivers/CMSIS/Include/cmsis_gcc.h ****   \param [in]  ARG2  Bit position to saturate to (1..32)
 559:Drivers/CMSIS/Include/cmsis_gcc.h ****   \return             Saturated value
 560:Drivers/CMSIS/Include/cmsis_gcc.h ****  */
 561:Drivers/CMSIS/Include/cmsis_gcc.h **** #define __SSAT(ARG1, ARG2) \
 562:Drivers/CMSIS/Include/cmsis_gcc.h **** __extension__ \
 563:Drivers/CMSIS/Include/cmsis_gcc.h **** ({                          \
 564:Drivers/CMSIS/Include/cmsis_gcc.h ****   int32_t __RES, __ARG1 = (ARG1); \
 565:Drivers/CMSIS/Include/cmsis_gcc.h ****   __ASM volatile ("ssat %0, %1, %2" : "=r" (__RES) :  "I" (ARG2), "r" (__ARG1) : "cc" ); \
 566:Drivers/CMSIS/Include/cmsis_gcc.h ****   __RES; \
 567:Drivers/CMSIS/Include/cmsis_gcc.h ****  })
 568:Drivers/CMSIS/Include/cmsis_gcc.h **** 
 569:Drivers/CMSIS/Include/cmsis_gcc.h **** 
 570:Drivers/CMSIS/Include/cmsis_gcc.h **** /**
 571:Drivers/CMSIS/Include/cmsis_gcc.h ****   \brief   Unsigned Saturate
 572:Drivers/CMSIS/Include/cmsis_gcc.h ****   \details Saturates an unsigned value.
 573:Drivers/CMSIS/Include/cmsis_gcc.h ****   \param [in]  ARG1  Value to be saturated
 574:Drivers/CMSIS/Include/cmsis_gcc.h ****   \param [in]  ARG2  Bit position to saturate to (0..31)
 575:Drivers/CMSIS/Include/cmsis_gcc.h ****   \return             Saturated value
 576:Drivers/CMSIS/Include/cmsis_gcc.h ****  */
 577:Drivers/CMSIS/Include/cmsis_gcc.h **** #define __USAT(ARG1, ARG2) \
 578:Drivers/CMSIS/Include/cmsis_gcc.h **** __extension__ \
 579:Drivers/CMSIS/Include/cmsis_gcc.h **** ({                          \
 580:Drivers/CMSIS/Include/cmsis_gcc.h ****   uint32_t __RES, __ARG1 = (ARG1); \
 581:Drivers/CMSIS/Include/cmsis_gcc.h ****   __ASM volatile ("usat %0, %1, %2" : "=r" (__RES) :  "I" (ARG2), "r" (__ARG1) : "cc" ); \
 582:Drivers/CMSIS/Include/cmsis_gcc.h ****   __RES; \
 583:Drivers/CMSIS/Include/cmsis_gcc.h ****  })
 584:Drivers/CMSIS/Include/cmsis_gcc.h **** 
 585:Drivers/CMSIS/Include/cmsis_gcc.h **** 
 586:Drivers/CMSIS/Include/cmsis_gcc.h **** /**
 587:Drivers/CMSIS/Include/cmsis_gcc.h ****   \brief   Rotate Right with Extend (32 bit)
 588:Drivers/CMSIS/Include/cmsis_gcc.h ****   \details Moves each bit of a bitstring right by one bit.
 589:Drivers/CMSIS/Include/cmsis_gcc.h ****            The carry input is shifted in at the left end of the bitstring.
 590:Drivers/CMSIS/Include/cmsis_gcc.h ****   \param [in]    value  Value to rotate
 591:Drivers/CMSIS/Include/cmsis_gcc.h ****   \return               Rotated value
 592:Drivers/CMSIS/Include/cmsis_gcc.h ****  */
 593:Drivers/CMSIS/Include/cmsis_gcc.h **** __STATIC_FORCEINLINE uint32_t __RRX(uint32_t value)
 594:Drivers/CMSIS/Include/cmsis_gcc.h **** {
 595:Drivers/CMSIS/Include/cmsis_gcc.h ****   uint32_t result;
 596:Drivers/CMSIS/Include/cmsis_gcc.h **** 
 597:Drivers/CMSIS/Include/cmsis_gcc.h ****   __ASM volatile ("rrx %0, %1" : __CMSIS_GCC_OUT_REG (result) : __CMSIS_GCC_USE_REG (value) );
 598:Drivers/CMSIS/Include/cmsis_gcc.h ****   return(result);
 599:Drivers/CMSIS/Include/cmsis_gcc.h **** }
 600:Drivers/CMSIS/Include/cmsis_gcc.h **** 
 601:Drivers/CMSIS/Include/cmsis_gcc.h **** 
 602:Drivers/CMSIS/Include/cmsis_gcc.h **** /**
 603:Drivers/CMSIS/Include/cmsis_gcc.h ****   \brief   LDRT Unprivileged (8 bit)
 604:Drivers/CMSIS/Include/cmsis_gcc.h ****   \details Executes a Unprivileged LDRT instruction for 8 bit value.
 605:Drivers/CMSIS/Include/cmsis_gcc.h ****   \param [in]    ptr  Pointer to data
 606:Drivers/CMSIS/Include/cmsis_gcc.h ****   \return             value of type uint8_t at (*ptr)
ARM GAS  C:\Users\kroko\AppData\Local\Temp\ccpAdhTr.s 			page 69


 607:Drivers/CMSIS/Include/cmsis_gcc.h ****  */
 608:Drivers/CMSIS/Include/cmsis_gcc.h **** __STATIC_FORCEINLINE uint8_t __LDRBT(volatile uint8_t *ptr)
 609:Drivers/CMSIS/Include/cmsis_gcc.h **** {
 610:Drivers/CMSIS/Include/cmsis_gcc.h ****     uint32_t result;
 611:Drivers/CMSIS/Include/cmsis_gcc.h **** 
 612:Drivers/CMSIS/Include/cmsis_gcc.h **** #if (__GNUC__ > 4) || (__GNUC__ == 4 && __GNUC_MINOR__ >= 8)
 613:Drivers/CMSIS/Include/cmsis_gcc.h ****    __ASM volatile ("ldrbt %0, %1" : "=r" (result) : "Q" (*ptr) );
 614:Drivers/CMSIS/Include/cmsis_gcc.h **** #else
 615:Drivers/CMSIS/Include/cmsis_gcc.h ****     /* Prior to GCC 4.8, "Q" will be expanded to [rx, #0] which is not
 616:Drivers/CMSIS/Include/cmsis_gcc.h ****        accepted by assembler. So has to use following less efficient pattern.
 617:Drivers/CMSIS/Include/cmsis_gcc.h ****     */
 618:Drivers/CMSIS/Include/cmsis_gcc.h ****    __ASM volatile ("ldrbt %0, [%1]" : "=r" (result) : "r" (ptr) : "memory" );
 619:Drivers/CMSIS/Include/cmsis_gcc.h **** #endif
 620:Drivers/CMSIS/Include/cmsis_gcc.h ****    return ((uint8_t) result);    /* Add explicit type cast here */
 621:Drivers/CMSIS/Include/cmsis_gcc.h **** }
 622:Drivers/CMSIS/Include/cmsis_gcc.h **** 
 623:Drivers/CMSIS/Include/cmsis_gcc.h **** 
 624:Drivers/CMSIS/Include/cmsis_gcc.h **** /**
 625:Drivers/CMSIS/Include/cmsis_gcc.h ****   \brief   LDRT Unprivileged (16 bit)
 626:Drivers/CMSIS/Include/cmsis_gcc.h ****   \details Executes a Unprivileged LDRT instruction for 16 bit values.
 627:Drivers/CMSIS/Include/cmsis_gcc.h ****   \param [in]    ptr  Pointer to data
 628:Drivers/CMSIS/Include/cmsis_gcc.h ****   \return        value of type uint16_t at (*ptr)
 629:Drivers/CMSIS/Include/cmsis_gcc.h ****  */
 630:Drivers/CMSIS/Include/cmsis_gcc.h **** __STATIC_FORCEINLINE uint16_t __LDRHT(volatile uint16_t *ptr)
 631:Drivers/CMSIS/Include/cmsis_gcc.h **** {
 632:Drivers/CMSIS/Include/cmsis_gcc.h ****     uint32_t result;
 633:Drivers/CMSIS/Include/cmsis_gcc.h **** 
 634:Drivers/CMSIS/Include/cmsis_gcc.h **** #if (__GNUC__ > 4) || (__GNUC__ == 4 && __GNUC_MINOR__ >= 8)
 635:Drivers/CMSIS/Include/cmsis_gcc.h ****    __ASM volatile ("ldrht %0, %1" : "=r" (result) : "Q" (*ptr) );
 636:Drivers/CMSIS/Include/cmsis_gcc.h **** #else
 637:Drivers/CMSIS/Include/cmsis_gcc.h ****     /* Prior to GCC 4.8, "Q" will be expanded to [rx, #0] which is not
 638:Drivers/CMSIS/Include/cmsis_gcc.h ****        accepted by assembler. So has to use following less efficient pattern.
 639:Drivers/CMSIS/Include/cmsis_gcc.h ****     */
 640:Drivers/CMSIS/Include/cmsis_gcc.h ****    __ASM volatile ("ldrht %0, [%1]" : "=r" (result) : "r" (ptr) : "memory" );
 641:Drivers/CMSIS/Include/cmsis_gcc.h **** #endif
 642:Drivers/CMSIS/Include/cmsis_gcc.h ****    return ((uint16_t) result);    /* Add explicit type cast here */
 643:Drivers/CMSIS/Include/cmsis_gcc.h **** }
 644:Drivers/CMSIS/Include/cmsis_gcc.h **** 
 645:Drivers/CMSIS/Include/cmsis_gcc.h **** 
 646:Drivers/CMSIS/Include/cmsis_gcc.h **** /**
 647:Drivers/CMSIS/Include/cmsis_gcc.h ****   \brief   LDRT Unprivileged (32 bit)
 648:Drivers/CMSIS/Include/cmsis_gcc.h ****   \details Executes a Unprivileged LDRT instruction for 32 bit values.
 649:Drivers/CMSIS/Include/cmsis_gcc.h ****   \param [in]    ptr  Pointer to data
 650:Drivers/CMSIS/Include/cmsis_gcc.h ****   \return        value of type uint32_t at (*ptr)
 651:Drivers/CMSIS/Include/cmsis_gcc.h ****  */
 652:Drivers/CMSIS/Include/cmsis_gcc.h **** __STATIC_FORCEINLINE uint32_t __LDRT(volatile uint32_t *ptr)
 653:Drivers/CMSIS/Include/cmsis_gcc.h **** {
 654:Drivers/CMSIS/Include/cmsis_gcc.h ****     uint32_t result;
 655:Drivers/CMSIS/Include/cmsis_gcc.h **** 
 656:Drivers/CMSIS/Include/cmsis_gcc.h ****    __ASM volatile ("ldrt %0, %1" : "=r" (result) : "Q" (*ptr) );
 657:Drivers/CMSIS/Include/cmsis_gcc.h ****    return(result);
 658:Drivers/CMSIS/Include/cmsis_gcc.h **** }
 659:Drivers/CMSIS/Include/cmsis_gcc.h **** 
 660:Drivers/CMSIS/Include/cmsis_gcc.h **** 
 661:Drivers/CMSIS/Include/cmsis_gcc.h **** /**
 662:Drivers/CMSIS/Include/cmsis_gcc.h ****   \brief   STRT Unprivileged (8 bit)
 663:Drivers/CMSIS/Include/cmsis_gcc.h ****   \details Executes a Unprivileged STRT instruction for 8 bit values.
ARM GAS  C:\Users\kroko\AppData\Local\Temp\ccpAdhTr.s 			page 70


 664:Drivers/CMSIS/Include/cmsis_gcc.h ****   \param [in]  value  Value to store
 665:Drivers/CMSIS/Include/cmsis_gcc.h ****   \param [in]    ptr  Pointer to location
 666:Drivers/CMSIS/Include/cmsis_gcc.h ****  */
 667:Drivers/CMSIS/Include/cmsis_gcc.h **** __STATIC_FORCEINLINE void __STRBT(uint8_t value, volatile uint8_t *ptr)
 668:Drivers/CMSIS/Include/cmsis_gcc.h **** {
 669:Drivers/CMSIS/Include/cmsis_gcc.h ****    __ASM volatile ("strbt %1, %0" : "=Q" (*ptr) : "r" ((uint32_t)value) );
 670:Drivers/CMSIS/Include/cmsis_gcc.h **** }
 671:Drivers/CMSIS/Include/cmsis_gcc.h **** 
 672:Drivers/CMSIS/Include/cmsis_gcc.h **** 
 673:Drivers/CMSIS/Include/cmsis_gcc.h **** /**
 674:Drivers/CMSIS/Include/cmsis_gcc.h ****   \brief   STRT Unprivileged (16 bit)
 675:Drivers/CMSIS/Include/cmsis_gcc.h ****   \details Executes a Unprivileged STRT instruction for 16 bit values.
 676:Drivers/CMSIS/Include/cmsis_gcc.h ****   \param [in]  value  Value to store
 677:Drivers/CMSIS/Include/cmsis_gcc.h ****   \param [in]    ptr  Pointer to location
 678:Drivers/CMSIS/Include/cmsis_gcc.h ****  */
 679:Drivers/CMSIS/Include/cmsis_gcc.h **** __STATIC_FORCEINLINE void __STRHT(uint16_t value, volatile uint16_t *ptr)
 680:Drivers/CMSIS/Include/cmsis_gcc.h **** {
 681:Drivers/CMSIS/Include/cmsis_gcc.h ****    __ASM volatile ("strht %1, %0" : "=Q" (*ptr) : "r" ((uint32_t)value) );
 682:Drivers/CMSIS/Include/cmsis_gcc.h **** }
 683:Drivers/CMSIS/Include/cmsis_gcc.h **** 
 684:Drivers/CMSIS/Include/cmsis_gcc.h **** 
 685:Drivers/CMSIS/Include/cmsis_gcc.h **** /**
 686:Drivers/CMSIS/Include/cmsis_gcc.h ****   \brief   STRT Unprivileged (32 bit)
 687:Drivers/CMSIS/Include/cmsis_gcc.h ****   \details Executes a Unprivileged STRT instruction for 32 bit values.
 688:Drivers/CMSIS/Include/cmsis_gcc.h ****   \param [in]  value  Value to store
 689:Drivers/CMSIS/Include/cmsis_gcc.h ****   \param [in]    ptr  Pointer to location
 690:Drivers/CMSIS/Include/cmsis_gcc.h ****  */
 691:Drivers/CMSIS/Include/cmsis_gcc.h **** __STATIC_FORCEINLINE void __STRT(uint32_t value, volatile uint32_t *ptr)
 692:Drivers/CMSIS/Include/cmsis_gcc.h **** {
 693:Drivers/CMSIS/Include/cmsis_gcc.h ****    __ASM volatile ("strt %1, %0" : "=Q" (*ptr) : "r" (value) );
 694:Drivers/CMSIS/Include/cmsis_gcc.h **** }
 695:Drivers/CMSIS/Include/cmsis_gcc.h **** 
 696:Drivers/CMSIS/Include/cmsis_gcc.h **** #else  /* ((defined (__ARM_ARCH_7M__      ) && (__ARM_ARCH_7M__      == 1)) || \
 697:Drivers/CMSIS/Include/cmsis_gcc.h ****            (defined (__ARM_ARCH_7EM__     ) && (__ARM_ARCH_7EM__     == 1)) || \
 698:Drivers/CMSIS/Include/cmsis_gcc.h ****            (defined (__ARM_ARCH_8M_MAIN__ ) && (__ARM_ARCH_8M_MAIN__ == 1))    ) */
 699:Drivers/CMSIS/Include/cmsis_gcc.h **** 
 700:Drivers/CMSIS/Include/cmsis_gcc.h **** /**
 701:Drivers/CMSIS/Include/cmsis_gcc.h ****   \brief   Signed Saturate
 702:Drivers/CMSIS/Include/cmsis_gcc.h ****   \details Saturates a signed value.
 703:Drivers/CMSIS/Include/cmsis_gcc.h ****   \param [in]  value  Value to be saturated
 704:Drivers/CMSIS/Include/cmsis_gcc.h ****   \param [in]    sat  Bit position to saturate to (1..32)
 705:Drivers/CMSIS/Include/cmsis_gcc.h ****   \return             Saturated value
 706:Drivers/CMSIS/Include/cmsis_gcc.h ****  */
 707:Drivers/CMSIS/Include/cmsis_gcc.h **** __STATIC_FORCEINLINE int32_t __SSAT(int32_t val, uint32_t sat)
 708:Drivers/CMSIS/Include/cmsis_gcc.h **** {
 709:Drivers/CMSIS/Include/cmsis_gcc.h ****   if ((sat >= 1U) && (sat <= 32U))
 710:Drivers/CMSIS/Include/cmsis_gcc.h ****   {
 711:Drivers/CMSIS/Include/cmsis_gcc.h ****     const int32_t max = (int32_t)((1U << (sat - 1U)) - 1U);
 712:Drivers/CMSIS/Include/cmsis_gcc.h ****     const int32_t min = -1 - max ;
 713:Drivers/CMSIS/Include/cmsis_gcc.h ****     if (val > max)
 714:Drivers/CMSIS/Include/cmsis_gcc.h ****     {
 715:Drivers/CMSIS/Include/cmsis_gcc.h ****       return max;
 716:Drivers/CMSIS/Include/cmsis_gcc.h ****     }
 717:Drivers/CMSIS/Include/cmsis_gcc.h ****     else if (val < min)
 718:Drivers/CMSIS/Include/cmsis_gcc.h ****     {
 719:Drivers/CMSIS/Include/cmsis_gcc.h ****       return min;
 720:Drivers/CMSIS/Include/cmsis_gcc.h ****     }
ARM GAS  C:\Users\kroko\AppData\Local\Temp\ccpAdhTr.s 			page 71


 721:Drivers/CMSIS/Include/cmsis_gcc.h ****   }
 722:Drivers/CMSIS/Include/cmsis_gcc.h ****   return val;
 723:Drivers/CMSIS/Include/cmsis_gcc.h **** }
 724:Drivers/CMSIS/Include/cmsis_gcc.h **** 
 725:Drivers/CMSIS/Include/cmsis_gcc.h **** /**
 726:Drivers/CMSIS/Include/cmsis_gcc.h ****   \brief   Unsigned Saturate
 727:Drivers/CMSIS/Include/cmsis_gcc.h ****   \details Saturates an unsigned value.
 728:Drivers/CMSIS/Include/cmsis_gcc.h ****   \param [in]  value  Value to be saturated
 729:Drivers/CMSIS/Include/cmsis_gcc.h ****   \param [in]    sat  Bit position to saturate to (0..31)
 730:Drivers/CMSIS/Include/cmsis_gcc.h ****   \return             Saturated value
 731:Drivers/CMSIS/Include/cmsis_gcc.h ****  */
 732:Drivers/CMSIS/Include/cmsis_gcc.h **** __STATIC_FORCEINLINE uint32_t __USAT(int32_t val, uint32_t sat)
 733:Drivers/CMSIS/Include/cmsis_gcc.h **** {
 734:Drivers/CMSIS/Include/cmsis_gcc.h ****   if (sat <= 31U)
 735:Drivers/CMSIS/Include/cmsis_gcc.h ****   {
 736:Drivers/CMSIS/Include/cmsis_gcc.h ****     const uint32_t max = ((1U << sat) - 1U);
 737:Drivers/CMSIS/Include/cmsis_gcc.h ****     if (val > (int32_t)max)
 738:Drivers/CMSIS/Include/cmsis_gcc.h ****     {
 739:Drivers/CMSIS/Include/cmsis_gcc.h ****       return max;
 740:Drivers/CMSIS/Include/cmsis_gcc.h ****     }
 741:Drivers/CMSIS/Include/cmsis_gcc.h ****     else if (val < 0)
 742:Drivers/CMSIS/Include/cmsis_gcc.h ****     {
 743:Drivers/CMSIS/Include/cmsis_gcc.h ****       return 0U;
 744:Drivers/CMSIS/Include/cmsis_gcc.h ****     }
 745:Drivers/CMSIS/Include/cmsis_gcc.h ****   }
 746:Drivers/CMSIS/Include/cmsis_gcc.h ****   return (uint32_t)val;
 747:Drivers/CMSIS/Include/cmsis_gcc.h **** }
 748:Drivers/CMSIS/Include/cmsis_gcc.h **** 
 749:Drivers/CMSIS/Include/cmsis_gcc.h **** #endif /* ((defined (__ARM_ARCH_7M__      ) && (__ARM_ARCH_7M__      == 1)) || \
 750:Drivers/CMSIS/Include/cmsis_gcc.h ****            (defined (__ARM_ARCH_7EM__     ) && (__ARM_ARCH_7EM__     == 1)) || \
 751:Drivers/CMSIS/Include/cmsis_gcc.h ****            (defined (__ARM_ARCH_8M_MAIN__ ) && (__ARM_ARCH_8M_MAIN__ == 1))    ) */
 752:Drivers/CMSIS/Include/cmsis_gcc.h **** 
 753:Drivers/CMSIS/Include/cmsis_gcc.h **** 
 754:Drivers/CMSIS/Include/cmsis_gcc.h **** #if ((defined (__ARM_ARCH_8M_MAIN__ ) && (__ARM_ARCH_8M_MAIN__ == 1)) || \
 755:Drivers/CMSIS/Include/cmsis_gcc.h ****      (defined (__ARM_ARCH_8M_BASE__ ) && (__ARM_ARCH_8M_BASE__ == 1))    )
 756:Drivers/CMSIS/Include/cmsis_gcc.h **** /**
 757:Drivers/CMSIS/Include/cmsis_gcc.h ****   \brief   Load-Acquire (8 bit)
 758:Drivers/CMSIS/Include/cmsis_gcc.h ****   \details Executes a LDAB instruction for 8 bit value.
 759:Drivers/CMSIS/Include/cmsis_gcc.h ****   \param [in]    ptr  Pointer to data
 760:Drivers/CMSIS/Include/cmsis_gcc.h ****   \return             value of type uint8_t at (*ptr)
 761:Drivers/CMSIS/Include/cmsis_gcc.h ****  */
 762:Drivers/CMSIS/Include/cmsis_gcc.h **** __STATIC_FORCEINLINE uint8_t __LDAB(volatile uint8_t *ptr)
 763:Drivers/CMSIS/Include/cmsis_gcc.h **** {
 764:Drivers/CMSIS/Include/cmsis_gcc.h ****     uint32_t result;
 765:Drivers/CMSIS/Include/cmsis_gcc.h **** 
 766:Drivers/CMSIS/Include/cmsis_gcc.h ****    __ASM volatile ("ldab %0, %1" : "=r" (result) : "Q" (*ptr) : "memory" );
 767:Drivers/CMSIS/Include/cmsis_gcc.h ****    return ((uint8_t) result);
 768:Drivers/CMSIS/Include/cmsis_gcc.h **** }
 769:Drivers/CMSIS/Include/cmsis_gcc.h **** 
 770:Drivers/CMSIS/Include/cmsis_gcc.h **** 
 771:Drivers/CMSIS/Include/cmsis_gcc.h **** /**
 772:Drivers/CMSIS/Include/cmsis_gcc.h ****   \brief   Load-Acquire (16 bit)
 773:Drivers/CMSIS/Include/cmsis_gcc.h ****   \details Executes a LDAH instruction for 16 bit values.
 774:Drivers/CMSIS/Include/cmsis_gcc.h ****   \param [in]    ptr  Pointer to data
 775:Drivers/CMSIS/Include/cmsis_gcc.h ****   \return        value of type uint16_t at (*ptr)
 776:Drivers/CMSIS/Include/cmsis_gcc.h ****  */
 777:Drivers/CMSIS/Include/cmsis_gcc.h **** __STATIC_FORCEINLINE uint16_t __LDAH(volatile uint16_t *ptr)
ARM GAS  C:\Users\kroko\AppData\Local\Temp\ccpAdhTr.s 			page 72


 778:Drivers/CMSIS/Include/cmsis_gcc.h **** {
 779:Drivers/CMSIS/Include/cmsis_gcc.h ****     uint32_t result;
 780:Drivers/CMSIS/Include/cmsis_gcc.h **** 
 781:Drivers/CMSIS/Include/cmsis_gcc.h ****    __ASM volatile ("ldah %0, %1" : "=r" (result) : "Q" (*ptr) : "memory" );
 782:Drivers/CMSIS/Include/cmsis_gcc.h ****    return ((uint16_t) result);
 783:Drivers/CMSIS/Include/cmsis_gcc.h **** }
 784:Drivers/CMSIS/Include/cmsis_gcc.h **** 
 785:Drivers/CMSIS/Include/cmsis_gcc.h **** 
 786:Drivers/CMSIS/Include/cmsis_gcc.h **** /**
 787:Drivers/CMSIS/Include/cmsis_gcc.h ****   \brief   Load-Acquire (32 bit)
 788:Drivers/CMSIS/Include/cmsis_gcc.h ****   \details Executes a LDA instruction for 32 bit values.
 789:Drivers/CMSIS/Include/cmsis_gcc.h ****   \param [in]    ptr  Pointer to data
 790:Drivers/CMSIS/Include/cmsis_gcc.h ****   \return        value of type uint32_t at (*ptr)
 791:Drivers/CMSIS/Include/cmsis_gcc.h ****  */
 792:Drivers/CMSIS/Include/cmsis_gcc.h **** __STATIC_FORCEINLINE uint32_t __LDA(volatile uint32_t *ptr)
 793:Drivers/CMSIS/Include/cmsis_gcc.h **** {
 794:Drivers/CMSIS/Include/cmsis_gcc.h ****     uint32_t result;
 795:Drivers/CMSIS/Include/cmsis_gcc.h **** 
 796:Drivers/CMSIS/Include/cmsis_gcc.h ****    __ASM volatile ("lda %0, %1" : "=r" (result) : "Q" (*ptr) : "memory" );
 797:Drivers/CMSIS/Include/cmsis_gcc.h ****    return(result);
 798:Drivers/CMSIS/Include/cmsis_gcc.h **** }
 799:Drivers/CMSIS/Include/cmsis_gcc.h **** 
 800:Drivers/CMSIS/Include/cmsis_gcc.h **** 
 801:Drivers/CMSIS/Include/cmsis_gcc.h **** /**
 802:Drivers/CMSIS/Include/cmsis_gcc.h ****   \brief   Store-Release (8 bit)
 803:Drivers/CMSIS/Include/cmsis_gcc.h ****   \details Executes a STLB instruction for 8 bit values.
 804:Drivers/CMSIS/Include/cmsis_gcc.h ****   \param [in]  value  Value to store
 805:Drivers/CMSIS/Include/cmsis_gcc.h ****   \param [in]    ptr  Pointer to location
 806:Drivers/CMSIS/Include/cmsis_gcc.h ****  */
 807:Drivers/CMSIS/Include/cmsis_gcc.h **** __STATIC_FORCEINLINE void __STLB(uint8_t value, volatile uint8_t *ptr)
 808:Drivers/CMSIS/Include/cmsis_gcc.h **** {
 809:Drivers/CMSIS/Include/cmsis_gcc.h ****    __ASM volatile ("stlb %1, %0" : "=Q" (*ptr) : "r" ((uint32_t)value) : "memory" );
 810:Drivers/CMSIS/Include/cmsis_gcc.h **** }
 811:Drivers/CMSIS/Include/cmsis_gcc.h **** 
 812:Drivers/CMSIS/Include/cmsis_gcc.h **** 
 813:Drivers/CMSIS/Include/cmsis_gcc.h **** /**
 814:Drivers/CMSIS/Include/cmsis_gcc.h ****   \brief   Store-Release (16 bit)
 815:Drivers/CMSIS/Include/cmsis_gcc.h ****   \details Executes a STLH instruction for 16 bit values.
 816:Drivers/CMSIS/Include/cmsis_gcc.h ****   \param [in]  value  Value to store
 817:Drivers/CMSIS/Include/cmsis_gcc.h ****   \param [in]    ptr  Pointer to location
 818:Drivers/CMSIS/Include/cmsis_gcc.h ****  */
 819:Drivers/CMSIS/Include/cmsis_gcc.h **** __STATIC_FORCEINLINE void __STLH(uint16_t value, volatile uint16_t *ptr)
 820:Drivers/CMSIS/Include/cmsis_gcc.h **** {
 821:Drivers/CMSIS/Include/cmsis_gcc.h ****    __ASM volatile ("stlh %1, %0" : "=Q" (*ptr) : "r" ((uint32_t)value) : "memory" );
 822:Drivers/CMSIS/Include/cmsis_gcc.h **** }
 823:Drivers/CMSIS/Include/cmsis_gcc.h **** 
 824:Drivers/CMSIS/Include/cmsis_gcc.h **** 
 825:Drivers/CMSIS/Include/cmsis_gcc.h **** /**
 826:Drivers/CMSIS/Include/cmsis_gcc.h ****   \brief   Store-Release (32 bit)
 827:Drivers/CMSIS/Include/cmsis_gcc.h ****   \details Executes a STL instruction for 32 bit values.
 828:Drivers/CMSIS/Include/cmsis_gcc.h ****   \param [in]  value  Value to store
 829:Drivers/CMSIS/Include/cmsis_gcc.h ****   \param [in]    ptr  Pointer to location
 830:Drivers/CMSIS/Include/cmsis_gcc.h ****  */
 831:Drivers/CMSIS/Include/cmsis_gcc.h **** __STATIC_FORCEINLINE void __STL(uint32_t value, volatile uint32_t *ptr)
 832:Drivers/CMSIS/Include/cmsis_gcc.h **** {
 833:Drivers/CMSIS/Include/cmsis_gcc.h ****    __ASM volatile ("stl %1, %0" : "=Q" (*ptr) : "r" ((uint32_t)value) : "memory" );
 834:Drivers/CMSIS/Include/cmsis_gcc.h **** }
ARM GAS  C:\Users\kroko\AppData\Local\Temp\ccpAdhTr.s 			page 73


 835:Drivers/CMSIS/Include/cmsis_gcc.h **** 
 836:Drivers/CMSIS/Include/cmsis_gcc.h **** 
 837:Drivers/CMSIS/Include/cmsis_gcc.h **** /**
 838:Drivers/CMSIS/Include/cmsis_gcc.h ****   \brief   Load-Acquire Exclusive (8 bit)
 839:Drivers/CMSIS/Include/cmsis_gcc.h ****   \details Executes a LDAB exclusive instruction for 8 bit value.
 840:Drivers/CMSIS/Include/cmsis_gcc.h ****   \param [in]    ptr  Pointer to data
 841:Drivers/CMSIS/Include/cmsis_gcc.h ****   \return             value of type uint8_t at (*ptr)
 842:Drivers/CMSIS/Include/cmsis_gcc.h ****  */
 843:Drivers/CMSIS/Include/cmsis_gcc.h **** __STATIC_FORCEINLINE uint8_t __LDAEXB(volatile uint8_t *ptr)
 844:Drivers/CMSIS/Include/cmsis_gcc.h **** {
 845:Drivers/CMSIS/Include/cmsis_gcc.h ****     uint32_t result;
 846:Drivers/CMSIS/Include/cmsis_gcc.h **** 
 847:Drivers/CMSIS/Include/cmsis_gcc.h ****    __ASM volatile ("ldaexb %0, %1" : "=r" (result) : "Q" (*ptr) : "memory" );
 848:Drivers/CMSIS/Include/cmsis_gcc.h ****    return ((uint8_t) result);
 849:Drivers/CMSIS/Include/cmsis_gcc.h **** }
 850:Drivers/CMSIS/Include/cmsis_gcc.h **** 
 851:Drivers/CMSIS/Include/cmsis_gcc.h **** 
 852:Drivers/CMSIS/Include/cmsis_gcc.h **** /**
 853:Drivers/CMSIS/Include/cmsis_gcc.h ****   \brief   Load-Acquire Exclusive (16 bit)
 854:Drivers/CMSIS/Include/cmsis_gcc.h ****   \details Executes a LDAH exclusive instruction for 16 bit values.
 855:Drivers/CMSIS/Include/cmsis_gcc.h ****   \param [in]    ptr  Pointer to data
 856:Drivers/CMSIS/Include/cmsis_gcc.h ****   \return        value of type uint16_t at (*ptr)
 857:Drivers/CMSIS/Include/cmsis_gcc.h ****  */
 858:Drivers/CMSIS/Include/cmsis_gcc.h **** __STATIC_FORCEINLINE uint16_t __LDAEXH(volatile uint16_t *ptr)
 859:Drivers/CMSIS/Include/cmsis_gcc.h **** {
 860:Drivers/CMSIS/Include/cmsis_gcc.h ****     uint32_t result;
 861:Drivers/CMSIS/Include/cmsis_gcc.h **** 
 862:Drivers/CMSIS/Include/cmsis_gcc.h ****    __ASM volatile ("ldaexh %0, %1" : "=r" (result) : "Q" (*ptr) : "memory" );
 863:Drivers/CMSIS/Include/cmsis_gcc.h ****    return ((uint16_t) result);
 864:Drivers/CMSIS/Include/cmsis_gcc.h **** }
 865:Drivers/CMSIS/Include/cmsis_gcc.h **** 
 866:Drivers/CMSIS/Include/cmsis_gcc.h **** 
 867:Drivers/CMSIS/Include/cmsis_gcc.h **** /**
 868:Drivers/CMSIS/Include/cmsis_gcc.h ****   \brief   Load-Acquire Exclusive (32 bit)
 869:Drivers/CMSIS/Include/cmsis_gcc.h ****   \details Executes a LDA exclusive instruction for 32 bit values.
 870:Drivers/CMSIS/Include/cmsis_gcc.h ****   \param [in]    ptr  Pointer to data
 871:Drivers/CMSIS/Include/cmsis_gcc.h ****   \return        value of type uint32_t at (*ptr)
 872:Drivers/CMSIS/Include/cmsis_gcc.h ****  */
 873:Drivers/CMSIS/Include/cmsis_gcc.h **** __STATIC_FORCEINLINE uint32_t __LDAEX(volatile uint32_t *ptr)
 874:Drivers/CMSIS/Include/cmsis_gcc.h **** {
 875:Drivers/CMSIS/Include/cmsis_gcc.h ****     uint32_t result;
 876:Drivers/CMSIS/Include/cmsis_gcc.h **** 
 877:Drivers/CMSIS/Include/cmsis_gcc.h ****    __ASM volatile ("ldaex %0, %1" : "=r" (result) : "Q" (*ptr) : "memory" );
 878:Drivers/CMSIS/Include/cmsis_gcc.h ****    return(result);
 879:Drivers/CMSIS/Include/cmsis_gcc.h **** }
 880:Drivers/CMSIS/Include/cmsis_gcc.h **** 
 881:Drivers/CMSIS/Include/cmsis_gcc.h **** 
 882:Drivers/CMSIS/Include/cmsis_gcc.h **** /**
 883:Drivers/CMSIS/Include/cmsis_gcc.h ****   \brief   Store-Release Exclusive (8 bit)
 884:Drivers/CMSIS/Include/cmsis_gcc.h ****   \details Executes a STLB exclusive instruction for 8 bit values.
 885:Drivers/CMSIS/Include/cmsis_gcc.h ****   \param [in]  value  Value to store
 886:Drivers/CMSIS/Include/cmsis_gcc.h ****   \param [in]    ptr  Pointer to location
 887:Drivers/CMSIS/Include/cmsis_gcc.h ****   \return          0  Function succeeded
 888:Drivers/CMSIS/Include/cmsis_gcc.h ****   \return          1  Function failed
 889:Drivers/CMSIS/Include/cmsis_gcc.h ****  */
 890:Drivers/CMSIS/Include/cmsis_gcc.h **** __STATIC_FORCEINLINE uint32_t __STLEXB(uint8_t value, volatile uint8_t *ptr)
 891:Drivers/CMSIS/Include/cmsis_gcc.h **** {
ARM GAS  C:\Users\kroko\AppData\Local\Temp\ccpAdhTr.s 			page 74


 892:Drivers/CMSIS/Include/cmsis_gcc.h ****    uint32_t result;
 893:Drivers/CMSIS/Include/cmsis_gcc.h **** 
 894:Drivers/CMSIS/Include/cmsis_gcc.h ****    __ASM volatile ("stlexb %0, %2, %1" : "=&r" (result), "=Q" (*ptr) : "r" ((uint32_t)value) : "mem
 895:Drivers/CMSIS/Include/cmsis_gcc.h ****    return(result);
 896:Drivers/CMSIS/Include/cmsis_gcc.h **** }
 897:Drivers/CMSIS/Include/cmsis_gcc.h **** 
 898:Drivers/CMSIS/Include/cmsis_gcc.h **** 
 899:Drivers/CMSIS/Include/cmsis_gcc.h **** /**
 900:Drivers/CMSIS/Include/cmsis_gcc.h ****   \brief   Store-Release Exclusive (16 bit)
 901:Drivers/CMSIS/Include/cmsis_gcc.h ****   \details Executes a STLH exclusive instruction for 16 bit values.
 902:Drivers/CMSIS/Include/cmsis_gcc.h ****   \param [in]  value  Value to store
 903:Drivers/CMSIS/Include/cmsis_gcc.h ****   \param [in]    ptr  Pointer to location
 904:Drivers/CMSIS/Include/cmsis_gcc.h ****   \return          0  Function succeeded
 905:Drivers/CMSIS/Include/cmsis_gcc.h ****   \return          1  Function failed
 906:Drivers/CMSIS/Include/cmsis_gcc.h ****  */
 907:Drivers/CMSIS/Include/cmsis_gcc.h **** __STATIC_FORCEINLINE uint32_t __STLEXH(uint16_t value, volatile uint16_t *ptr)
 908:Drivers/CMSIS/Include/cmsis_gcc.h **** {
 909:Drivers/CMSIS/Include/cmsis_gcc.h ****    uint32_t result;
 910:Drivers/CMSIS/Include/cmsis_gcc.h **** 
 911:Drivers/CMSIS/Include/cmsis_gcc.h ****    __ASM volatile ("stlexh %0, %2, %1" : "=&r" (result), "=Q" (*ptr) : "r" ((uint32_t)value) : "mem
 912:Drivers/CMSIS/Include/cmsis_gcc.h ****    return(result);
 913:Drivers/CMSIS/Include/cmsis_gcc.h **** }
 914:Drivers/CMSIS/Include/cmsis_gcc.h **** 
 915:Drivers/CMSIS/Include/cmsis_gcc.h **** 
 916:Drivers/CMSIS/Include/cmsis_gcc.h **** /**
 917:Drivers/CMSIS/Include/cmsis_gcc.h ****   \brief   Store-Release Exclusive (32 bit)
 918:Drivers/CMSIS/Include/cmsis_gcc.h ****   \details Executes a STL exclusive instruction for 32 bit values.
 919:Drivers/CMSIS/Include/cmsis_gcc.h ****   \param [in]  value  Value to store
 920:Drivers/CMSIS/Include/cmsis_gcc.h ****   \param [in]    ptr  Pointer to location
 921:Drivers/CMSIS/Include/cmsis_gcc.h ****   \return          0  Function succeeded
 922:Drivers/CMSIS/Include/cmsis_gcc.h ****   \return          1  Function failed
 923:Drivers/CMSIS/Include/cmsis_gcc.h ****  */
 924:Drivers/CMSIS/Include/cmsis_gcc.h **** __STATIC_FORCEINLINE uint32_t __STLEX(uint32_t value, volatile uint32_t *ptr)
 925:Drivers/CMSIS/Include/cmsis_gcc.h **** {
 926:Drivers/CMSIS/Include/cmsis_gcc.h ****    uint32_t result;
 927:Drivers/CMSIS/Include/cmsis_gcc.h **** 
 928:Drivers/CMSIS/Include/cmsis_gcc.h ****    __ASM volatile ("stlex %0, %2, %1" : "=&r" (result), "=Q" (*ptr) : "r" ((uint32_t)value) : "memo
 929:Drivers/CMSIS/Include/cmsis_gcc.h ****    return(result);
 930:Drivers/CMSIS/Include/cmsis_gcc.h **** }
 931:Drivers/CMSIS/Include/cmsis_gcc.h **** 
 932:Drivers/CMSIS/Include/cmsis_gcc.h **** #endif /* ((defined (__ARM_ARCH_8M_MAIN__ ) && (__ARM_ARCH_8M_MAIN__ == 1)) || \
 933:Drivers/CMSIS/Include/cmsis_gcc.h ****            (defined (__ARM_ARCH_8M_BASE__ ) && (__ARM_ARCH_8M_BASE__ == 1))    ) */
 934:Drivers/CMSIS/Include/cmsis_gcc.h **** 
 935:Drivers/CMSIS/Include/cmsis_gcc.h **** /*@}*/ /* end of group CMSIS_Core_InstructionInterface */
 936:Drivers/CMSIS/Include/cmsis_gcc.h **** 
 937:Drivers/CMSIS/Include/cmsis_gcc.h **** 
 938:Drivers/CMSIS/Include/cmsis_gcc.h **** /* ###########################  Core Function Access  ########################### */
 939:Drivers/CMSIS/Include/cmsis_gcc.h **** /** \ingroup  CMSIS_Core_FunctionInterface
 940:Drivers/CMSIS/Include/cmsis_gcc.h ****     \defgroup CMSIS_Core_RegAccFunctions CMSIS Core Register Access Functions
 941:Drivers/CMSIS/Include/cmsis_gcc.h ****   @{
 942:Drivers/CMSIS/Include/cmsis_gcc.h ****  */
 943:Drivers/CMSIS/Include/cmsis_gcc.h **** 
 944:Drivers/CMSIS/Include/cmsis_gcc.h **** /**
 945:Drivers/CMSIS/Include/cmsis_gcc.h ****   \brief   Enable IRQ Interrupts
 946:Drivers/CMSIS/Include/cmsis_gcc.h ****   \details Enables IRQ interrupts by clearing special-purpose register PRIMASK.
 947:Drivers/CMSIS/Include/cmsis_gcc.h ****            Can only be executed in Privileged modes.
 948:Drivers/CMSIS/Include/cmsis_gcc.h ****  */
ARM GAS  C:\Users\kroko\AppData\Local\Temp\ccpAdhTr.s 			page 75


 949:Drivers/CMSIS/Include/cmsis_gcc.h **** __STATIC_FORCEINLINE void __enable_irq(void)
 950:Drivers/CMSIS/Include/cmsis_gcc.h **** {
 951:Drivers/CMSIS/Include/cmsis_gcc.h ****   __ASM volatile ("cpsie i" : : : "memory");
 952:Drivers/CMSIS/Include/cmsis_gcc.h **** }
 953:Drivers/CMSIS/Include/cmsis_gcc.h **** 
 954:Drivers/CMSIS/Include/cmsis_gcc.h **** 
 955:Drivers/CMSIS/Include/cmsis_gcc.h **** /**
 956:Drivers/CMSIS/Include/cmsis_gcc.h ****   \brief   Disable IRQ Interrupts
 957:Drivers/CMSIS/Include/cmsis_gcc.h ****   \details Disables IRQ interrupts by setting special-purpose register PRIMASK.
 958:Drivers/CMSIS/Include/cmsis_gcc.h ****            Can only be executed in Privileged modes.
 959:Drivers/CMSIS/Include/cmsis_gcc.h ****  */
 960:Drivers/CMSIS/Include/cmsis_gcc.h **** __STATIC_FORCEINLINE void __disable_irq(void)
 1586              		.loc 2 960 27 view .LVU372
 1587              	.LBB17:
 961:Drivers/CMSIS/Include/cmsis_gcc.h **** {
 962:Drivers/CMSIS/Include/cmsis_gcc.h ****   __ASM volatile ("cpsid i" : : : "memory");
 1588              		.loc 2 962 3 view .LVU373
 1589              		.syntax unified
 1590              	@ 962 "Drivers/CMSIS/Include/cmsis_gcc.h" 1
 1591 0002 72B6     		cpsid i
 1592              	@ 0 "" 2
 1593              		.thumb
 1594              		.syntax unified
 1595              	.LBE17:
 1596              	.LBE16:
1518:Core/Src/main.c ****   HAL_NVIC_SystemReset();
 1597              		.loc 1 1518 3 view .LVU374
 1598 0004 FFF7FEFF 		bl	HAL_NVIC_SystemReset
 1599              	.LVL112:
1519:Core/Src/main.c ****   //while (1){}
1520:Core/Src/main.c ****   /* USER CODE END Error_Handler_Debug */
1521:Core/Src/main.c **** }
 1600              		.loc 1 1521 1 is_stmt 0 view .LVU375
 1601 0008 08BD     		pop	{r3, pc}
 1602              		.cfi_endproc
 1603              	.LFE165:
 1605              		.section	.text.MX_SPI1_Init,"ax",%progbits
 1606              		.align	1
 1607              		.syntax unified
 1608              		.thumb
 1609              		.thumb_func
 1611              	MX_SPI1_Init:
 1612              	.LFB142:
 761:Core/Src/main.c **** 
 1613              		.loc 1 761 1 is_stmt 1 view -0
 1614              		.cfi_startproc
 1615              		@ args = 0, pretend = 0, frame = 0
 1616              		@ frame_needed = 0, uses_anonymous_args = 0
 1617 0000 08B5     		push	{r3, lr}
 1618              		.cfi_def_cfa_offset 8
 1619              		.cfi_offset 3, -8
 1620              		.cfi_offset 14, -4
 771:Core/Src/main.c ****   hspi1.Init.Mode = SPI_MODE_MASTER;
 1621              		.loc 1 771 3 view .LVU377
 771:Core/Src/main.c ****   hspi1.Init.Mode = SPI_MODE_MASTER;
 1622              		.loc 1 771 18 is_stmt 0 view .LVU378
 1623 0002 0E48     		ldr	r0, .L109
ARM GAS  C:\Users\kroko\AppData\Local\Temp\ccpAdhTr.s 			page 76


 1624 0004 0E4B     		ldr	r3, .L109+4
 1625 0006 0360     		str	r3, [r0]
 772:Core/Src/main.c ****   hspi1.Init.Direction = SPI_DIRECTION_1LINE;
 1626              		.loc 1 772 3 is_stmt 1 view .LVU379
 772:Core/Src/main.c ****   hspi1.Init.Direction = SPI_DIRECTION_1LINE;
 1627              		.loc 1 772 19 is_stmt 0 view .LVU380
 1628 0008 4FF48273 		mov	r3, #260
 1629 000c 4360     		str	r3, [r0, #4]
 773:Core/Src/main.c ****   hspi1.Init.DataSize = SPI_DATASIZE_8BIT;
 1630              		.loc 1 773 3 is_stmt 1 view .LVU381
 773:Core/Src/main.c ****   hspi1.Init.DataSize = SPI_DATASIZE_8BIT;
 1631              		.loc 1 773 24 is_stmt 0 view .LVU382
 1632 000e 4FF40043 		mov	r3, #32768
 1633 0012 8360     		str	r3, [r0, #8]
 774:Core/Src/main.c ****   hspi1.Init.CLKPolarity = SPI_POLARITY_LOW;
 1634              		.loc 1 774 3 is_stmt 1 view .LVU383
 774:Core/Src/main.c ****   hspi1.Init.CLKPolarity = SPI_POLARITY_LOW;
 1635              		.loc 1 774 23 is_stmt 0 view .LVU384
 1636 0014 0023     		movs	r3, #0
 1637 0016 C360     		str	r3, [r0, #12]
 775:Core/Src/main.c ****   hspi1.Init.CLKPhase = SPI_PHASE_1EDGE;
 1638              		.loc 1 775 3 is_stmt 1 view .LVU385
 775:Core/Src/main.c ****   hspi1.Init.CLKPhase = SPI_PHASE_1EDGE;
 1639              		.loc 1 775 26 is_stmt 0 view .LVU386
 1640 0018 0361     		str	r3, [r0, #16]
 776:Core/Src/main.c ****   hspi1.Init.NSS = SPI_NSS_HARD_OUTPUT;
 1641              		.loc 1 776 3 is_stmt 1 view .LVU387
 776:Core/Src/main.c ****   hspi1.Init.NSS = SPI_NSS_HARD_OUTPUT;
 1642              		.loc 1 776 23 is_stmt 0 view .LVU388
 1643 001a 4361     		str	r3, [r0, #20]
 777:Core/Src/main.c ****   hspi1.Init.BaudRatePrescaler = SPI_BAUDRATEPRESCALER_2;
 1644              		.loc 1 777 3 is_stmt 1 view .LVU389
 777:Core/Src/main.c ****   hspi1.Init.BaudRatePrescaler = SPI_BAUDRATEPRESCALER_2;
 1645              		.loc 1 777 18 is_stmt 0 view .LVU390
 1646 001c 4FF48022 		mov	r2, #262144
 1647 0020 8261     		str	r2, [r0, #24]
 778:Core/Src/main.c ****   hspi1.Init.FirstBit = SPI_FIRSTBIT_MSB;
 1648              		.loc 1 778 3 is_stmt 1 view .LVU391
 778:Core/Src/main.c ****   hspi1.Init.FirstBit = SPI_FIRSTBIT_MSB;
 1649              		.loc 1 778 32 is_stmt 0 view .LVU392
 1650 0022 C361     		str	r3, [r0, #28]
 779:Core/Src/main.c ****   hspi1.Init.TIMode = SPI_TIMODE_DISABLE;
 1651              		.loc 1 779 3 is_stmt 1 view .LVU393
 779:Core/Src/main.c ****   hspi1.Init.TIMode = SPI_TIMODE_DISABLE;
 1652              		.loc 1 779 23 is_stmt 0 view .LVU394
 1653 0024 0362     		str	r3, [r0, #32]
 780:Core/Src/main.c ****   hspi1.Init.CRCCalculation = SPI_CRCCALCULATION_DISABLE;
 1654              		.loc 1 780 3 is_stmt 1 view .LVU395
 780:Core/Src/main.c ****   hspi1.Init.CRCCalculation = SPI_CRCCALCULATION_DISABLE;
 1655              		.loc 1 780 21 is_stmt 0 view .LVU396
 1656 0026 4362     		str	r3, [r0, #36]
 781:Core/Src/main.c ****   hspi1.Init.CRCPolynomial = 10;
 1657              		.loc 1 781 3 is_stmt 1 view .LVU397
 781:Core/Src/main.c ****   hspi1.Init.CRCPolynomial = 10;
 1658              		.loc 1 781 29 is_stmt 0 view .LVU398
 1659 0028 8362     		str	r3, [r0, #40]
 782:Core/Src/main.c ****   if (HAL_SPI_Init(&hspi1) != HAL_OK)
ARM GAS  C:\Users\kroko\AppData\Local\Temp\ccpAdhTr.s 			page 77


 1660              		.loc 1 782 3 is_stmt 1 view .LVU399
 782:Core/Src/main.c ****   if (HAL_SPI_Init(&hspi1) != HAL_OK)
 1661              		.loc 1 782 28 is_stmt 0 view .LVU400
 1662 002a 0A23     		movs	r3, #10
 1663 002c C362     		str	r3, [r0, #44]
 783:Core/Src/main.c ****   {
 1664              		.loc 1 783 3 is_stmt 1 view .LVU401
 783:Core/Src/main.c ****   {
 1665              		.loc 1 783 7 is_stmt 0 view .LVU402
 1666 002e FFF7FEFF 		bl	HAL_SPI_Init
 1667              	.LVL113:
 783:Core/Src/main.c ****   {
 1668              		.loc 1 783 6 discriminator 1 view .LVU403
 1669 0032 00B9     		cbnz	r0, .L108
 1670              	.L105:
 791:Core/Src/main.c **** 
 1671              		.loc 1 791 1 view .LVU404
 1672 0034 08BD     		pop	{r3, pc}
 1673              	.L108:
 785:Core/Src/main.c ****   }
 1674              		.loc 1 785 5 is_stmt 1 view .LVU405
 1675 0036 FFF7FEFF 		bl	Error_Handler
 1676              	.LVL114:
 791:Core/Src/main.c **** 
 1677              		.loc 1 791 1 is_stmt 0 view .LVU406
 1678 003a FBE7     		b	.L105
 1679              	.L110:
 1680              		.align	2
 1681              	.L109:
 1682 003c 00000000 		.word	hspi1
 1683 0040 00300140 		.word	1073819648
 1684              		.cfi_endproc
 1685              	.LFE142:
 1687              		.section	.text.MX_UART5_Init,"ax",%progbits
 1688              		.align	1
 1689              		.syntax unified
 1690              		.thumb
 1691              		.thumb_func
 1693              	MX_UART5_Init:
 1694              	.LFB145:
 870:Core/Src/main.c **** 
 1695              		.loc 1 870 1 is_stmt 1 view -0
 1696              		.cfi_startproc
 1697              		@ args = 0, pretend = 0, frame = 0
 1698              		@ frame_needed = 0, uses_anonymous_args = 0
 1699 0000 08B5     		push	{r3, lr}
 1700              		.cfi_def_cfa_offset 8
 1701              		.cfi_offset 3, -8
 1702              		.cfi_offset 14, -4
 879:Core/Src/main.c ****   huart5.Init.BaudRate = 115200;
 1703              		.loc 1 879 3 view .LVU408
 879:Core/Src/main.c ****   huart5.Init.BaudRate = 115200;
 1704              		.loc 1 879 19 is_stmt 0 view .LVU409
 1705 0002 0A48     		ldr	r0, .L115
 1706 0004 0A4B     		ldr	r3, .L115+4
 1707 0006 0360     		str	r3, [r0]
 880:Core/Src/main.c ****   huart5.Init.WordLength = UART_WORDLENGTH_8B;
ARM GAS  C:\Users\kroko\AppData\Local\Temp\ccpAdhTr.s 			page 78


 1708              		.loc 1 880 3 is_stmt 1 view .LVU410
 880:Core/Src/main.c ****   huart5.Init.WordLength = UART_WORDLENGTH_8B;
 1709              		.loc 1 880 24 is_stmt 0 view .LVU411
 1710 0008 4FF4E133 		mov	r3, #115200
 1711 000c 4360     		str	r3, [r0, #4]
 881:Core/Src/main.c ****   huart5.Init.StopBits = UART_STOPBITS_1;
 1712              		.loc 1 881 3 is_stmt 1 view .LVU412
 881:Core/Src/main.c ****   huart5.Init.StopBits = UART_STOPBITS_1;
 1713              		.loc 1 881 26 is_stmt 0 view .LVU413
 1714 000e 0023     		movs	r3, #0
 1715 0010 8360     		str	r3, [r0, #8]
 882:Core/Src/main.c ****   huart5.Init.Parity = UART_PARITY_NONE;
 1716              		.loc 1 882 3 is_stmt 1 view .LVU414
 882:Core/Src/main.c ****   huart5.Init.Parity = UART_PARITY_NONE;
 1717              		.loc 1 882 24 is_stmt 0 view .LVU415
 1718 0012 C360     		str	r3, [r0, #12]
 883:Core/Src/main.c ****   huart5.Init.Mode = UART_MODE_TX_RX;
 1719              		.loc 1 883 3 is_stmt 1 view .LVU416
 883:Core/Src/main.c ****   huart5.Init.Mode = UART_MODE_TX_RX;
 1720              		.loc 1 883 22 is_stmt 0 view .LVU417
 1721 0014 0361     		str	r3, [r0, #16]
 884:Core/Src/main.c ****   huart5.Init.HwFlowCtl = UART_HWCONTROL_NONE;
 1722              		.loc 1 884 3 is_stmt 1 view .LVU418
 884:Core/Src/main.c ****   huart5.Init.HwFlowCtl = UART_HWCONTROL_NONE;
 1723              		.loc 1 884 20 is_stmt 0 view .LVU419
 1724 0016 0C22     		movs	r2, #12
 1725 0018 4261     		str	r2, [r0, #20]
 885:Core/Src/main.c ****   huart5.Init.OverSampling = UART_OVERSAMPLING_16;
 1726              		.loc 1 885 3 is_stmt 1 view .LVU420
 885:Core/Src/main.c ****   huart5.Init.OverSampling = UART_OVERSAMPLING_16;
 1727              		.loc 1 885 25 is_stmt 0 view .LVU421
 1728 001a 8361     		str	r3, [r0, #24]
 886:Core/Src/main.c ****   if (HAL_UART_Init(&huart5) != HAL_OK)
 1729              		.loc 1 886 3 is_stmt 1 view .LVU422
 886:Core/Src/main.c ****   if (HAL_UART_Init(&huart5) != HAL_OK)
 1730              		.loc 1 886 28 is_stmt 0 view .LVU423
 1731 001c C361     		str	r3, [r0, #28]
 887:Core/Src/main.c ****   {
 1732              		.loc 1 887 3 is_stmt 1 view .LVU424
 887:Core/Src/main.c ****   {
 1733              		.loc 1 887 7 is_stmt 0 view .LVU425
 1734 001e FFF7FEFF 		bl	HAL_UART_Init
 1735              	.LVL115:
 887:Core/Src/main.c ****   {
 1736              		.loc 1 887 6 discriminator 1 view .LVU426
 1737 0022 00B9     		cbnz	r0, .L114
 1738              	.L111:
 895:Core/Src/main.c **** 
 1739              		.loc 1 895 1 view .LVU427
 1740 0024 08BD     		pop	{r3, pc}
 1741              	.L114:
 889:Core/Src/main.c ****   }
 1742              		.loc 1 889 5 is_stmt 1 view .LVU428
 1743 0026 FFF7FEFF 		bl	Error_Handler
 1744              	.LVL116:
 895:Core/Src/main.c **** 
 1745              		.loc 1 895 1 is_stmt 0 view .LVU429
ARM GAS  C:\Users\kroko\AppData\Local\Temp\ccpAdhTr.s 			page 79


 1746 002a FBE7     		b	.L111
 1747              	.L116:
 1748              		.align	2
 1749              	.L115:
 1750 002c 00000000 		.word	huart5
 1751 0030 00500040 		.word	1073762304
 1752              		.cfi_endproc
 1753              	.LFE145:
 1755              		.section	.text.MX_USART6_UART_Init,"ax",%progbits
 1756              		.align	1
 1757              		.syntax unified
 1758              		.thumb
 1759              		.thumb_func
 1761              	MX_USART6_UART_Init:
 1762              	.LFB148:
 969:Core/Src/main.c **** 
 1763              		.loc 1 969 1 is_stmt 1 view -0
 1764              		.cfi_startproc
 1765              		@ args = 0, pretend = 0, frame = 0
 1766              		@ frame_needed = 0, uses_anonymous_args = 0
 1767 0000 08B5     		push	{r3, lr}
 1768              		.cfi_def_cfa_offset 8
 1769              		.cfi_offset 3, -8
 1770              		.cfi_offset 14, -4
 978:Core/Src/main.c ****   huart6.Init.BaudRate = 115200;
 1771              		.loc 1 978 3 view .LVU431
 978:Core/Src/main.c ****   huart6.Init.BaudRate = 115200;
 1772              		.loc 1 978 19 is_stmt 0 view .LVU432
 1773 0002 0A48     		ldr	r0, .L121
 1774 0004 0A4B     		ldr	r3, .L121+4
 1775 0006 0360     		str	r3, [r0]
 979:Core/Src/main.c ****   huart6.Init.WordLength = UART_WORDLENGTH_8B;
 1776              		.loc 1 979 3 is_stmt 1 view .LVU433
 979:Core/Src/main.c ****   huart6.Init.WordLength = UART_WORDLENGTH_8B;
 1777              		.loc 1 979 24 is_stmt 0 view .LVU434
 1778 0008 4FF4E133 		mov	r3, #115200
 1779 000c 4360     		str	r3, [r0, #4]
 980:Core/Src/main.c ****   huart6.Init.StopBits = UART_STOPBITS_1;
 1780              		.loc 1 980 3 is_stmt 1 view .LVU435
 980:Core/Src/main.c ****   huart6.Init.StopBits = UART_STOPBITS_1;
 1781              		.loc 1 980 26 is_stmt 0 view .LVU436
 1782 000e 0023     		movs	r3, #0
 1783 0010 8360     		str	r3, [r0, #8]
 981:Core/Src/main.c ****   huart6.Init.Parity = UART_PARITY_NONE;
 1784              		.loc 1 981 3 is_stmt 1 view .LVU437
 981:Core/Src/main.c ****   huart6.Init.Parity = UART_PARITY_NONE;
 1785              		.loc 1 981 24 is_stmt 0 view .LVU438
 1786 0012 C360     		str	r3, [r0, #12]
 982:Core/Src/main.c ****   huart6.Init.Mode = UART_MODE_TX_RX;
 1787              		.loc 1 982 3 is_stmt 1 view .LVU439
 982:Core/Src/main.c ****   huart6.Init.Mode = UART_MODE_TX_RX;
 1788              		.loc 1 982 22 is_stmt 0 view .LVU440
 1789 0014 0361     		str	r3, [r0, #16]
 983:Core/Src/main.c ****   huart6.Init.HwFlowCtl = UART_HWCONTROL_NONE;
 1790              		.loc 1 983 3 is_stmt 1 view .LVU441
 983:Core/Src/main.c ****   huart6.Init.HwFlowCtl = UART_HWCONTROL_NONE;
 1791              		.loc 1 983 20 is_stmt 0 view .LVU442
ARM GAS  C:\Users\kroko\AppData\Local\Temp\ccpAdhTr.s 			page 80


 1792 0016 0C22     		movs	r2, #12
 1793 0018 4261     		str	r2, [r0, #20]
 984:Core/Src/main.c ****   huart6.Init.OverSampling = UART_OVERSAMPLING_16;
 1794              		.loc 1 984 3 is_stmt 1 view .LVU443
 984:Core/Src/main.c ****   huart6.Init.OverSampling = UART_OVERSAMPLING_16;
 1795              		.loc 1 984 25 is_stmt 0 view .LVU444
 1796 001a 8361     		str	r3, [r0, #24]
 985:Core/Src/main.c ****   if (HAL_UART_Init(&huart6) != HAL_OK)
 1797              		.loc 1 985 3 is_stmt 1 view .LVU445
 985:Core/Src/main.c ****   if (HAL_UART_Init(&huart6) != HAL_OK)
 1798              		.loc 1 985 28 is_stmt 0 view .LVU446
 1799 001c C361     		str	r3, [r0, #28]
 986:Core/Src/main.c ****   {
 1800              		.loc 1 986 3 is_stmt 1 view .LVU447
 986:Core/Src/main.c ****   {
 1801              		.loc 1 986 7 is_stmt 0 view .LVU448
 1802 001e FFF7FEFF 		bl	HAL_UART_Init
 1803              	.LVL117:
 986:Core/Src/main.c ****   {
 1804              		.loc 1 986 6 discriminator 1 view .LVU449
 1805 0022 00B9     		cbnz	r0, .L120
 1806              	.L117:
 994:Core/Src/main.c **** 
 1807              		.loc 1 994 1 view .LVU450
 1808 0024 08BD     		pop	{r3, pc}
 1809              	.L120:
 988:Core/Src/main.c ****   }
 1810              		.loc 1 988 5 is_stmt 1 view .LVU451
 1811 0026 FFF7FEFF 		bl	Error_Handler
 1812              	.LVL118:
 994:Core/Src/main.c **** 
 1813              		.loc 1 994 1 is_stmt 0 view .LVU452
 1814 002a FBE7     		b	.L117
 1815              	.L122:
 1816              		.align	2
 1817              	.L121:
 1818 002c 00000000 		.word	huart6
 1819 0030 00140140 		.word	1073812480
 1820              		.cfi_endproc
 1821              	.LFE148:
 1823              		.section	.text.MX_SPI2_Init,"ax",%progbits
 1824              		.align	1
 1825              		.syntax unified
 1826              		.thumb
 1827              		.thumb_func
 1829              	MX_SPI2_Init:
 1830              	.LFB143:
 799:Core/Src/main.c **** 
 1831              		.loc 1 799 1 is_stmt 1 view -0
 1832              		.cfi_startproc
 1833              		@ args = 0, pretend = 0, frame = 0
 1834              		@ frame_needed = 0, uses_anonymous_args = 0
 1835 0000 08B5     		push	{r3, lr}
 1836              		.cfi_def_cfa_offset 8
 1837              		.cfi_offset 3, -8
 1838              		.cfi_offset 14, -4
 809:Core/Src/main.c ****   hspi2.Init.Mode = SPI_MODE_MASTER;
ARM GAS  C:\Users\kroko\AppData\Local\Temp\ccpAdhTr.s 			page 81


 1839              		.loc 1 809 3 view .LVU454
 809:Core/Src/main.c ****   hspi2.Init.Mode = SPI_MODE_MASTER;
 1840              		.loc 1 809 18 is_stmt 0 view .LVU455
 1841 0002 0E48     		ldr	r0, .L127
 1842 0004 0E4B     		ldr	r3, .L127+4
 1843 0006 0360     		str	r3, [r0]
 810:Core/Src/main.c ****   hspi2.Init.Direction = SPI_DIRECTION_2LINES;
 1844              		.loc 1 810 3 is_stmt 1 view .LVU456
 810:Core/Src/main.c ****   hspi2.Init.Direction = SPI_DIRECTION_2LINES;
 1845              		.loc 1 810 19 is_stmt 0 view .LVU457
 1846 0008 4FF48273 		mov	r3, #260
 1847 000c 4360     		str	r3, [r0, #4]
 811:Core/Src/main.c ****   hspi2.Init.DataSize = SPI_DATASIZE_8BIT;
 1848              		.loc 1 811 3 is_stmt 1 view .LVU458
 811:Core/Src/main.c ****   hspi2.Init.DataSize = SPI_DATASIZE_8BIT;
 1849              		.loc 1 811 24 is_stmt 0 view .LVU459
 1850 000e 0023     		movs	r3, #0
 1851 0010 8360     		str	r3, [r0, #8]
 812:Core/Src/main.c ****   hspi2.Init.CLKPolarity = SPI_POLARITY_LOW;
 1852              		.loc 1 812 3 is_stmt 1 view .LVU460
 812:Core/Src/main.c ****   hspi2.Init.CLKPolarity = SPI_POLARITY_LOW;
 1853              		.loc 1 812 23 is_stmt 0 view .LVU461
 1854 0012 C360     		str	r3, [r0, #12]
 813:Core/Src/main.c ****   hspi2.Init.CLKPhase = SPI_PHASE_1EDGE;
 1855              		.loc 1 813 3 is_stmt 1 view .LVU462
 813:Core/Src/main.c ****   hspi2.Init.CLKPhase = SPI_PHASE_1EDGE;
 1856              		.loc 1 813 26 is_stmt 0 view .LVU463
 1857 0014 0361     		str	r3, [r0, #16]
 814:Core/Src/main.c ****   hspi2.Init.NSS = SPI_NSS_SOFT;
 1858              		.loc 1 814 3 is_stmt 1 view .LVU464
 814:Core/Src/main.c ****   hspi2.Init.NSS = SPI_NSS_SOFT;
 1859              		.loc 1 814 23 is_stmt 0 view .LVU465
 1860 0016 4361     		str	r3, [r0, #20]
 815:Core/Src/main.c ****   hspi2.Init.BaudRatePrescaler = SPI_BAUDRATEPRESCALER_256;
 1861              		.loc 1 815 3 is_stmt 1 view .LVU466
 815:Core/Src/main.c ****   hspi2.Init.BaudRatePrescaler = SPI_BAUDRATEPRESCALER_256;
 1862              		.loc 1 815 18 is_stmt 0 view .LVU467
 1863 0018 4FF40072 		mov	r2, #512
 1864 001c 8261     		str	r2, [r0, #24]
 816:Core/Src/main.c ****   hspi2.Init.FirstBit = SPI_FIRSTBIT_MSB;
 1865              		.loc 1 816 3 is_stmt 1 view .LVU468
 816:Core/Src/main.c ****   hspi2.Init.FirstBit = SPI_FIRSTBIT_MSB;
 1866              		.loc 1 816 32 is_stmt 0 view .LVU469
 1867 001e 3822     		movs	r2, #56
 1868 0020 C261     		str	r2, [r0, #28]
 817:Core/Src/main.c ****   hspi2.Init.TIMode = SPI_TIMODE_DISABLE;
 1869              		.loc 1 817 3 is_stmt 1 view .LVU470
 817:Core/Src/main.c ****   hspi2.Init.TIMode = SPI_TIMODE_DISABLE;
 1870              		.loc 1 817 23 is_stmt 0 view .LVU471
 1871 0022 0362     		str	r3, [r0, #32]
 818:Core/Src/main.c ****   hspi2.Init.CRCCalculation = SPI_CRCCALCULATION_DISABLE;
 1872              		.loc 1 818 3 is_stmt 1 view .LVU472
 818:Core/Src/main.c ****   hspi2.Init.CRCCalculation = SPI_CRCCALCULATION_DISABLE;
 1873              		.loc 1 818 21 is_stmt 0 view .LVU473
 1874 0024 4362     		str	r3, [r0, #36]
 819:Core/Src/main.c ****   hspi2.Init.CRCPolynomial = 10;
 1875              		.loc 1 819 3 is_stmt 1 view .LVU474
ARM GAS  C:\Users\kroko\AppData\Local\Temp\ccpAdhTr.s 			page 82


 819:Core/Src/main.c ****   hspi2.Init.CRCPolynomial = 10;
 1876              		.loc 1 819 29 is_stmt 0 view .LVU475
 1877 0026 8362     		str	r3, [r0, #40]
 820:Core/Src/main.c ****   if (HAL_SPI_Init(&hspi2) != HAL_OK)
 1878              		.loc 1 820 3 is_stmt 1 view .LVU476
 820:Core/Src/main.c ****   if (HAL_SPI_Init(&hspi2) != HAL_OK)
 1879              		.loc 1 820 28 is_stmt 0 view .LVU477
 1880 0028 0A23     		movs	r3, #10
 1881 002a C362     		str	r3, [r0, #44]
 821:Core/Src/main.c ****   {
 1882              		.loc 1 821 3 is_stmt 1 view .LVU478
 821:Core/Src/main.c ****   {
 1883              		.loc 1 821 7 is_stmt 0 view .LVU479
 1884 002c FFF7FEFF 		bl	HAL_SPI_Init
 1885              	.LVL119:
 821:Core/Src/main.c ****   {
 1886              		.loc 1 821 6 discriminator 1 view .LVU480
 1887 0030 00B9     		cbnz	r0, .L126
 1888              	.L123:
 829:Core/Src/main.c **** 
 1889              		.loc 1 829 1 view .LVU481
 1890 0032 08BD     		pop	{r3, pc}
 1891              	.L126:
 823:Core/Src/main.c ****   }
 1892              		.loc 1 823 5 is_stmt 1 view .LVU482
 1893 0034 FFF7FEFF 		bl	Error_Handler
 1894              	.LVL120:
 829:Core/Src/main.c **** 
 1895              		.loc 1 829 1 is_stmt 0 view .LVU483
 1896 0038 FBE7     		b	.L123
 1897              	.L128:
 1898 003a 00BF     		.align	2
 1899              	.L127:
 1900 003c 00000000 		.word	hspi2
 1901 0040 00380040 		.word	1073756160
 1902              		.cfi_endproc
 1903              	.LFE143:
 1905              		.section	.text.MX_RTC_Init,"ax",%progbits
 1906              		.align	1
 1907              		.syntax unified
 1908              		.thumb
 1909              		.thumb_func
 1911              	MX_RTC_Init:
 1912              	.LFB141:
 663:Core/Src/main.c **** 
 1913              		.loc 1 663 1 is_stmt 1 view -0
 1914              		.cfi_startproc
 1915              		@ args = 0, pretend = 0, frame = 64
 1916              		@ frame_needed = 0, uses_anonymous_args = 0
 1917 0000 10B5     		push	{r4, lr}
 1918              		.cfi_def_cfa_offset 8
 1919              		.cfi_offset 4, -8
 1920              		.cfi_offset 14, -4
 1921 0002 90B0     		sub	sp, sp, #64
 1922              		.cfi_def_cfa_offset 72
 669:Core/Src/main.c ****   RTC_DateTypeDef sDate = {0};
 1923              		.loc 1 669 3 view .LVU485
ARM GAS  C:\Users\kroko\AppData\Local\Temp\ccpAdhTr.s 			page 83


 669:Core/Src/main.c ****   RTC_DateTypeDef sDate = {0};
 1924              		.loc 1 669 19 is_stmt 0 view .LVU486
 1925 0004 0024     		movs	r4, #0
 1926 0006 0B94     		str	r4, [sp, #44]
 1927 0008 0C94     		str	r4, [sp, #48]
 1928 000a 0D94     		str	r4, [sp, #52]
 1929 000c 0E94     		str	r4, [sp, #56]
 1930 000e 0F94     		str	r4, [sp, #60]
 670:Core/Src/main.c ****   RTC_AlarmTypeDef sAlarm = {0};
 1931              		.loc 1 670 3 is_stmt 1 view .LVU487
 670:Core/Src/main.c ****   RTC_AlarmTypeDef sAlarm = {0};
 1932              		.loc 1 670 19 is_stmt 0 view .LVU488
 1933 0010 0A94     		str	r4, [sp, #40]
 671:Core/Src/main.c **** 
 1934              		.loc 1 671 3 is_stmt 1 view .LVU489
 671:Core/Src/main.c **** 
 1935              		.loc 1 671 20 is_stmt 0 view .LVU490
 1936 0012 2822     		movs	r2, #40
 1937 0014 2146     		mov	r1, r4
 1938 0016 6846     		mov	r0, sp
 1939 0018 FFF7FEFF 		bl	memset
 1940              	.LVL121:
 679:Core/Src/main.c ****   hrtc.Init.HourFormat = RTC_HOURFORMAT_24;
 1941              		.loc 1 679 3 is_stmt 1 view .LVU491
 679:Core/Src/main.c ****   hrtc.Init.HourFormat = RTC_HOURFORMAT_24;
 1942              		.loc 1 679 17 is_stmt 0 view .LVU492
 1943 001c 2D48     		ldr	r0, .L141
 1944 001e 2E4B     		ldr	r3, .L141+4
 1945 0020 0360     		str	r3, [r0]
 680:Core/Src/main.c ****   hrtc.Init.AsynchPrediv = 127;
 1946              		.loc 1 680 3 is_stmt 1 view .LVU493
 680:Core/Src/main.c ****   hrtc.Init.AsynchPrediv = 127;
 1947              		.loc 1 680 24 is_stmt 0 view .LVU494
 1948 0022 4460     		str	r4, [r0, #4]
 681:Core/Src/main.c ****   hrtc.Init.SynchPrediv = 255;
 1949              		.loc 1 681 3 is_stmt 1 view .LVU495
 681:Core/Src/main.c ****   hrtc.Init.SynchPrediv = 255;
 1950              		.loc 1 681 26 is_stmt 0 view .LVU496
 1951 0024 7F23     		movs	r3, #127
 1952 0026 8360     		str	r3, [r0, #8]
 682:Core/Src/main.c ****   hrtc.Init.OutPut = RTC_OUTPUT_DISABLE;
 1953              		.loc 1 682 3 is_stmt 1 view .LVU497
 682:Core/Src/main.c ****   hrtc.Init.OutPut = RTC_OUTPUT_DISABLE;
 1954              		.loc 1 682 25 is_stmt 0 view .LVU498
 1955 0028 FF23     		movs	r3, #255
 1956 002a C360     		str	r3, [r0, #12]
 683:Core/Src/main.c ****   hrtc.Init.OutPutPolarity = RTC_OUTPUT_POLARITY_HIGH;
 1957              		.loc 1 683 3 is_stmt 1 view .LVU499
 683:Core/Src/main.c ****   hrtc.Init.OutPutPolarity = RTC_OUTPUT_POLARITY_HIGH;
 1958              		.loc 1 683 20 is_stmt 0 view .LVU500
 1959 002c 0461     		str	r4, [r0, #16]
 684:Core/Src/main.c ****   hrtc.Init.OutPutType = RTC_OUTPUT_TYPE_OPENDRAIN;
 1960              		.loc 1 684 3 is_stmt 1 view .LVU501
 684:Core/Src/main.c ****   hrtc.Init.OutPutType = RTC_OUTPUT_TYPE_OPENDRAIN;
 1961              		.loc 1 684 28 is_stmt 0 view .LVU502
 1962 002e 4461     		str	r4, [r0, #20]
 685:Core/Src/main.c ****   if (HAL_RTC_Init(&hrtc) != HAL_OK)
ARM GAS  C:\Users\kroko\AppData\Local\Temp\ccpAdhTr.s 			page 84


 1963              		.loc 1 685 3 is_stmt 1 view .LVU503
 685:Core/Src/main.c ****   if (HAL_RTC_Init(&hrtc) != HAL_OK)
 1964              		.loc 1 685 24 is_stmt 0 view .LVU504
 1965 0030 8461     		str	r4, [r0, #24]
 686:Core/Src/main.c ****   {
 1966              		.loc 1 686 3 is_stmt 1 view .LVU505
 686:Core/Src/main.c ****   {
 1967              		.loc 1 686 7 is_stmt 0 view .LVU506
 1968 0032 FFF7FEFF 		bl	HAL_RTC_Init
 1969              	.LVL122:
 686:Core/Src/main.c ****   {
 1970              		.loc 1 686 6 discriminator 1 view .LVU507
 1971 0036 0028     		cmp	r0, #0
 1972 0038 3FD1     		bne	.L137
 1973              	.L130:
 692:Core/Src/main.c ****   // // GET RTC DATETIME
 1974              		.loc 1 692 3 is_stmt 1 view .LVU508
 692:Core/Src/main.c ****   // // GET RTC DATETIME
 1975              		.loc 1 692 7 is_stmt 0 view .LVU509
 1976 003a 0121     		movs	r1, #1
 1977 003c 2548     		ldr	r0, .L141
 1978 003e FFF7FEFF 		bl	HAL_RTCEx_BKUPRead
 1979              	.LVL123:
 692:Core/Src/main.c ****   // // GET RTC DATETIME
 1980              		.loc 1 692 6 discriminator 1 view .LVU510
 1981 0042 42F24533 		movw	r3, #9029
 1982 0046 9842     		cmp	r0, r3
 1983 0048 35D0     		beq	.L129
 710:Core/Src/main.c ****   sTime.Minutes = 0x0;
 1984              		.loc 1 710 3 is_stmt 1 view .LVU511
 710:Core/Src/main.c ****   sTime.Minutes = 0x0;
 1985              		.loc 1 710 15 is_stmt 0 view .LVU512
 1986 004a 0023     		movs	r3, #0
 1987 004c 8DF82C30 		strb	r3, [sp, #44]
 711:Core/Src/main.c ****   sTime.Seconds = 0x0;
 1988              		.loc 1 711 3 is_stmt 1 view .LVU513
 711:Core/Src/main.c ****   sTime.Seconds = 0x0;
 1989              		.loc 1 711 17 is_stmt 0 view .LVU514
 1990 0050 8DF82D30 		strb	r3, [sp, #45]
 712:Core/Src/main.c ****   sTime.DayLightSaving = RTC_DAYLIGHTSAVING_NONE;
 1991              		.loc 1 712 3 is_stmt 1 view .LVU515
 712:Core/Src/main.c ****   sTime.DayLightSaving = RTC_DAYLIGHTSAVING_NONE;
 1992              		.loc 1 712 17 is_stmt 0 view .LVU516
 1993 0054 8DF82E30 		strb	r3, [sp, #46]
 713:Core/Src/main.c ****   sTime.StoreOperation = RTC_STOREOPERATION_RESET;
 1994              		.loc 1 713 3 is_stmt 1 view .LVU517
 713:Core/Src/main.c ****   sTime.StoreOperation = RTC_STOREOPERATION_RESET;
 1995              		.loc 1 713 24 is_stmt 0 view .LVU518
 1996 0058 0E93     		str	r3, [sp, #56]
 714:Core/Src/main.c ****   if (HAL_RTC_SetTime(&hrtc, &sTime, RTC_FORMAT_BCD) != HAL_OK)
 1997              		.loc 1 714 3 is_stmt 1 view .LVU519
 714:Core/Src/main.c ****   if (HAL_RTC_SetTime(&hrtc, &sTime, RTC_FORMAT_BCD) != HAL_OK)
 1998              		.loc 1 714 24 is_stmt 0 view .LVU520
 1999 005a 0F93     		str	r3, [sp, #60]
 715:Core/Src/main.c ****   {
 2000              		.loc 1 715 3 is_stmt 1 view .LVU521
 715:Core/Src/main.c ****   {
ARM GAS  C:\Users\kroko\AppData\Local\Temp\ccpAdhTr.s 			page 85


 2001              		.loc 1 715 7 is_stmt 0 view .LVU522
 2002 005c 0122     		movs	r2, #1
 2003 005e 0BA9     		add	r1, sp, #44
 2004 0060 1C48     		ldr	r0, .L141
 2005 0062 FFF7FEFF 		bl	HAL_RTC_SetTime
 2006              	.LVL124:
 715:Core/Src/main.c ****   {
 2007              		.loc 1 715 6 discriminator 1 view .LVU523
 2008 0066 58BB     		cbnz	r0, .L138
 2009              	.L133:
 719:Core/Src/main.c ****   sDate.Month = RTC_MONTH_JANUARY;
 2010              		.loc 1 719 3 is_stmt 1 view .LVU524
 719:Core/Src/main.c ****   sDate.Month = RTC_MONTH_JANUARY;
 2011              		.loc 1 719 17 is_stmt 0 view .LVU525
 2012 0068 0122     		movs	r2, #1
 2013 006a 8DF82820 		strb	r2, [sp, #40]
 720:Core/Src/main.c ****   sDate.Date = 0x1;
 2014              		.loc 1 720 3 is_stmt 1 view .LVU526
 720:Core/Src/main.c ****   sDate.Date = 0x1;
 2015              		.loc 1 720 15 is_stmt 0 view .LVU527
 2016 006e 8DF82920 		strb	r2, [sp, #41]
 721:Core/Src/main.c ****   sDate.Year = 0x0;
 2017              		.loc 1 721 3 is_stmt 1 view .LVU528
 721:Core/Src/main.c ****   sDate.Year = 0x0;
 2018              		.loc 1 721 14 is_stmt 0 view .LVU529
 2019 0072 8DF82A20 		strb	r2, [sp, #42]
 722:Core/Src/main.c **** 
 2020              		.loc 1 722 3 is_stmt 1 view .LVU530
 722:Core/Src/main.c **** 
 2021              		.loc 1 722 14 is_stmt 0 view .LVU531
 2022 0076 0023     		movs	r3, #0
 2023 0078 8DF82B30 		strb	r3, [sp, #43]
 724:Core/Src/main.c ****   {
 2024              		.loc 1 724 3 is_stmt 1 view .LVU532
 724:Core/Src/main.c ****   {
 2025              		.loc 1 724 7 is_stmt 0 view .LVU533
 2026 007c 0AA9     		add	r1, sp, #40
 2027 007e 1548     		ldr	r0, .L141
 2028 0080 FFF7FEFF 		bl	HAL_RTC_SetDate
 2029              	.LVL125:
 724:Core/Src/main.c ****   {
 2030              		.loc 1 724 6 discriminator 1 view .LVU534
 2031 0084 F8B9     		cbnz	r0, .L139
 2032              	.L134:
 731:Core/Src/main.c ****   sAlarm.AlarmTime.Minutes = 0x0;
 2033              		.loc 1 731 3 is_stmt 1 view .LVU535
 731:Core/Src/main.c ****   sAlarm.AlarmTime.Minutes = 0x0;
 2034              		.loc 1 731 26 is_stmt 0 view .LVU536
 2035 0086 0023     		movs	r3, #0
 2036 0088 8DF80030 		strb	r3, [sp]
 732:Core/Src/main.c ****   sAlarm.AlarmTime.Seconds = 0x0;
 2037              		.loc 1 732 3 is_stmt 1 view .LVU537
 732:Core/Src/main.c ****   sAlarm.AlarmTime.Seconds = 0x0;
 2038              		.loc 1 732 28 is_stmt 0 view .LVU538
 2039 008c 8DF80130 		strb	r3, [sp, #1]
 733:Core/Src/main.c ****   sAlarm.AlarmTime.SubSeconds = 0x0;
 2040              		.loc 1 733 3 is_stmt 1 view .LVU539
ARM GAS  C:\Users\kroko\AppData\Local\Temp\ccpAdhTr.s 			page 86


 733:Core/Src/main.c ****   sAlarm.AlarmTime.SubSeconds = 0x0;
 2041              		.loc 1 733 28 is_stmt 0 view .LVU540
 2042 0090 8DF80230 		strb	r3, [sp, #2]
 734:Core/Src/main.c ****   sAlarm.AlarmTime.DayLightSaving = RTC_DAYLIGHTSAVING_NONE;
 2043              		.loc 1 734 3 is_stmt 1 view .LVU541
 734:Core/Src/main.c ****   sAlarm.AlarmTime.DayLightSaving = RTC_DAYLIGHTSAVING_NONE;
 2044              		.loc 1 734 31 is_stmt 0 view .LVU542
 2045 0094 0193     		str	r3, [sp, #4]
 735:Core/Src/main.c ****   sAlarm.AlarmTime.StoreOperation = RTC_STOREOPERATION_RESET;
 2046              		.loc 1 735 3 is_stmt 1 view .LVU543
 735:Core/Src/main.c ****   sAlarm.AlarmTime.StoreOperation = RTC_STOREOPERATION_RESET;
 2047              		.loc 1 735 35 is_stmt 0 view .LVU544
 2048 0096 0393     		str	r3, [sp, #12]
 736:Core/Src/main.c ****   sAlarm.AlarmMask = RTC_ALARMMASK_NONE;
 2049              		.loc 1 736 3 is_stmt 1 view .LVU545
 736:Core/Src/main.c ****   sAlarm.AlarmMask = RTC_ALARMMASK_NONE;
 2050              		.loc 1 736 35 is_stmt 0 view .LVU546
 2051 0098 0493     		str	r3, [sp, #16]
 737:Core/Src/main.c ****   sAlarm.AlarmSubSecondMask = RTC_ALARMSUBSECONDMASK_ALL;
 2052              		.loc 1 737 3 is_stmt 1 view .LVU547
 737:Core/Src/main.c ****   sAlarm.AlarmSubSecondMask = RTC_ALARMSUBSECONDMASK_ALL;
 2053              		.loc 1 737 20 is_stmt 0 view .LVU548
 2054 009a 0593     		str	r3, [sp, #20]
 738:Core/Src/main.c ****   sAlarm.AlarmDateWeekDaySel = RTC_ALARMDATEWEEKDAYSEL_DATE;
 2055              		.loc 1 738 3 is_stmt 1 view .LVU549
 738:Core/Src/main.c ****   sAlarm.AlarmDateWeekDaySel = RTC_ALARMDATEWEEKDAYSEL_DATE;
 2056              		.loc 1 738 29 is_stmt 0 view .LVU550
 2057 009c 0693     		str	r3, [sp, #24]
 739:Core/Src/main.c ****   sAlarm.AlarmDateWeekDay = 0x1;
 2058              		.loc 1 739 3 is_stmt 1 view .LVU551
 739:Core/Src/main.c ****   sAlarm.AlarmDateWeekDay = 0x1;
 2059              		.loc 1 739 30 is_stmt 0 view .LVU552
 2060 009e 0793     		str	r3, [sp, #28]
 740:Core/Src/main.c ****   sAlarm.Alarm = RTC_ALARM_A;
 2061              		.loc 1 740 3 is_stmt 1 view .LVU553
 740:Core/Src/main.c ****   sAlarm.Alarm = RTC_ALARM_A;
 2062              		.loc 1 740 27 is_stmt 0 view .LVU554
 2063 00a0 0122     		movs	r2, #1
 2064 00a2 8DF82020 		strb	r2, [sp, #32]
 741:Core/Src/main.c ****   if (HAL_RTC_SetAlarm(&hrtc, &sAlarm, RTC_FORMAT_BCD) != HAL_OK)
 2065              		.loc 1 741 3 is_stmt 1 view .LVU555
 741:Core/Src/main.c ****   if (HAL_RTC_SetAlarm(&hrtc, &sAlarm, RTC_FORMAT_BCD) != HAL_OK)
 2066              		.loc 1 741 16 is_stmt 0 view .LVU556
 2067 00a6 4FF48073 		mov	r3, #256
 2068 00aa 0993     		str	r3, [sp, #36]
 742:Core/Src/main.c ****   {
 2069              		.loc 1 742 3 is_stmt 1 view .LVU557
 742:Core/Src/main.c ****   {
 2070              		.loc 1 742 7 is_stmt 0 view .LVU558
 2071 00ac 6946     		mov	r1, sp
 2072 00ae 0948     		ldr	r0, .L141
 2073 00b0 FFF7FEFF 		bl	HAL_RTC_SetAlarm
 2074              	.LVL126:
 742:Core/Src/main.c ****   {
 2075              		.loc 1 742 6 discriminator 1 view .LVU559
 2076 00b4 50B9     		cbnz	r0, .L140
 2077              	.L129:
ARM GAS  C:\Users\kroko\AppData\Local\Temp\ccpAdhTr.s 			page 87


 753:Core/Src/main.c **** 
 2078              		.loc 1 753 1 view .LVU560
 2079 00b6 10B0     		add	sp, sp, #64
 2080              		.cfi_remember_state
 2081              		.cfi_def_cfa_offset 8
 2082              		@ sp needed
 2083 00b8 10BD     		pop	{r4, pc}
 2084              	.L137:
 2085              		.cfi_restore_state
 688:Core/Src/main.c ****   }
 2086              		.loc 1 688 5 is_stmt 1 view .LVU561
 2087 00ba FFF7FEFF 		bl	Error_Handler
 2088              	.LVL127:
 2089 00be BCE7     		b	.L130
 2090              	.L138:
 717:Core/Src/main.c ****   }
 2091              		.loc 1 717 5 view .LVU562
 2092 00c0 FFF7FEFF 		bl	Error_Handler
 2093              	.LVL128:
 2094 00c4 D0E7     		b	.L133
 2095              	.L139:
 726:Core/Src/main.c ****   }
 2096              		.loc 1 726 5 view .LVU563
 2097 00c6 FFF7FEFF 		bl	Error_Handler
 2098              	.LVL129:
 2099 00ca DCE7     		b	.L134
 2100              	.L140:
 744:Core/Src/main.c ****   }
 2101              		.loc 1 744 5 view .LVU564
 2102 00cc FFF7FEFF 		bl	Error_Handler
 2103              	.LVL130:
 2104 00d0 F1E7     		b	.L129
 2105              	.L142:
 2106 00d2 00BF     		.align	2
 2107              	.L141:
 2108 00d4 00000000 		.word	hrtc
 2109 00d8 00280040 		.word	1073752064
 2110              		.cfi_endproc
 2111              	.LFE141:
 2113              		.section	.text.MX_USART2_UART_Init,"ax",%progbits
 2114              		.align	1
 2115              		.syntax unified
 2116              		.thumb
 2117              		.thumb_func
 2119              	MX_USART2_UART_Init:
 2120              	.LFB146:
 903:Core/Src/main.c **** 
 2121              		.loc 1 903 1 view -0
 2122              		.cfi_startproc
 2123              		@ args = 0, pretend = 0, frame = 0
 2124              		@ frame_needed = 0, uses_anonymous_args = 0
 2125 0000 08B5     		push	{r3, lr}
 2126              		.cfi_def_cfa_offset 8
 2127              		.cfi_offset 3, -8
 2128              		.cfi_offset 14, -4
 912:Core/Src/main.c ****   huart2.Init.BaudRate = 115200;
 2129              		.loc 1 912 3 view .LVU566
ARM GAS  C:\Users\kroko\AppData\Local\Temp\ccpAdhTr.s 			page 88


 912:Core/Src/main.c ****   huart2.Init.BaudRate = 115200;
 2130              		.loc 1 912 19 is_stmt 0 view .LVU567
 2131 0002 0A48     		ldr	r0, .L147
 2132 0004 0A4B     		ldr	r3, .L147+4
 2133 0006 0360     		str	r3, [r0]
 913:Core/Src/main.c ****   huart2.Init.WordLength = UART_WORDLENGTH_8B;
 2134              		.loc 1 913 3 is_stmt 1 view .LVU568
 913:Core/Src/main.c ****   huart2.Init.WordLength = UART_WORDLENGTH_8B;
 2135              		.loc 1 913 24 is_stmt 0 view .LVU569
 2136 0008 4FF4E133 		mov	r3, #115200
 2137 000c 4360     		str	r3, [r0, #4]
 914:Core/Src/main.c ****   huart2.Init.StopBits = UART_STOPBITS_1;
 2138              		.loc 1 914 3 is_stmt 1 view .LVU570
 914:Core/Src/main.c ****   huart2.Init.StopBits = UART_STOPBITS_1;
 2139              		.loc 1 914 26 is_stmt 0 view .LVU571
 2140 000e 0023     		movs	r3, #0
 2141 0010 8360     		str	r3, [r0, #8]
 915:Core/Src/main.c ****   huart2.Init.Parity = UART_PARITY_NONE;
 2142              		.loc 1 915 3 is_stmt 1 view .LVU572
 915:Core/Src/main.c ****   huart2.Init.Parity = UART_PARITY_NONE;
 2143              		.loc 1 915 24 is_stmt 0 view .LVU573
 2144 0012 C360     		str	r3, [r0, #12]
 916:Core/Src/main.c ****   huart2.Init.Mode = UART_MODE_TX_RX;
 2145              		.loc 1 916 3 is_stmt 1 view .LVU574
 916:Core/Src/main.c ****   huart2.Init.Mode = UART_MODE_TX_RX;
 2146              		.loc 1 916 22 is_stmt 0 view .LVU575
 2147 0014 0361     		str	r3, [r0, #16]
 917:Core/Src/main.c ****   huart2.Init.HwFlowCtl = UART_HWCONTROL_NONE;
 2148              		.loc 1 917 3 is_stmt 1 view .LVU576
 917:Core/Src/main.c ****   huart2.Init.HwFlowCtl = UART_HWCONTROL_NONE;
 2149              		.loc 1 917 20 is_stmt 0 view .LVU577
 2150 0016 0C22     		movs	r2, #12
 2151 0018 4261     		str	r2, [r0, #20]
 918:Core/Src/main.c ****   huart2.Init.OverSampling = UART_OVERSAMPLING_16;
 2152              		.loc 1 918 3 is_stmt 1 view .LVU578
 918:Core/Src/main.c ****   huart2.Init.OverSampling = UART_OVERSAMPLING_16;
 2153              		.loc 1 918 25 is_stmt 0 view .LVU579
 2154 001a 8361     		str	r3, [r0, #24]
 919:Core/Src/main.c ****   if (HAL_UART_Init(&huart2) != HAL_OK)
 2155              		.loc 1 919 3 is_stmt 1 view .LVU580
 919:Core/Src/main.c ****   if (HAL_UART_Init(&huart2) != HAL_OK)
 2156              		.loc 1 919 28 is_stmt 0 view .LVU581
 2157 001c C361     		str	r3, [r0, #28]
 920:Core/Src/main.c ****   {
 2158              		.loc 1 920 3 is_stmt 1 view .LVU582
 920:Core/Src/main.c ****   {
 2159              		.loc 1 920 7 is_stmt 0 view .LVU583
 2160 001e FFF7FEFF 		bl	HAL_UART_Init
 2161              	.LVL131:
 920:Core/Src/main.c ****   {
 2162              		.loc 1 920 6 discriminator 1 view .LVU584
 2163 0022 00B9     		cbnz	r0, .L146
 2164              	.L143:
 928:Core/Src/main.c **** 
 2165              		.loc 1 928 1 view .LVU585
 2166 0024 08BD     		pop	{r3, pc}
 2167              	.L146:
ARM GAS  C:\Users\kroko\AppData\Local\Temp\ccpAdhTr.s 			page 89


 922:Core/Src/main.c ****   }
 2168              		.loc 1 922 5 is_stmt 1 view .LVU586
 2169 0026 FFF7FEFF 		bl	Error_Handler
 2170              	.LVL132:
 928:Core/Src/main.c **** 
 2171              		.loc 1 928 1 is_stmt 0 view .LVU587
 2172 002a FBE7     		b	.L143
 2173              	.L148:
 2174              		.align	2
 2175              	.L147:
 2176 002c 00000000 		.word	huart2
 2177 0030 00440040 		.word	1073759232
 2178              		.cfi_endproc
 2179              	.LFE146:
 2181              		.section	.text.MX_IWDG_Init,"ax",%progbits
 2182              		.align	1
 2183              		.syntax unified
 2184              		.thumb
 2185              		.thumb_func
 2187              	MX_IWDG_Init:
 2188              	.LFB140:
 635:Core/Src/main.c **** 
 2189              		.loc 1 635 1 is_stmt 1 view -0
 2190              		.cfi_startproc
 2191              		@ args = 0, pretend = 0, frame = 0
 2192              		@ frame_needed = 0, uses_anonymous_args = 0
 2193 0000 08B5     		push	{r3, lr}
 2194              		.cfi_def_cfa_offset 8
 2195              		.cfi_offset 3, -8
 2196              		.cfi_offset 14, -4
 644:Core/Src/main.c ****   hiwdg.Init.Prescaler = IWDG_PRESCALER_256;
 2197              		.loc 1 644 3 view .LVU589
 644:Core/Src/main.c ****   hiwdg.Init.Prescaler = IWDG_PRESCALER_256;
 2198              		.loc 1 644 18 is_stmt 0 view .LVU590
 2199 0002 0748     		ldr	r0, .L153
 2200 0004 074B     		ldr	r3, .L153+4
 2201 0006 0360     		str	r3, [r0]
 645:Core/Src/main.c ****   hiwdg.Init.Reload = 1250;
 2202              		.loc 1 645 3 is_stmt 1 view .LVU591
 645:Core/Src/main.c ****   hiwdg.Init.Reload = 1250;
 2203              		.loc 1 645 24 is_stmt 0 view .LVU592
 2204 0008 0623     		movs	r3, #6
 2205 000a 4360     		str	r3, [r0, #4]
 646:Core/Src/main.c ****   if (HAL_IWDG_Init(&hiwdg) != HAL_OK)
 2206              		.loc 1 646 3 is_stmt 1 view .LVU593
 646:Core/Src/main.c ****   if (HAL_IWDG_Init(&hiwdg) != HAL_OK)
 2207              		.loc 1 646 21 is_stmt 0 view .LVU594
 2208 000c 40F2E243 		movw	r3, #1250
 2209 0010 8360     		str	r3, [r0, #8]
 647:Core/Src/main.c ****   {
 2210              		.loc 1 647 3 is_stmt 1 view .LVU595
 647:Core/Src/main.c ****   {
 2211              		.loc 1 647 7 is_stmt 0 view .LVU596
 2212 0012 FFF7FEFF 		bl	HAL_IWDG_Init
 2213              	.LVL133:
 647:Core/Src/main.c ****   {
 2214              		.loc 1 647 6 discriminator 1 view .LVU597
ARM GAS  C:\Users\kroko\AppData\Local\Temp\ccpAdhTr.s 			page 90


 2215 0016 00B9     		cbnz	r0, .L152
 2216              	.L149:
 655:Core/Src/main.c **** 
 2217              		.loc 1 655 1 view .LVU598
 2218 0018 08BD     		pop	{r3, pc}
 2219              	.L152:
 649:Core/Src/main.c ****   }
 2220              		.loc 1 649 5 is_stmt 1 view .LVU599
 2221 001a FFF7FEFF 		bl	Error_Handler
 2222              	.LVL134:
 655:Core/Src/main.c **** 
 2223              		.loc 1 655 1 is_stmt 0 view .LVU600
 2224 001e FBE7     		b	.L149
 2225              	.L154:
 2226              		.align	2
 2227              	.L153:
 2228 0020 00000000 		.word	hiwdg
 2229 0024 00300040 		.word	1073754112
 2230              		.cfi_endproc
 2231              	.LFE140:
 2233              		.section	.text.MX_UART4_Init,"ax",%progbits
 2234              		.align	1
 2235              		.syntax unified
 2236              		.thumb
 2237              		.thumb_func
 2239              	MX_UART4_Init:
 2240              	.LFB144:
 837:Core/Src/main.c **** 
 2241              		.loc 1 837 1 is_stmt 1 view -0
 2242              		.cfi_startproc
 2243              		@ args = 0, pretend = 0, frame = 0
 2244              		@ frame_needed = 0, uses_anonymous_args = 0
 2245 0000 08B5     		push	{r3, lr}
 2246              		.cfi_def_cfa_offset 8
 2247              		.cfi_offset 3, -8
 2248              		.cfi_offset 14, -4
 846:Core/Src/main.c ****   huart4.Init.BaudRate = 115200;
 2249              		.loc 1 846 3 view .LVU602
 846:Core/Src/main.c ****   huart4.Init.BaudRate = 115200;
 2250              		.loc 1 846 19 is_stmt 0 view .LVU603
 2251 0002 0A48     		ldr	r0, .L159
 2252 0004 0A4B     		ldr	r3, .L159+4
 2253 0006 0360     		str	r3, [r0]
 847:Core/Src/main.c ****   huart4.Init.WordLength = UART_WORDLENGTH_8B;
 2254              		.loc 1 847 3 is_stmt 1 view .LVU604
 847:Core/Src/main.c ****   huart4.Init.WordLength = UART_WORDLENGTH_8B;
 2255              		.loc 1 847 24 is_stmt 0 view .LVU605
 2256 0008 4FF4E133 		mov	r3, #115200
 2257 000c 4360     		str	r3, [r0, #4]
 848:Core/Src/main.c ****   huart4.Init.StopBits = UART_STOPBITS_1;
 2258              		.loc 1 848 3 is_stmt 1 view .LVU606
 848:Core/Src/main.c ****   huart4.Init.StopBits = UART_STOPBITS_1;
 2259              		.loc 1 848 26 is_stmt 0 view .LVU607
 2260 000e 0023     		movs	r3, #0
 2261 0010 8360     		str	r3, [r0, #8]
 849:Core/Src/main.c ****   huart4.Init.Parity = UART_PARITY_NONE;
 2262              		.loc 1 849 3 is_stmt 1 view .LVU608
ARM GAS  C:\Users\kroko\AppData\Local\Temp\ccpAdhTr.s 			page 91


 849:Core/Src/main.c ****   huart4.Init.Parity = UART_PARITY_NONE;
 2263              		.loc 1 849 24 is_stmt 0 view .LVU609
 2264 0012 C360     		str	r3, [r0, #12]
 850:Core/Src/main.c ****   huart4.Init.Mode = UART_MODE_TX_RX;
 2265              		.loc 1 850 3 is_stmt 1 view .LVU610
 850:Core/Src/main.c ****   huart4.Init.Mode = UART_MODE_TX_RX;
 2266              		.loc 1 850 22 is_stmt 0 view .LVU611
 2267 0014 0361     		str	r3, [r0, #16]
 851:Core/Src/main.c ****   huart4.Init.HwFlowCtl = UART_HWCONTROL_NONE;
 2268              		.loc 1 851 3 is_stmt 1 view .LVU612
 851:Core/Src/main.c ****   huart4.Init.HwFlowCtl = UART_HWCONTROL_NONE;
 2269              		.loc 1 851 20 is_stmt 0 view .LVU613
 2270 0016 0C22     		movs	r2, #12
 2271 0018 4261     		str	r2, [r0, #20]
 852:Core/Src/main.c ****   huart4.Init.OverSampling = UART_OVERSAMPLING_16;
 2272              		.loc 1 852 3 is_stmt 1 view .LVU614
 852:Core/Src/main.c ****   huart4.Init.OverSampling = UART_OVERSAMPLING_16;
 2273              		.loc 1 852 25 is_stmt 0 view .LVU615
 2274 001a 8361     		str	r3, [r0, #24]
 853:Core/Src/main.c ****   if (HAL_UART_Init(&huart4) != HAL_OK)
 2275              		.loc 1 853 3 is_stmt 1 view .LVU616
 853:Core/Src/main.c ****   if (HAL_UART_Init(&huart4) != HAL_OK)
 2276              		.loc 1 853 28 is_stmt 0 view .LVU617
 2277 001c C361     		str	r3, [r0, #28]
 854:Core/Src/main.c ****   {
 2278              		.loc 1 854 3 is_stmt 1 view .LVU618
 854:Core/Src/main.c ****   {
 2279              		.loc 1 854 7 is_stmt 0 view .LVU619
 2280 001e FFF7FEFF 		bl	HAL_UART_Init
 2281              	.LVL135:
 854:Core/Src/main.c ****   {
 2282              		.loc 1 854 6 discriminator 1 view .LVU620
 2283 0022 00B9     		cbnz	r0, .L158
 2284              	.L155:
 862:Core/Src/main.c **** 
 2285              		.loc 1 862 1 view .LVU621
 2286 0024 08BD     		pop	{r3, pc}
 2287              	.L158:
 856:Core/Src/main.c ****   }
 2288              		.loc 1 856 5 is_stmt 1 view .LVU622
 2289 0026 FFF7FEFF 		bl	Error_Handler
 2290              	.LVL136:
 862:Core/Src/main.c **** 
 2291              		.loc 1 862 1 is_stmt 0 view .LVU623
 2292 002a FBE7     		b	.L155
 2293              	.L160:
 2294              		.align	2
 2295              	.L159:
 2296 002c 00000000 		.word	huart4
 2297 0030 004C0040 		.word	1073761280
 2298              		.cfi_endproc
 2299              	.LFE144:
 2301              		.section	.text.MX_USART3_UART_Init,"ax",%progbits
 2302              		.align	1
 2303              		.syntax unified
 2304              		.thumb
 2305              		.thumb_func
ARM GAS  C:\Users\kroko\AppData\Local\Temp\ccpAdhTr.s 			page 92


 2307              	MX_USART3_UART_Init:
 2308              	.LFB147:
 936:Core/Src/main.c **** 
 2309              		.loc 1 936 1 is_stmt 1 view -0
 2310              		.cfi_startproc
 2311              		@ args = 0, pretend = 0, frame = 0
 2312              		@ frame_needed = 0, uses_anonymous_args = 0
 2313 0000 08B5     		push	{r3, lr}
 2314              		.cfi_def_cfa_offset 8
 2315              		.cfi_offset 3, -8
 2316              		.cfi_offset 14, -4
 945:Core/Src/main.c ****   huart3.Init.BaudRate = 115200;
 2317              		.loc 1 945 3 view .LVU625
 945:Core/Src/main.c ****   huart3.Init.BaudRate = 115200;
 2318              		.loc 1 945 19 is_stmt 0 view .LVU626
 2319 0002 0A48     		ldr	r0, .L165
 2320 0004 0A4B     		ldr	r3, .L165+4
 2321 0006 0360     		str	r3, [r0]
 946:Core/Src/main.c ****   huart3.Init.WordLength = UART_WORDLENGTH_8B;
 2322              		.loc 1 946 3 is_stmt 1 view .LVU627
 946:Core/Src/main.c ****   huart3.Init.WordLength = UART_WORDLENGTH_8B;
 2323              		.loc 1 946 24 is_stmt 0 view .LVU628
 2324 0008 4FF4E133 		mov	r3, #115200
 2325 000c 4360     		str	r3, [r0, #4]
 947:Core/Src/main.c ****   huart3.Init.StopBits = UART_STOPBITS_1;
 2326              		.loc 1 947 3 is_stmt 1 view .LVU629
 947:Core/Src/main.c ****   huart3.Init.StopBits = UART_STOPBITS_1;
 2327              		.loc 1 947 26 is_stmt 0 view .LVU630
 2328 000e 0023     		movs	r3, #0
 2329 0010 8360     		str	r3, [r0, #8]
 948:Core/Src/main.c ****   huart3.Init.Parity = UART_PARITY_NONE;
 2330              		.loc 1 948 3 is_stmt 1 view .LVU631
 948:Core/Src/main.c ****   huart3.Init.Parity = UART_PARITY_NONE;
 2331              		.loc 1 948 24 is_stmt 0 view .LVU632
 2332 0012 C360     		str	r3, [r0, #12]
 949:Core/Src/main.c ****   huart3.Init.Mode = UART_MODE_TX_RX;
 2333              		.loc 1 949 3 is_stmt 1 view .LVU633
 949:Core/Src/main.c ****   huart3.Init.Mode = UART_MODE_TX_RX;
 2334              		.loc 1 949 22 is_stmt 0 view .LVU634
 2335 0014 0361     		str	r3, [r0, #16]
 950:Core/Src/main.c ****   huart3.Init.HwFlowCtl = UART_HWCONTROL_NONE;
 2336              		.loc 1 950 3 is_stmt 1 view .LVU635
 950:Core/Src/main.c ****   huart3.Init.HwFlowCtl = UART_HWCONTROL_NONE;
 2337              		.loc 1 950 20 is_stmt 0 view .LVU636
 2338 0016 0C22     		movs	r2, #12
 2339 0018 4261     		str	r2, [r0, #20]
 951:Core/Src/main.c ****   huart3.Init.OverSampling = UART_OVERSAMPLING_16;
 2340              		.loc 1 951 3 is_stmt 1 view .LVU637
 951:Core/Src/main.c ****   huart3.Init.OverSampling = UART_OVERSAMPLING_16;
 2341              		.loc 1 951 25 is_stmt 0 view .LVU638
 2342 001a 8361     		str	r3, [r0, #24]
 952:Core/Src/main.c ****   if (HAL_UART_Init(&huart3) != HAL_OK)
 2343              		.loc 1 952 3 is_stmt 1 view .LVU639
 952:Core/Src/main.c ****   if (HAL_UART_Init(&huart3) != HAL_OK)
 2344              		.loc 1 952 28 is_stmt 0 view .LVU640
 2345 001c C361     		str	r3, [r0, #28]
 953:Core/Src/main.c ****   {
ARM GAS  C:\Users\kroko\AppData\Local\Temp\ccpAdhTr.s 			page 93


 2346              		.loc 1 953 3 is_stmt 1 view .LVU641
 953:Core/Src/main.c ****   {
 2347              		.loc 1 953 7 is_stmt 0 view .LVU642
 2348 001e FFF7FEFF 		bl	HAL_UART_Init
 2349              	.LVL137:
 953:Core/Src/main.c ****   {
 2350              		.loc 1 953 6 discriminator 1 view .LVU643
 2351 0022 00B9     		cbnz	r0, .L164
 2352              	.L161:
 961:Core/Src/main.c **** 
 2353              		.loc 1 961 1 view .LVU644
 2354 0024 08BD     		pop	{r3, pc}
 2355              	.L164:
 955:Core/Src/main.c ****   }
 2356              		.loc 1 955 5 is_stmt 1 view .LVU645
 2357 0026 FFF7FEFF 		bl	Error_Handler
 2358              	.LVL138:
 961:Core/Src/main.c **** 
 2359              		.loc 1 961 1 is_stmt 0 view .LVU646
 2360 002a FBE7     		b	.L161
 2361              	.L166:
 2362              		.align	2
 2363              	.L165:
 2364 002c 00000000 		.word	huart3
 2365 0030 00480040 		.word	1073760256
 2366              		.cfi_endproc
 2367              	.LFE147:
 2369              		.section	.text.MX_I2C1_Init,"ax",%progbits
 2370              		.align	1
 2371              		.syntax unified
 2372              		.thumb
 2373              		.thumb_func
 2375              	MX_I2C1_Init:
 2376              	.LFB139:
 601:Core/Src/main.c **** 
 2377              		.loc 1 601 1 is_stmt 1 view -0
 2378              		.cfi_startproc
 2379              		@ args = 0, pretend = 0, frame = 0
 2380              		@ frame_needed = 0, uses_anonymous_args = 0
 2381 0000 08B5     		push	{r3, lr}
 2382              		.cfi_def_cfa_offset 8
 2383              		.cfi_offset 3, -8
 2384              		.cfi_offset 14, -4
 610:Core/Src/main.c ****   hi2c1.Init.ClockSpeed = 100000;
 2385              		.loc 1 610 3 view .LVU648
 610:Core/Src/main.c ****   hi2c1.Init.ClockSpeed = 100000;
 2386              		.loc 1 610 18 is_stmt 0 view .LVU649
 2387 0002 0B48     		ldr	r0, .L171
 2388 0004 0B4B     		ldr	r3, .L171+4
 2389 0006 0360     		str	r3, [r0]
 611:Core/Src/main.c ****   hi2c1.Init.DutyCycle = I2C_DUTYCYCLE_2;
 2390              		.loc 1 611 3 is_stmt 1 view .LVU650
 611:Core/Src/main.c ****   hi2c1.Init.DutyCycle = I2C_DUTYCYCLE_2;
 2391              		.loc 1 611 25 is_stmt 0 view .LVU651
 2392 0008 0B4B     		ldr	r3, .L171+8
 2393 000a 4360     		str	r3, [r0, #4]
 612:Core/Src/main.c ****   hi2c1.Init.OwnAddress1 = 0;
ARM GAS  C:\Users\kroko\AppData\Local\Temp\ccpAdhTr.s 			page 94


 2394              		.loc 1 612 3 is_stmt 1 view .LVU652
 612:Core/Src/main.c ****   hi2c1.Init.OwnAddress1 = 0;
 2395              		.loc 1 612 24 is_stmt 0 view .LVU653
 2396 000c 0023     		movs	r3, #0
 2397 000e 8360     		str	r3, [r0, #8]
 613:Core/Src/main.c ****   hi2c1.Init.AddressingMode = I2C_ADDRESSINGMODE_7BIT;
 2398              		.loc 1 613 3 is_stmt 1 view .LVU654
 613:Core/Src/main.c ****   hi2c1.Init.AddressingMode = I2C_ADDRESSINGMODE_7BIT;
 2399              		.loc 1 613 26 is_stmt 0 view .LVU655
 2400 0010 C360     		str	r3, [r0, #12]
 614:Core/Src/main.c ****   hi2c1.Init.DualAddressMode = I2C_DUALADDRESS_DISABLE;
 2401              		.loc 1 614 3 is_stmt 1 view .LVU656
 614:Core/Src/main.c ****   hi2c1.Init.DualAddressMode = I2C_DUALADDRESS_DISABLE;
 2402              		.loc 1 614 29 is_stmt 0 view .LVU657
 2403 0012 4FF48042 		mov	r2, #16384
 2404 0016 0261     		str	r2, [r0, #16]
 615:Core/Src/main.c ****   hi2c1.Init.OwnAddress2 = 0;
 2405              		.loc 1 615 3 is_stmt 1 view .LVU658
 615:Core/Src/main.c ****   hi2c1.Init.OwnAddress2 = 0;
 2406              		.loc 1 615 30 is_stmt 0 view .LVU659
 2407 0018 4361     		str	r3, [r0, #20]
 616:Core/Src/main.c ****   hi2c1.Init.GeneralCallMode = I2C_GENERALCALL_DISABLE;
 2408              		.loc 1 616 3 is_stmt 1 view .LVU660
 616:Core/Src/main.c ****   hi2c1.Init.GeneralCallMode = I2C_GENERALCALL_DISABLE;
 2409              		.loc 1 616 26 is_stmt 0 view .LVU661
 2410 001a 8361     		str	r3, [r0, #24]
 617:Core/Src/main.c ****   hi2c1.Init.NoStretchMode = I2C_NOSTRETCH_DISABLE;
 2411              		.loc 1 617 3 is_stmt 1 view .LVU662
 617:Core/Src/main.c ****   hi2c1.Init.NoStretchMode = I2C_NOSTRETCH_DISABLE;
 2412              		.loc 1 617 30 is_stmt 0 view .LVU663
 2413 001c C361     		str	r3, [r0, #28]
 618:Core/Src/main.c ****   if (HAL_I2C_Init(&hi2c1) != HAL_OK)
 2414              		.loc 1 618 3 is_stmt 1 view .LVU664
 618:Core/Src/main.c ****   if (HAL_I2C_Init(&hi2c1) != HAL_OK)
 2415              		.loc 1 618 28 is_stmt 0 view .LVU665
 2416 001e 0362     		str	r3, [r0, #32]
 619:Core/Src/main.c ****   {
 2417              		.loc 1 619 3 is_stmt 1 view .LVU666
 619:Core/Src/main.c ****   {
 2418              		.loc 1 619 7 is_stmt 0 view .LVU667
 2419 0020 FFF7FEFF 		bl	HAL_I2C_Init
 2420              	.LVL139:
 619:Core/Src/main.c ****   {
 2421              		.loc 1 619 6 discriminator 1 view .LVU668
 2422 0024 00B9     		cbnz	r0, .L170
 2423              	.L167:
 627:Core/Src/main.c **** 
 2424              		.loc 1 627 1 view .LVU669
 2425 0026 08BD     		pop	{r3, pc}
 2426              	.L170:
 621:Core/Src/main.c ****   }
 2427              		.loc 1 621 5 is_stmt 1 view .LVU670
 2428 0028 FFF7FEFF 		bl	Error_Handler
 2429              	.LVL140:
 627:Core/Src/main.c **** 
 2430              		.loc 1 627 1 is_stmt 0 view .LVU671
 2431 002c FBE7     		b	.L167
ARM GAS  C:\Users\kroko\AppData\Local\Temp\ccpAdhTr.s 			page 95


 2432              	.L172:
 2433 002e 00BF     		.align	2
 2434              	.L171:
 2435 0030 00000000 		.word	hi2c1
 2436 0034 00540040 		.word	1073763328
 2437 0038 A0860100 		.word	100000
 2438              		.cfi_endproc
 2439              	.LFE139:
 2441              		.section	.text.SystemClock_Config,"ax",%progbits
 2442              		.align	1
 2443              		.global	SystemClock_Config
 2444              		.syntax unified
 2445              		.thumb
 2446              		.thumb_func
 2448              	SystemClock_Config:
 2449              	.LFB138:
 551:Core/Src/main.c ****   RCC_OscInitTypeDef RCC_OscInitStruct = {0};
 2450              		.loc 1 551 1 is_stmt 1 view -0
 2451              		.cfi_startproc
 2452              		@ args = 0, pretend = 0, frame = 80
 2453              		@ frame_needed = 0, uses_anonymous_args = 0
 2454 0000 00B5     		push	{lr}
 2455              		.cfi_def_cfa_offset 4
 2456              		.cfi_offset 14, -4
 2457 0002 95B0     		sub	sp, sp, #84
 2458              		.cfi_def_cfa_offset 88
 552:Core/Src/main.c ****   RCC_ClkInitTypeDef RCC_ClkInitStruct = {0};
 2459              		.loc 1 552 3 view .LVU673
 552:Core/Src/main.c ****   RCC_ClkInitTypeDef RCC_ClkInitStruct = {0};
 2460              		.loc 1 552 22 is_stmt 0 view .LVU674
 2461 0004 3422     		movs	r2, #52
 2462 0006 0021     		movs	r1, #0
 2463 0008 07A8     		add	r0, sp, #28
 2464 000a FFF7FEFF 		bl	memset
 2465              	.LVL141:
 553:Core/Src/main.c **** 
 2466              		.loc 1 553 3 is_stmt 1 view .LVU675
 553:Core/Src/main.c **** 
 2467              		.loc 1 553 22 is_stmt 0 view .LVU676
 2468 000e 0023     		movs	r3, #0
 2469 0010 0293     		str	r3, [sp, #8]
 2470 0012 0393     		str	r3, [sp, #12]
 2471 0014 0493     		str	r3, [sp, #16]
 2472 0016 0593     		str	r3, [sp, #20]
 2473 0018 0693     		str	r3, [sp, #24]
 557:Core/Src/main.c ****   __HAL_PWR_VOLTAGESCALING_CONFIG(PWR_REGULATOR_VOLTAGE_SCALE1);
 2474              		.loc 1 557 3 is_stmt 1 view .LVU677
 2475              	.LBB18:
 557:Core/Src/main.c ****   __HAL_PWR_VOLTAGESCALING_CONFIG(PWR_REGULATOR_VOLTAGE_SCALE1);
 2476              		.loc 1 557 3 view .LVU678
 2477 001a 0093     		str	r3, [sp]
 557:Core/Src/main.c ****   __HAL_PWR_VOLTAGESCALING_CONFIG(PWR_REGULATOR_VOLTAGE_SCALE1);
 2478              		.loc 1 557 3 view .LVU679
 2479 001c 224A     		ldr	r2, .L179
 2480 001e 116C     		ldr	r1, [r2, #64]
 2481 0020 41F08051 		orr	r1, r1, #268435456
 2482 0024 1164     		str	r1, [r2, #64]
ARM GAS  C:\Users\kroko\AppData\Local\Temp\ccpAdhTr.s 			page 96


 557:Core/Src/main.c ****   __HAL_PWR_VOLTAGESCALING_CONFIG(PWR_REGULATOR_VOLTAGE_SCALE1);
 2483              		.loc 1 557 3 view .LVU680
 2484 0026 126C     		ldr	r2, [r2, #64]
 2485 0028 02F08052 		and	r2, r2, #268435456
 2486 002c 0092     		str	r2, [sp]
 557:Core/Src/main.c ****   __HAL_PWR_VOLTAGESCALING_CONFIG(PWR_REGULATOR_VOLTAGE_SCALE1);
 2487              		.loc 1 557 3 view .LVU681
 2488 002e 009A     		ldr	r2, [sp]
 2489              	.LBE18:
 557:Core/Src/main.c ****   __HAL_PWR_VOLTAGESCALING_CONFIG(PWR_REGULATOR_VOLTAGE_SCALE1);
 2490              		.loc 1 557 3 view .LVU682
 558:Core/Src/main.c **** 
 2491              		.loc 1 558 3 view .LVU683
 2492              	.LBB19:
 558:Core/Src/main.c **** 
 2493              		.loc 1 558 3 view .LVU684
 2494 0030 0193     		str	r3, [sp, #4]
 558:Core/Src/main.c **** 
 2495              		.loc 1 558 3 view .LVU685
 2496 0032 1E4B     		ldr	r3, .L179+4
 2497 0034 1A68     		ldr	r2, [r3]
 2498 0036 42F44042 		orr	r2, r2, #49152
 2499 003a 1A60     		str	r2, [r3]
 558:Core/Src/main.c **** 
 2500              		.loc 1 558 3 view .LVU686
 2501 003c 1B68     		ldr	r3, [r3]
 2502 003e 03F44043 		and	r3, r3, #49152
 2503 0042 0193     		str	r3, [sp, #4]
 558:Core/Src/main.c **** 
 2504              		.loc 1 558 3 view .LVU687
 2505 0044 019B     		ldr	r3, [sp, #4]
 2506              	.LBE19:
 558:Core/Src/main.c **** 
 2507              		.loc 1 558 3 view .LVU688
 563:Core/Src/main.c ****                               |RCC_OSCILLATORTYPE_LSE;
 2508              		.loc 1 563 3 view .LVU689
 563:Core/Src/main.c ****                               |RCC_OSCILLATORTYPE_LSE;
 2509              		.loc 1 563 36 is_stmt 0 view .LVU690
 2510 0046 0D23     		movs	r3, #13
 2511 0048 0793     		str	r3, [sp, #28]
 565:Core/Src/main.c ****   RCC_OscInitStruct.LSEState = RCC_LSE_ON;
 2512              		.loc 1 565 3 is_stmt 1 view .LVU691
 565:Core/Src/main.c ****   RCC_OscInitStruct.LSEState = RCC_LSE_ON;
 2513              		.loc 1 565 30 is_stmt 0 view .LVU692
 2514 004a 4FF48033 		mov	r3, #65536
 2515 004e 0893     		str	r3, [sp, #32]
 566:Core/Src/main.c ****   RCC_OscInitStruct.LSIState = RCC_LSI_ON;
 2516              		.loc 1 566 3 is_stmt 1 view .LVU693
 566:Core/Src/main.c ****   RCC_OscInitStruct.LSIState = RCC_LSI_ON;
 2517              		.loc 1 566 30 is_stmt 0 view .LVU694
 2518 0050 0123     		movs	r3, #1
 2519 0052 0993     		str	r3, [sp, #36]
 567:Core/Src/main.c ****   RCC_OscInitStruct.PLL.PLLState = RCC_PLL_ON;
 2520              		.loc 1 567 3 is_stmt 1 view .LVU695
 567:Core/Src/main.c ****   RCC_OscInitStruct.PLL.PLLState = RCC_PLL_ON;
 2521              		.loc 1 567 30 is_stmt 0 view .LVU696
 2522 0054 0C93     		str	r3, [sp, #48]
ARM GAS  C:\Users\kroko\AppData\Local\Temp\ccpAdhTr.s 			page 97


 568:Core/Src/main.c ****   RCC_OscInitStruct.PLL.PLLSource = RCC_PLLSOURCE_HSE;
 2523              		.loc 1 568 3 is_stmt 1 view .LVU697
 568:Core/Src/main.c ****   RCC_OscInitStruct.PLL.PLLSource = RCC_PLLSOURCE_HSE;
 2524              		.loc 1 568 34 is_stmt 0 view .LVU698
 2525 0056 0223     		movs	r3, #2
 2526 0058 0D93     		str	r3, [sp, #52]
 569:Core/Src/main.c ****   RCC_OscInitStruct.PLL.PLLM = 4;
 2527              		.loc 1 569 3 is_stmt 1 view .LVU699
 569:Core/Src/main.c ****   RCC_OscInitStruct.PLL.PLLM = 4;
 2528              		.loc 1 569 35 is_stmt 0 view .LVU700
 2529 005a 4FF48002 		mov	r2, #4194304
 2530 005e 0E92     		str	r2, [sp, #56]
 570:Core/Src/main.c ****   RCC_OscInitStruct.PLL.PLLN = 96;
 2531              		.loc 1 570 3 is_stmt 1 view .LVU701
 570:Core/Src/main.c ****   RCC_OscInitStruct.PLL.PLLN = 96;
 2532              		.loc 1 570 30 is_stmt 0 view .LVU702
 2533 0060 0422     		movs	r2, #4
 2534 0062 0F92     		str	r2, [sp, #60]
 571:Core/Src/main.c ****   RCC_OscInitStruct.PLL.PLLP = RCC_PLLP_DIV2;
 2535              		.loc 1 571 3 is_stmt 1 view .LVU703
 571:Core/Src/main.c ****   RCC_OscInitStruct.PLL.PLLP = RCC_PLLP_DIV2;
 2536              		.loc 1 571 30 is_stmt 0 view .LVU704
 2537 0064 6022     		movs	r2, #96
 2538 0066 1092     		str	r2, [sp, #64]
 572:Core/Src/main.c ****   RCC_OscInitStruct.PLL.PLLQ = 2;
 2539              		.loc 1 572 3 is_stmt 1 view .LVU705
 572:Core/Src/main.c ****   RCC_OscInitStruct.PLL.PLLQ = 2;
 2540              		.loc 1 572 30 is_stmt 0 view .LVU706
 2541 0068 1193     		str	r3, [sp, #68]
 573:Core/Src/main.c ****   RCC_OscInitStruct.PLL.PLLR = 2;
 2542              		.loc 1 573 3 is_stmt 1 view .LVU707
 573:Core/Src/main.c ****   RCC_OscInitStruct.PLL.PLLR = 2;
 2543              		.loc 1 573 30 is_stmt 0 view .LVU708
 2544 006a 1293     		str	r3, [sp, #72]
 574:Core/Src/main.c ****   if (HAL_RCC_OscConfig(&RCC_OscInitStruct) != HAL_OK)
 2545              		.loc 1 574 3 is_stmt 1 view .LVU709
 574:Core/Src/main.c ****   if (HAL_RCC_OscConfig(&RCC_OscInitStruct) != HAL_OK)
 2546              		.loc 1 574 30 is_stmt 0 view .LVU710
 2547 006c 1393     		str	r3, [sp, #76]
 575:Core/Src/main.c ****   {
 2548              		.loc 1 575 3 is_stmt 1 view .LVU711
 575:Core/Src/main.c ****   {
 2549              		.loc 1 575 7 is_stmt 0 view .LVU712
 2550 006e 07A8     		add	r0, sp, #28
 2551 0070 FFF7FEFF 		bl	HAL_RCC_OscConfig
 2552              	.LVL142:
 575:Core/Src/main.c ****   {
 2553              		.loc 1 575 6 discriminator 1 view .LVU713
 2554 0074 88B9     		cbnz	r0, .L177
 2555              	.L174:
 582:Core/Src/main.c ****                               |RCC_CLOCKTYPE_PCLK1|RCC_CLOCKTYPE_PCLK2;
 2556              		.loc 1 582 3 is_stmt 1 view .LVU714
 582:Core/Src/main.c ****                               |RCC_CLOCKTYPE_PCLK1|RCC_CLOCKTYPE_PCLK2;
 2557              		.loc 1 582 31 is_stmt 0 view .LVU715
 2558 0076 0F23     		movs	r3, #15
 2559 0078 0293     		str	r3, [sp, #8]
 584:Core/Src/main.c ****   RCC_ClkInitStruct.AHBCLKDivider = RCC_SYSCLK_DIV1;
ARM GAS  C:\Users\kroko\AppData\Local\Temp\ccpAdhTr.s 			page 98


 2560              		.loc 1 584 3 is_stmt 1 view .LVU716
 584:Core/Src/main.c ****   RCC_ClkInitStruct.AHBCLKDivider = RCC_SYSCLK_DIV1;
 2561              		.loc 1 584 34 is_stmt 0 view .LVU717
 2562 007a 0223     		movs	r3, #2
 2563 007c 0393     		str	r3, [sp, #12]
 585:Core/Src/main.c ****   RCC_ClkInitStruct.APB1CLKDivider = RCC_HCLK_DIV2;
 2564              		.loc 1 585 3 is_stmt 1 view .LVU718
 585:Core/Src/main.c ****   RCC_ClkInitStruct.APB1CLKDivider = RCC_HCLK_DIV2;
 2565              		.loc 1 585 35 is_stmt 0 view .LVU719
 2566 007e 0023     		movs	r3, #0
 2567 0080 0493     		str	r3, [sp, #16]
 586:Core/Src/main.c ****   RCC_ClkInitStruct.APB2CLKDivider = RCC_HCLK_DIV1;
 2568              		.loc 1 586 3 is_stmt 1 view .LVU720
 586:Core/Src/main.c ****   RCC_ClkInitStruct.APB2CLKDivider = RCC_HCLK_DIV1;
 2569              		.loc 1 586 36 is_stmt 0 view .LVU721
 2570 0082 4FF48052 		mov	r2, #4096
 2571 0086 0592     		str	r2, [sp, #20]
 587:Core/Src/main.c **** 
 2572              		.loc 1 587 3 is_stmt 1 view .LVU722
 587:Core/Src/main.c **** 
 2573              		.loc 1 587 36 is_stmt 0 view .LVU723
 2574 0088 0693     		str	r3, [sp, #24]
 589:Core/Src/main.c ****   {
 2575              		.loc 1 589 3 is_stmt 1 view .LVU724
 589:Core/Src/main.c ****   {
 2576              		.loc 1 589 7 is_stmt 0 view .LVU725
 2577 008a 0321     		movs	r1, #3
 2578 008c 02A8     		add	r0, sp, #8
 2579 008e FFF7FEFF 		bl	HAL_RCC_ClockConfig
 2580              	.LVL143:
 589:Core/Src/main.c ****   {
 2581              		.loc 1 589 6 discriminator 1 view .LVU726
 2582 0092 28B9     		cbnz	r0, .L178
 2583              	.L173:
 593:Core/Src/main.c **** 
 2584              		.loc 1 593 1 view .LVU727
 2585 0094 15B0     		add	sp, sp, #84
 2586              		.cfi_remember_state
 2587              		.cfi_def_cfa_offset 4
 2588              		@ sp needed
 2589 0096 5DF804FB 		ldr	pc, [sp], #4
 2590              	.L177:
 2591              		.cfi_restore_state
 577:Core/Src/main.c ****   }
 2592              		.loc 1 577 5 is_stmt 1 view .LVU728
 2593 009a FFF7FEFF 		bl	Error_Handler
 2594              	.LVL144:
 2595 009e EAE7     		b	.L174
 2596              	.L178:
 591:Core/Src/main.c ****   }
 2597              		.loc 1 591 5 view .LVU729
 2598 00a0 FFF7FEFF 		bl	Error_Handler
 2599              	.LVL145:
 593:Core/Src/main.c **** 
 2600              		.loc 1 593 1 is_stmt 0 view .LVU730
 2601 00a4 F6E7     		b	.L173
 2602              	.L180:
ARM GAS  C:\Users\kroko\AppData\Local\Temp\ccpAdhTr.s 			page 99


 2603 00a6 00BF     		.align	2
 2604              	.L179:
 2605 00a8 00380240 		.word	1073887232
 2606 00ac 00700040 		.word	1073770496
 2607              		.cfi_endproc
 2608              	.LFE138:
 2610              		.section	.rodata.getTime.str1.4,"aMS",%progbits,1
 2611              		.align	2
 2612              	.LC14:
 2613 0000 41542B43 		.ascii	"AT+CCLK?\000"
 2613      434C4B3F 
 2613      00
 2614 0009 000000   		.align	2
 2615              	.LC15:
 2616 000c 2B43434C 		.ascii	"+CCLK\000"
 2616      4B00
 2617 0012 0000     		.align	2
 2618              	.LC16:
 2619 0014 2B43434C 		.ascii	"+CCLK: \"%8s,%8s%3s\"\000"
 2619      4B3A2022 
 2619      2538732C 
 2619      25387325 
 2619      33732200 
 2620              		.align	2
 2621              	.LC17:
 2622 0028 2532642F 		.ascii	"%2d/%2d/%2d\000"
 2622      2532642F 
 2622      25326400 
 2623              		.align	2
 2624              	.LC18:
 2625 0034 2532643A 		.ascii	"%2d:%2d:%2d\000"
 2625      2532643A 
 2625      25326400 
 2626              		.section	.text.getTime,"ax",%progbits
 2627              		.align	1
 2628              		.global	getTime
 2629              		.syntax unified
 2630              		.thumb
 2631              		.thumb_func
 2633              	getTime:
 2634              	.LFB163:
1425:Core/Src/main.c ****   char time[30];
 2635              		.loc 1 1425 15 is_stmt 1 view -0
 2636              		.cfi_startproc
 2637              		@ args = 0, pretend = 0, frame = 96
 2638              		@ frame_needed = 0, uses_anonymous_args = 0
 2639 0000 00B5     		push	{lr}
 2640              		.cfi_def_cfa_offset 4
 2641              		.cfi_offset 14, -4
 2642 0002 9BB0     		sub	sp, sp, #108
 2643              		.cfi_def_cfa_offset 112
1426:Core/Src/main.c **** 
 2644              		.loc 1 1426 3 view .LVU732
1428:Core/Src/main.c ****   HAL_Delay(50);
 2645              		.loc 1 1428 3 view .LVU733
 2646 0004 4248     		ldr	r0, .L198
 2647 0006 FFF7FEFF 		bl	SIM_sendCommand
ARM GAS  C:\Users\kroko\AppData\Local\Temp\ccpAdhTr.s 			page 100


 2648              	.LVL146:
1429:Core/Src/main.c **** 
 2649              		.loc 1 1429 3 view .LVU734
 2650 000a 3220     		movs	r0, #50
 2651 000c FFF7FEFF 		bl	HAL_Delay
 2652              	.LVL147:
1431:Core/Src/main.c ****   char *cclk = "+CCLK";
 2653              		.loc 1 1431 3 view .LVU735
1432:Core/Src/main.c ****   for(i=0; SIMrxBuffer[i]!='\0'; i++) {
 2654              		.loc 1 1432 3 view .LVU736
1433:Core/Src/main.c ****     for(j=i, k=0; cclk[k]!='\0' && SIMrxBuffer[j]==cclk[k]; j++, k++)
 2655              		.loc 1 1433 3 view .LVU737
1433:Core/Src/main.c ****     for(j=i, k=0; cclk[k]!='\0' && SIMrxBuffer[j]==cclk[k]; j++, k++)
 2656              		.loc 1 1433 8 is_stmt 0 view .LVU738
 2657 0010 4FF0000C 		mov	ip, #0
1433:Core/Src/main.c ****     for(j=i, k=0; cclk[k]!='\0' && SIMrxBuffer[j]==cclk[k]; j++, k++)
 2658              		.loc 1 1433 3 view .LVU739
 2659 0014 0DE0     		b	.L182
 2660              	.LVL148:
 2661              	.L184:
1434:Core/Src/main.c ****         ;
 2662              		.loc 1 1434 64 is_stmt 1 discriminator 4 view .LVU740
1434:Core/Src/main.c ****         ;
 2663              		.loc 1 1434 62 is_stmt 0 discriminator 4 view .LVU741
 2664 0016 0131     		adds	r1, r1, #1
 2665              	.LVL149:
1434:Core/Src/main.c ****         ;
 2666              		.loc 1 1434 67 discriminator 4 view .LVU742
 2667 0018 0132     		adds	r2, r2, #1
 2668              	.LVL150:
 2669              	.L189:
1434:Core/Src/main.c ****         ;
 2670              		.loc 1 1434 33 is_stmt 1 discriminator 1 view .LVU743
1434:Core/Src/main.c ****         ;
 2671              		.loc 1 1434 23 is_stmt 0 discriminator 1 view .LVU744
 2672 001a 3E4B     		ldr	r3, .L198+4
 2673 001c 9B5C     		ldrb	r3, [r3, r2]	@ zero_extendqisi2
1434:Core/Src/main.c ****         ;
 2674              		.loc 1 1434 33 discriminator 1 view .LVU745
 2675 001e 1BB1     		cbz	r3, .L183
1434:Core/Src/main.c ****         ;
 2676              		.loc 1 1434 47 discriminator 3 view .LVU746
 2677 0020 3D48     		ldr	r0, .L198+8
 2678 0022 405C     		ldrb	r0, [r0, r1]	@ zero_extendqisi2
1434:Core/Src/main.c ****         ;
 2679              		.loc 1 1434 33 discriminator 3 view .LVU747
 2680 0024 8342     		cmp	r3, r0
 2681 0026 F6D0     		beq	.L184
 2682              	.L183:
1436:Core/Src/main.c ****     {
 2683              		.loc 1 1436 5 is_stmt 1 view .LVU748
1436:Core/Src/main.c ****     {
 2684              		.loc 1 1436 7 is_stmt 0 view .LVU749
 2685 0028 002A     		cmp	r2, #0
 2686 002a 00DD     		ble	.L185
1436:Core/Src/main.c ****     {
 2687              		.loc 1 1436 12 discriminator 1 view .LVU750
ARM GAS  C:\Users\kroko\AppData\Local\Temp\ccpAdhTr.s 			page 101


 2688 002c 9BB1     		cbz	r3, .L186
 2689              	.L185:
1433:Core/Src/main.c ****     for(j=i, k=0; cclk[k]!='\0' && SIMrxBuffer[j]==cclk[k]; j++, k++)
 2690              		.loc 1 1433 35 is_stmt 1 discriminator 2 view .LVU751
 2691 002e 0CF1010C 		add	ip, ip, #1
 2692              	.LVL151:
 2693              	.L182:
1433:Core/Src/main.c ****     for(j=i, k=0; cclk[k]!='\0' && SIMrxBuffer[j]==cclk[k]; j++, k++)
 2694              		.loc 1 1433 26 discriminator 1 view .LVU752
1433:Core/Src/main.c ****     for(j=i, k=0; cclk[k]!='\0' && SIMrxBuffer[j]==cclk[k]; j++, k++)
 2695              		.loc 1 1433 23 is_stmt 0 discriminator 1 view .LVU753
 2696 0032 394B     		ldr	r3, .L198+8
 2697 0034 13F80C30 		ldrb	r3, [r3, ip]	@ zero_extendqisi2
1433:Core/Src/main.c ****     for(j=i, k=0; cclk[k]!='\0' && SIMrxBuffer[j]==cclk[k]; j++, k++)
 2698              		.loc 1 1433 26 discriminator 1 view .LVU754
 2699 0038 7BB1     		cbz	r3, .L188
1434:Core/Src/main.c ****         ;
 2700              		.loc 1 1434 10 view .LVU755
 2701 003a 6146     		mov	r1, ip
1434:Core/Src/main.c ****         ;
 2702              		.loc 1 1434 15 view .LVU756
 2703 003c 0022     		movs	r2, #0
 2704 003e ECE7     		b	.L189
 2705              	.LVL152:
 2706              	.L187:
 2707              	.LBB20:
1439:Core/Src/main.c ****         }
 2708              		.loc 1 1439 11 is_stmt 1 view .LVU757
1439:Core/Src/main.c ****         }
 2709              		.loc 1 1439 34 is_stmt 0 view .LVU758
 2710 0040 03EB0C02 		add	r2, r3, ip
1439:Core/Src/main.c ****         }
 2711              		.loc 1 1439 32 view .LVU759
 2712 0044 3449     		ldr	r1, .L198+8
 2713 0046 895C     		ldrb	r1, [r1, r2]	@ zero_extendqisi2
1439:Core/Src/main.c ****         }
 2714              		.loc 1 1439 19 view .LVU760
 2715 0048 03F16802 		add	r2, r3, #104
 2716 004c 6A44     		add	r2, sp, r2
 2717 004e 02F8201C 		strb	r1, [r2, #-32]
1438:Core/Src/main.c ****           time[l] = SIMrxBuffer[i+l];
 2718              		.loc 1 1438 38 is_stmt 1 discriminator 3 view .LVU761
 2719 0052 0133     		adds	r3, r3, #1
 2720              	.LVL153:
1438:Core/Src/main.c ****           time[l] = SIMrxBuffer[i+l];
 2721              		.loc 1 1438 38 is_stmt 0 discriminator 3 view .LVU762
 2722 0054 DBB2     		uxtb	r3, r3
 2723              	.LVL154:
 2724              	.L186:
1438:Core/Src/main.c ****           time[l] = SIMrxBuffer[i+l];
 2725              		.loc 1 1438 31 is_stmt 1 discriminator 1 view .LVU763
 2726 0056 1D2B     		cmp	r3, #29
 2727 0058 F2D9     		bls	.L187
 2728              	.LVL155:
 2729              	.L188:
1438:Core/Src/main.c ****           time[l] = SIMrxBuffer[i+l];
 2730              		.loc 1 1438 31 is_stmt 0 discriminator 1 view .LVU764
ARM GAS  C:\Users\kroko\AppData\Local\Temp\ccpAdhTr.s 			page 102


 2731              	.LBE20:
1444:Core/Src/main.c ****   //Show_Message(time, 1000);
 2732              		.loc 1 1444 3 is_stmt 1 view .LVU765
1444:Core/Src/main.c ****   //Show_Message(time, 1000);
 2733              		.loc 1 1444 12 is_stmt 0 view .LVU766
 2734 005a 0023     		movs	r3, #0
 2735 005c 8DF86530 		strb	r3, [sp, #101]
1447:Core/Src/main.c ****   RTC_TimeTypeDef nTime;
 2736              		.loc 1 1447 3 is_stmt 1 view .LVU767
1448:Core/Src/main.c ****   // BUG!!!!!!
 2737              		.loc 1 1448 3 view .LVU768
1451:Core/Src/main.c ****   char time_part[9];   // For "14:45:30"
 2738              		.loc 1 1451 3 view .LVU769
1452:Core/Src/main.c ****   char offset_part[4]; // For "+05"
 2739              		.loc 1 1452 3 view .LVU770
1453:Core/Src/main.c ****   
 2740              		.loc 1 1453 3 view .LVU771
1456:Core/Src/main.c **** 
 2741              		.loc 1 1456 3 view .LVU772
1456:Core/Src/main.c **** 
 2742              		.loc 1 1456 16 is_stmt 0 view .LVU773
 2743 0060 05AB     		add	r3, sp, #20
 2744 0062 0093     		str	r3, [sp]
 2745 0064 06AB     		add	r3, sp, #24
 2746 0066 09AA     		add	r2, sp, #36
 2747 0068 2C49     		ldr	r1, .L198+12
 2748 006a 12A8     		add	r0, sp, #72
 2749 006c FFF7FEFF 		bl	sscanf
 2750              	.LVL156:
1458:Core/Src/main.c ****     // Now parse the date part (e.g., "23/12/31")
 2751              		.loc 1 1458 3 is_stmt 1 view .LVU774
1458:Core/Src/main.c ****     // Now parse the date part (e.g., "23/12/31")
 2752              		.loc 1 1458 6 is_stmt 0 view .LVU775
 2753 0070 0328     		cmp	r0, #3
 2754 0072 02D0     		beq	.L195
 2755              	.LVL157:
 2756              	.L181:
1491:Core/Src/main.c **** 
 2757              		.loc 1 1491 1 view .LVU776
 2758 0074 1BB0     		add	sp, sp, #108
 2759              		.cfi_remember_state
 2760              		.cfi_def_cfa_offset 4
 2761              		@ sp needed
 2762 0076 5DF804FB 		ldr	pc, [sp], #4
 2763              	.LVL158:
 2764              	.L195:
 2765              		.cfi_restore_state
 2766              	.LBB21:
1460:Core/Src/main.c ****     sscanf(date_part, "%2d/%2d/%2d", &year, &month, &day);
 2767              		.loc 1 1460 5 is_stmt 1 view .LVU777
1461:Core/Src/main.c **** 
 2768              		.loc 1 1461 5 view .LVU778
 2769 007a 0DF10E03 		add	r3, sp, #14
 2770 007e 0093     		str	r3, [sp]
 2771 0080 0DF10F03 		add	r3, sp, #15
 2772 0084 04AA     		add	r2, sp, #16
 2773 0086 2649     		ldr	r1, .L198+16
ARM GAS  C:\Users\kroko\AppData\Local\Temp\ccpAdhTr.s 			page 103


 2774 0088 09A8     		add	r0, sp, #36
 2775              	.LVL159:
1461:Core/Src/main.c **** 
 2776              		.loc 1 1461 5 is_stmt 0 view .LVU779
 2777 008a FFF7FEFF 		bl	sscanf
 2778              	.LVL160:
1464:Core/Src/main.c ****     nDate.Month = month;
 2779              		.loc 1 1464 5 is_stmt 1 view .LVU780
1464:Core/Src/main.c ****     nDate.Month = month;
 2780              		.loc 1 1464 16 is_stmt 0 view .LVU781
 2781 008e 9DF81030 		ldrb	r3, [sp, #16]	@ zero_extendqisi2
 2782 0092 8DF84730 		strb	r3, [sp, #71]
1465:Core/Src/main.c ****     nDate.Date = day;
 2783              		.loc 1 1465 5 is_stmt 1 view .LVU782
1465:Core/Src/main.c ****     nDate.Date = day;
 2784              		.loc 1 1465 17 is_stmt 0 view .LVU783
 2785 0096 9DF80F30 		ldrb	r3, [sp, #15]	@ zero_extendqisi2
 2786 009a 8DF84530 		strb	r3, [sp, #69]
1466:Core/Src/main.c ****     nDate.WeekDay = 5;
 2787              		.loc 1 1466 5 is_stmt 1 view .LVU784
1466:Core/Src/main.c ****     nDate.WeekDay = 5;
 2788              		.loc 1 1466 16 is_stmt 0 view .LVU785
 2789 009e 9DF80E30 		ldrb	r3, [sp, #14]	@ zero_extendqisi2
 2790 00a2 8DF84630 		strb	r3, [sp, #70]
1467:Core/Src/main.c **** 
 2791              		.loc 1 1467 5 is_stmt 1 view .LVU786
1467:Core/Src/main.c **** 
 2792              		.loc 1 1467 19 is_stmt 0 view .LVU787
 2793 00a6 0523     		movs	r3, #5
 2794 00a8 8DF84430 		strb	r3, [sp, #68]
1469:Core/Src/main.c ****     {
 2795              		.loc 1 1469 5 is_stmt 1 view .LVU788
1469:Core/Src/main.c ****     {
 2796              		.loc 1 1469 9 is_stmt 0 view .LVU789
 2797 00ac 0022     		movs	r2, #0
 2798 00ae 11A9     		add	r1, sp, #68
 2799 00b0 1C48     		ldr	r0, .L198+20
 2800 00b2 FFF7FEFF 		bl	HAL_RTC_SetDate
 2801              	.LVL161:
1469:Core/Src/main.c ****     {
 2802              		.loc 1 1469 8 discriminator 1 view .LVU790
 2803 00b6 28BB     		cbnz	r0, .L196
 2804              	.L191:
1475:Core/Src/main.c ****     sscanf(time_part, "%2d:%2d:%2d", &hours, &minutes, &seconds);
 2805              		.loc 1 1475 5 is_stmt 1 view .LVU791
1476:Core/Src/main.c **** 
 2806              		.loc 1 1476 5 view .LVU792
 2807 00b8 0DF11303 		add	r3, sp, #19
 2808 00bc 0093     		str	r3, [sp]
 2809 00be 0DF11203 		add	r3, sp, #18
 2810 00c2 0DF11102 		add	r2, sp, #17
 2811 00c6 1849     		ldr	r1, .L198+24
 2812 00c8 06A8     		add	r0, sp, #24
 2813 00ca FFF7FEFF 		bl	sscanf
 2814              	.LVL162:
1479:Core/Src/main.c ****     nTime.Minutes = minutes;
 2815              		.loc 1 1479 5 view .LVU793
ARM GAS  C:\Users\kroko\AppData\Local\Temp\ccpAdhTr.s 			page 104


1479:Core/Src/main.c ****     nTime.Minutes = minutes;
 2816              		.loc 1 1479 17 is_stmt 0 view .LVU794
 2817 00ce 9DF81130 		ldrb	r3, [sp, #17]	@ zero_extendqisi2
 2818 00d2 8DF83030 		strb	r3, [sp, #48]
1480:Core/Src/main.c ****     nTime.Seconds = seconds;
 2819              		.loc 1 1480 5 is_stmt 1 view .LVU795
1480:Core/Src/main.c ****     nTime.Seconds = seconds;
 2820              		.loc 1 1480 19 is_stmt 0 view .LVU796
 2821 00d6 9DF81230 		ldrb	r3, [sp, #18]	@ zero_extendqisi2
 2822 00da 8DF83130 		strb	r3, [sp, #49]
1481:Core/Src/main.c ****     nTime.DayLightSaving = RTC_DAYLIGHTSAVING_NONE;
 2823              		.loc 1 1481 5 is_stmt 1 view .LVU797
1481:Core/Src/main.c ****     nTime.DayLightSaving = RTC_DAYLIGHTSAVING_NONE;
 2824              		.loc 1 1481 19 is_stmt 0 view .LVU798
 2825 00de 9DF81330 		ldrb	r3, [sp, #19]	@ zero_extendqisi2
 2826 00e2 8DF83230 		strb	r3, [sp, #50]
1482:Core/Src/main.c ****     nTime.StoreOperation = RTC_STOREOPERATION_RESET;
 2827              		.loc 1 1482 5 is_stmt 1 view .LVU799
1482:Core/Src/main.c ****     nTime.StoreOperation = RTC_STOREOPERATION_RESET;
 2828              		.loc 1 1482 26 is_stmt 0 view .LVU800
 2829 00e6 0022     		movs	r2, #0
 2830 00e8 0F92     		str	r2, [sp, #60]
1483:Core/Src/main.c **** 
 2831              		.loc 1 1483 5 is_stmt 1 view .LVU801
1483:Core/Src/main.c **** 
 2832              		.loc 1 1483 26 is_stmt 0 view .LVU802
 2833 00ea 1092     		str	r2, [sp, #64]
1485:Core/Src/main.c ****     {
 2834              		.loc 1 1485 5 is_stmt 1 view .LVU803
1485:Core/Src/main.c ****     {
 2835              		.loc 1 1485 9 is_stmt 0 view .LVU804
 2836 00ec 0CA9     		add	r1, sp, #48
 2837 00ee 0D48     		ldr	r0, .L198+20
 2838 00f0 FFF7FEFF 		bl	HAL_RTC_SetTime
 2839              	.LVL163:
1485:Core/Src/main.c ****     {
 2840              		.loc 1 1485 8 discriminator 1 view .LVU805
 2841 00f4 48B9     		cbnz	r0, .L197
 2842              	.L192:
1489:Core/Src/main.c ****   }
 2843              		.loc 1 1489 5 is_stmt 1 view .LVU806
 2844 00f6 42F24532 		movw	r2, #9029
 2845 00fa 0121     		movs	r1, #1
 2846 00fc 0948     		ldr	r0, .L198+20
 2847 00fe FFF7FEFF 		bl	HAL_RTCEx_BKUPWrite
 2848              	.LVL164:
 2849              	.LBE21:
1491:Core/Src/main.c **** 
 2850              		.loc 1 1491 1 is_stmt 0 view .LVU807
 2851 0102 B7E7     		b	.L181
 2852              	.L196:
 2853              	.LBB22:
1471:Core/Src/main.c ****     }
 2854              		.loc 1 1471 7 is_stmt 1 view .LVU808
 2855 0104 FFF7FEFF 		bl	Error_Handler
 2856              	.LVL165:
 2857 0108 D6E7     		b	.L191
ARM GAS  C:\Users\kroko\AppData\Local\Temp\ccpAdhTr.s 			page 105


 2858              	.L197:
1487:Core/Src/main.c ****     }
 2859              		.loc 1 1487 7 view .LVU809
 2860 010a FFF7FEFF 		bl	Error_Handler
 2861              	.LVL166:
 2862 010e F2E7     		b	.L192
 2863              	.L199:
 2864              		.align	2
 2865              	.L198:
 2866 0110 00000000 		.word	.LC14
 2867 0114 0C000000 		.word	.LC15
 2868 0118 00000000 		.word	SIMrxBuffer
 2869 011c 14000000 		.word	.LC16
 2870 0120 28000000 		.word	.LC17
 2871 0124 00000000 		.word	hrtc
 2872 0128 34000000 		.word	.LC18
 2873              	.LBE22:
 2874              		.cfi_endproc
 2875              	.LFE163:
 2877              		.section	.rodata.main.str1.4,"aMS",%progbits,1
 2878              		.align	2
 2879              	.LC19:
 2880 0000 00       		.ascii	"\000"
 2881              		.global	__aeabi_d2iz
 2882 0001 000000   		.align	2
 2883              	.LC20:
 2884 0004 53494D20 		.ascii	"SIM detected\000"
 2884      64657465 
 2884      63746564 
 2884      00
 2885 0011 000000   		.align	2
 2886              	.LC21:
 2887 0014 47534D20 		.ascii	"GSM connected\000"
 2887      636F6E6E 
 2887      65637465 
 2887      6400
 2888 0022 0000     		.align	2
 2889              	.LC22:
 2890 0024 52544320 		.ascii	"RTC is set up\000"
 2890      69732073 
 2890      65742075 
 2890      7000
 2891 0032 0000     		.align	2
 2892              	.LC23:
 2893 0034 696E6974 		.ascii	"init_%02d-%02d-%02d_%02d-%02d-%2d.txt\000"
 2893      5F253032 
 2893      642D2530 
 2893      32642D25 
 2893      3032645F 
 2894 005a 0000     		.align	2
 2895              	.LC24:
 2896 005c 52657365 		.ascii	"Reset by IWDG\012\000"
 2896      74206279 
 2896      20495744 
 2896      470A00
 2897 006b 00       		.align	2
 2898              	.LC25:
ARM GAS  C:\Users\kroko\AppData\Local\Temp\ccpAdhTr.s 			page 106


 2899 006c 4E6F726D 		.ascii	"Normal startup\012\000"
 2899      616C2073 
 2899      74617274 
 2899      75700A00 
 2900              		.align	2
 2901              	.LC26:
 2902 007c 54595045 		.ascii	"TYPE_SET_ONLY\000"
 2902      5F534554 
 2902      5F4F4E4C 
 2902      5900
 2903 008a 0000     		.align	2
 2904              	.LC27:
 2905 008c 54595045 		.ascii	"TYPE_SET_TEL\000"
 2905      5F534554 
 2905      5F54454C 
 2905      00
 2906 0099 000000   		.align	2
 2907              	.LC28:
 2908 009c 54595045 		.ascii	"TYPE_TEL_ONLY\000"
 2908      5F54454C 
 2908      5F4F4E4C 
 2908      5900
 2909 00aa 0000     		.align	2
 2910              	.LC29:
 2911 00ac 4445563A 		.ascii	"DEV: %d\012Min/Max: %s/%s\012Dev type: %s\012\012\000"
 2911      2025640A 
 2911      4D696E2F 
 2911      4D61783A 
 2911      2025732F 
 2912 00d2 0000     		.align	2
 2913              	.LC30:
 2914 00d4 4445563A 		.ascii	"DEV: empty\012\012\000"
 2914      20656D70 
 2914      74790A0A 
 2914      00
 2915              		.global	__aeabi_d2uiz
 2916              		.global	__aeabi_ui2d
 2917 00e1 000000   		.align	2
 2918              	.LC31:
 2919 00e4 256400   		.ascii	"%d\000"
 2920              		.section	.text.main,"ax",%progbits
 2921              		.align	1
 2922              		.global	main
 2923              		.syntax unified
 2924              		.thumb
 2925              		.thumb_func
 2927              	main:
 2928              	.LFB137:
 201:Core/Src/main.c **** 
 2929              		.loc 1 201 1 view -0
 2930              		.cfi_startproc
 2931              		@ args = 0, pretend = 0, frame = 8496
 2932              		@ frame_needed = 0, uses_anonymous_args = 0
 2933 0000 2DE9F04F 		push	{r4, r5, r6, r7, r8, r9, r10, fp, lr}
 2934              		.cfi_def_cfa_offset 36
 2935              		.cfi_offset 4, -36
 2936              		.cfi_offset 5, -32
ARM GAS  C:\Users\kroko\AppData\Local\Temp\ccpAdhTr.s 			page 107


 2937              		.cfi_offset 6, -28
 2938              		.cfi_offset 7, -24
 2939              		.cfi_offset 8, -20
 2940              		.cfi_offset 9, -16
 2941              		.cfi_offset 10, -12
 2942              		.cfi_offset 11, -8
 2943              		.cfi_offset 14, -4
 2944 0004 ADF5055D 		sub	sp, sp, #8512
 2945              		.cfi_def_cfa_offset 8548
 2946 0008 81B0     		sub	sp, sp, #4
 2947              		.cfi_def_cfa_offset 8552
 210:Core/Src/main.c **** 
 2948              		.loc 1 210 3 view .LVU811
 2949 000a FFF7FEFF 		bl	HAL_Init
 2950              	.LVL167:
 217:Core/Src/main.c **** 
 2951              		.loc 1 217 3 view .LVU812
 2952 000e FFF7FEFF 		bl	SystemClock_Config
 2953              	.LVL168:
 224:Core/Src/main.c ****   MX_DMA_Init();
 2954              		.loc 1 224 3 view .LVU813
 2955 0012 FFF7FEFF 		bl	MX_GPIO_Init
 2956              	.LVL169:
 225:Core/Src/main.c ****   MX_SPI1_Init();
 2957              		.loc 1 225 3 view .LVU814
 2958 0016 FFF7FEFF 		bl	MX_DMA_Init
 2959              	.LVL170:
 226:Core/Src/main.c ****   MX_UART5_Init();
 2960              		.loc 1 226 3 view .LVU815
 2961 001a FFF7FEFF 		bl	MX_SPI1_Init
 2962              	.LVL171:
 227:Core/Src/main.c ****   MX_USART6_UART_Init();
 2963              		.loc 1 227 3 view .LVU816
 2964 001e FFF7FEFF 		bl	MX_UART5_Init
 2965              	.LVL172:
 228:Core/Src/main.c ****   MX_SPI2_Init();
 2966              		.loc 1 228 3 view .LVU817
 2967 0022 FFF7FEFF 		bl	MX_USART6_UART_Init
 2968              	.LVL173:
 229:Core/Src/main.c ****   MX_FATFS_Init();
 2969              		.loc 1 229 3 view .LVU818
 2970 0026 FFF7FEFF 		bl	MX_SPI2_Init
 2971              	.LVL174:
 230:Core/Src/main.c ****   MX_RTC_Init();
 2972              		.loc 1 230 3 view .LVU819
 2973 002a FFF7FEFF 		bl	MX_FATFS_Init
 2974              	.LVL175:
 231:Core/Src/main.c ****   MX_USART2_UART_Init();
 2975              		.loc 1 231 3 view .LVU820
 2976 002e FFF7FEFF 		bl	MX_RTC_Init
 2977              	.LVL176:
 232:Core/Src/main.c ****   MX_IWDG_Init();
 2978              		.loc 1 232 3 view .LVU821
 2979 0032 FFF7FEFF 		bl	MX_USART2_UART_Init
 2980              	.LVL177:
 233:Core/Src/main.c ****   MX_UART4_Init();
 2981              		.loc 1 233 3 view .LVU822
ARM GAS  C:\Users\kroko\AppData\Local\Temp\ccpAdhTr.s 			page 108


 2982 0036 FFF7FEFF 		bl	MX_IWDG_Init
 2983              	.LVL178:
 234:Core/Src/main.c ****   MX_USART3_UART_Init();
 2984              		.loc 1 234 3 view .LVU823
 2985 003a FFF7FEFF 		bl	MX_UART4_Init
 2986              	.LVL179:
 235:Core/Src/main.c ****   MX_I2C1_Init();
 2987              		.loc 1 235 3 view .LVU824
 2988 003e FFF7FEFF 		bl	MX_USART3_UART_Init
 2989              	.LVL180:
 236:Core/Src/main.c ****   /* USER CODE BEGIN 2 */
 2990              		.loc 1 236 3 view .LVU825
 2991 0042 FFF7FEFF 		bl	MX_I2C1_Init
 2992              	.LVL181:
 239:Core/Src/main.c **** 
 2993              		.loc 1 239 2 view .LVU826
 2994 0046 F021     		movs	r1, #240
 2995 0048 0846     		mov	r0, r1
 2996 004a FFF7FEFF 		bl	dispcolor_Init
 2997              	.LVL182:
 241:Core/Src/main.c ****   uint32_t screen_disp_time = HAL_GetTick();
 2998              		.loc 1 241 2 view .LVU827
 241:Core/Src/main.c ****   uint32_t screen_disp_time = HAL_GetTick();
 2999              		.loc 1 241 30 is_stmt 0 view .LVU828
 3000 004e FFF7FEFF 		bl	HAL_GetTick
 3001              	.LVL183:
 242:Core/Src/main.c ****   uint32_t touch_tmr = HAL_GetTick();
 3002              		.loc 1 242 3 is_stmt 1 view .LVU829
 242:Core/Src/main.c ****   uint32_t touch_tmr = HAL_GetTick();
 3003              		.loc 1 242 31 is_stmt 0 view .LVU830
 3004 0052 FFF7FEFF 		bl	HAL_GetTick
 3005              	.LVL184:
 3006 0056 0546     		mov	r5, r0
 3007              	.LVL185:
 243:Core/Src/main.c ****   uint32_t sim_tmr = HAL_GetTick();
 3008              		.loc 1 243 3 is_stmt 1 view .LVU831
 243:Core/Src/main.c ****   uint32_t sim_tmr = HAL_GetTick();
 3009              		.loc 1 243 24 is_stmt 0 view .LVU832
 3010 0058 FFF7FEFF 		bl	HAL_GetTick
 3011              	.LVL186:
 243:Core/Src/main.c ****   uint32_t sim_tmr = HAL_GetTick();
 3012              		.loc 1 243 24 view .LVU833
 3013 005c 0746     		mov	r7, r0
 3014              	.LVL187:
 244:Core/Src/main.c **** 
 3015              		.loc 1 244 3 is_stmt 1 view .LVU834
 244:Core/Src/main.c **** 
 3016              		.loc 1 244 22 is_stmt 0 view .LVU835
 3017 005e FFF7FEFF 		bl	HAL_GetTick
 3018              	.LVL188:
 244:Core/Src/main.c **** 
 3019              		.loc 1 244 22 view .LVU836
 3020 0062 0446     		mov	r4, r0
 3021              	.LVL189:
 249:Core/Src/main.c **** 
 3022              		.loc 1 249 3 is_stmt 1 view .LVU837
 253:Core/Src/main.c ****   RTC_TimeTypeDef gTime;
ARM GAS  C:\Users\kroko\AppData\Local\Temp\ccpAdhTr.s 			page 109


 3023              		.loc 1 253 3 view .LVU838
 254:Core/Src/main.c **** 
 3024              		.loc 1 254 3 view .LVU839
 257:Core/Src/main.c ****   /* Get the RTC current Date */
 3025              		.loc 1 257 3 view .LVU840
 3026 0064 BE4E     		ldr	r6, .L272
 3027 0066 0022     		movs	r2, #0
 3028 0068 0DF50451 		add	r1, sp, #8448
 3029 006c 2831     		adds	r1, r1, #40
 3030 006e 3046     		mov	r0, r6
 3031              	.LVL190:
 257:Core/Src/main.c ****   /* Get the RTC current Date */
 3032              		.loc 1 257 3 is_stmt 0 view .LVU841
 3033 0070 FFF7FEFF 		bl	HAL_RTC_GetTime
 3034              	.LVL191:
 259:Core/Src/main.c ****   
 3035              		.loc 1 259 3 is_stmt 1 view .LVU842
 3036 0074 0022     		movs	r2, #0
 3037 0076 0DF50451 		add	r1, sp, #8448
 3038 007a 3C31     		adds	r1, r1, #60
 3039 007c 3046     		mov	r0, r6
 3040 007e FFF7FEFF 		bl	HAL_RTC_GetDate
 3041              	.LVL192:
 261:Core/Src/main.c ****     Show_RTC_Warning();
 3042              		.loc 1 261 3 view .LVU843
 261:Core/Src/main.c ****     Show_RTC_Warning();
 3043              		.loc 1 261 6 is_stmt 0 view .LVU844
 3044 0082 0121     		movs	r1, #1
 3045 0084 3046     		mov	r0, r6
 3046 0086 FFF7FEFF 		bl	HAL_RTCEx_BKUPRead
 3047              	.LVL193:
 261:Core/Src/main.c ****     Show_RTC_Warning();
 3048              		.loc 1 261 5 discriminator 1 view .LVU845
 3049 008a 42F24533 		movw	r3, #9029
 3050 008e 9842     		cmp	r0, r3
 3051 0090 16D1     		bne	.L251
 267:Core/Src/main.c ****   }
 3052              		.loc 1 267 5 is_stmt 1 view .LVU846
 267:Core/Src/main.c ****   }
 3053              		.loc 1 267 16 is_stmt 0 view .LVU847
 3054 0092 B44B     		ldr	r3, .L272+4
 3055 0094 0122     		movs	r2, #1
 3056 0096 1A70     		strb	r2, [r3]
 3057              	.L202:
 271:Core/Src/main.c ****   FRESULT FR_Status;
 3058              		.loc 1 271 3 is_stmt 1 view .LVU848
 272:Core/Src/main.c ****   FIL Fil;
 3059              		.loc 1 272 3 view .LVU849
 273:Core/Src/main.c ****   UINT bytesWrote;
 3060              		.loc 1 273 3 view .LVU850
 274:Core/Src/main.c **** 
 3061              		.loc 1 274 3 view .LVU851
 276:Core/Src/main.c ****   if (FR_Status == FR_OK){
 3062              		.loc 1 276 3 view .LVU852
 276:Core/Src/main.c ****   if (FR_Status == FR_OK){
 3063              		.loc 1 276 15 is_stmt 0 view .LVU853
 3064 0098 0122     		movs	r2, #1
ARM GAS  C:\Users\kroko\AppData\Local\Temp\ccpAdhTr.s 			page 110


 3065 009a B349     		ldr	r1, .L272+8
 3066 009c 0DF58750 		add	r0, sp, #4320
 3067 00a0 1030     		adds	r0, r0, #16
 3068 00a2 FFF7FEFF 		bl	f_mount
 3069              	.LVL194:
 277:Core/Src/main.c ****     isSDInitialised = true;
 3070              		.loc 1 277 3 is_stmt 1 view .LVU854
 277:Core/Src/main.c ****     isSDInitialised = true;
 3071              		.loc 1 277 6 is_stmt 0 view .LVU855
 3072 00a6 70B9     		cbnz	r0, .L203
 278:Core/Src/main.c ****   }else{
 3073              		.loc 1 278 5 is_stmt 1 view .LVU856
 278:Core/Src/main.c ****   }else{
 3074              		.loc 1 278 21 is_stmt 0 view .LVU857
 3075 00a8 B04B     		ldr	r3, .L272+12
 3076 00aa 0122     		movs	r2, #1
 3077 00ac 1A70     		strb	r2, [r3]
 3078              	.LVL195:
 3079              	.L204:
 284:Core/Src/main.c **** 
 3080              		.loc 1 284 3 is_stmt 1 view .LVU858
 3081 00ae 4FF40072 		mov	r2, #512
 3082 00b2 AF49     		ldr	r1, .L272+16
 3083 00b4 AF48     		ldr	r0, .L272+20
 3084 00b6 FFF7FEFF 		bl	HAL_UART_Receive_DMA
 3085              	.LVL196:
 288:Core/Src/main.c ****     GPIO_TypeDef *curDevRSTport = deviceList[i].RSTport;
 3086              		.loc 1 288 3 view .LVU859
 3087              	.LBB23:
 288:Core/Src/main.c ****     GPIO_TypeDef *curDevRSTport = deviceList[i].RSTport;
 3088              		.loc 1 288 8 view .LVU860
 288:Core/Src/main.c ****     GPIO_TypeDef *curDevRSTport = deviceList[i].RSTport;
 3089              		.loc 1 288 12 is_stmt 0 view .LVU861
 3090 00ba 4FF00008 		mov	r8, #0
 288:Core/Src/main.c ****     GPIO_TypeDef *curDevRSTport = deviceList[i].RSTport;
 3091              		.loc 1 288 3 view .LVU862
 3092 00be 20E0     		b	.L205
 3093              	.LVL197:
 3094              	.L251:
 288:Core/Src/main.c ****     GPIO_TypeDef *curDevRSTport = deviceList[i].RSTport;
 3095              		.loc 1 288 3 view .LVU863
 3096              	.LBE23:
 262:Core/Src/main.c ****     // RTC SETUP MENU
 3097              		.loc 1 262 5 is_stmt 1 view .LVU864
 3098 00c0 FFF7FEFF 		bl	Show_RTC_Warning
 3099              	.LVL198:
 3100 00c4 E8E7     		b	.L202
 3101              	.LVL199:
 3102              	.L203:
 280:Core/Src/main.c ****   }
 3103              		.loc 1 280 5 view .LVU865
 3104 00c6 FFF7FEFF 		bl	Show_SD_Warning
 3105              	.LVL200:
 280:Core/Src/main.c ****   }
 3106              		.loc 1 280 5 is_stmt 0 view .LVU866
 3107 00ca F0E7     		b	.L204
 3108              	.LVL201:
ARM GAS  C:\Users\kroko\AppData\Local\Temp\ccpAdhTr.s 			page 111


 3109              	.L206:
 3110              	.LBB25:
 3111              	.LBB24:
 289:Core/Src/main.c ****     uint16_t curDevRSTpin = deviceList[i].RSTpin;
 3112              		.loc 1 289 5 is_stmt 1 view .LVU867
 289:Core/Src/main.c ****     uint16_t curDevRSTpin = deviceList[i].RSTpin;
 3113              		.loc 1 289 19 is_stmt 0 view .LVU868
 3114 00cc 08EBC803 		add	r3, r8, r8, lsl #3
 3115 00d0 A94E     		ldr	r6, .L272+24
 3116 00d2 06EBC306 		add	r6, r6, r3, lsl #3
 3117 00d6 D6F80890 		ldr	r9, [r6, #8]
 3118              	.LVL202:
 290:Core/Src/main.c ****     HAL_GPIO_WritePin(curDevRSTport, curDevRSTpin, GPIO_PIN_RESET);
 3119              		.loc 1 290 5 is_stmt 1 view .LVU869
 290:Core/Src/main.c ****     HAL_GPIO_WritePin(curDevRSTport, curDevRSTpin, GPIO_PIN_RESET);
 3120              		.loc 1 290 14 is_stmt 0 view .LVU870
 3121 00da B6F80CA0 		ldrh	r10, [r6, #12]
 3122              	.LVL203:
 291:Core/Src/main.c **** 	  HAL_Delay(100);
 3123              		.loc 1 291 5 is_stmt 1 view .LVU871
 3124 00de 0022     		movs	r2, #0
 3125 00e0 5146     		mov	r1, r10
 3126 00e2 4846     		mov	r0, r9
 3127 00e4 FFF7FEFF 		bl	HAL_GPIO_WritePin
 3128              	.LVL204:
 292:Core/Src/main.c ****     HAL_GPIO_WritePin(curDevRSTport, curDevRSTpin, GPIO_PIN_SET);
 3129              		.loc 1 292 4 view .LVU872
 3130 00e8 6420     		movs	r0, #100
 3131 00ea FFF7FEFF 		bl	HAL_Delay
 3132              	.LVL205:
 293:Core/Src/main.c ****     deviceList[i].tx_buff[0] = 84;
 3133              		.loc 1 293 5 view .LVU873
 3134 00ee 0122     		movs	r2, #1
 3135 00f0 5146     		mov	r1, r10
 3136 00f2 4846     		mov	r0, r9
 3137 00f4 FFF7FEFF 		bl	HAL_GPIO_WritePin
 3138              	.LVL206:
 294:Core/Src/main.c ****   }
 3139              		.loc 1 294 5 view .LVU874
 294:Core/Src/main.c ****   }
 3140              		.loc 1 294 30 is_stmt 0 view .LVU875
 3141 00f8 5423     		movs	r3, #84
 3142 00fa 86F83D30 		strb	r3, [r6, #61]
 3143              	.LBE24:
 288:Core/Src/main.c ****     GPIO_TypeDef *curDevRSTport = deviceList[i].RSTport;
 3144              		.loc 1 288 35 is_stmt 1 discriminator 3 view .LVU876
 3145 00fe 08F10108 		add	r8, r8, #1
 3146              	.LVL207:
 3147              	.L205:
 288:Core/Src/main.c ****     GPIO_TypeDef *curDevRSTport = deviceList[i].RSTport;
 3148              		.loc 1 288 21 discriminator 1 view .LVU877
 3149 0102 B8F1030F 		cmp	r8, #3
 3150 0106 E1DD     		ble	.L206
 3151              	.LBE25:
 296:Core/Src/main.c **** 
 3152              		.loc 1 296 3 view .LVU878
 296:Core/Src/main.c **** 
ARM GAS  C:\Users\kroko\AppData\Local\Temp\ccpAdhTr.s 			page 112


 3153              		.loc 1 296 22 is_stmt 0 view .LVU879
 3154 0108 FFF7FEFF 		bl	HAL_GetTick
 3155              	.LVL208:
 3156 010c 0646     		mov	r6, r0
 3157              	.LVL209:
 299:Core/Src/main.c ****     HAL_NVIC_SystemReset();
 3158              		.loc 1 299 3 is_stmt 1 view .LVU880
 299:Core/Src/main.c ****     HAL_NVIC_SystemReset();
 3159              		.loc 1 299 8 is_stmt 0 view .LVU881
 3160 010e 9B48     		ldr	r0, .L272+28
 3161              	.LVL210:
 299:Core/Src/main.c ****     HAL_NVIC_SystemReset();
 3162              		.loc 1 299 8 view .LVU882
 3163 0110 FFF7FEFF 		bl	CST816S_Init
 3164              	.LVL211:
 299:Core/Src/main.c ****     HAL_NVIC_SystemReset();
 3165              		.loc 1 299 6 discriminator 1 view .LVU883
 3166 0114 10B1     		cbz	r0, .L252
 3167              	.L207:
 3168              	.LBB26:
 288:Core/Src/main.c ****     GPIO_TypeDef *curDevRSTport = deviceList[i].RSTport;
 3169              		.loc 1 288 12 view .LVU884
 3170 0116 4FF00009 		mov	r9, #0
 3171 011a CBE1     		b	.L208
 3172              	.L252:
 3173              	.LBE26:
 300:Core/Src/main.c ****   }
 3174              		.loc 1 300 5 is_stmt 1 view .LVU885
 3175 011c FFF7FEFF 		bl	HAL_NVIC_SystemReset
 3176              	.LVL212:
 3177 0120 F9E7     		b	.L207
 3178              	.LVL213:
 3179              	.L261:
 308:Core/Src/main.c ****       HAL_UART_Transmit_DMA(deviceList[dev_num].uart, deviceList[dev_num].tx_buff, 10);
 3180              		.loc 1 308 7 view .LVU886
 3181 0122 DFF85CA2 		ldr	r10, .L272+32
 3182 0126 0421     		movs	r1, #4
 3183 0128 9AF80000 		ldrb	r0, [r10]	@ zero_extendqisi2
 3184 012c FFF7FEFF 		bl	Display_Init
 3185              	.LVL214:
 309:Core/Src/main.c ****       HAL_UART_Receive_DMA(deviceList[dev_num].uart, deviceList[dev_num].rx_buff, 10);
 3186              		.loc 1 309 7 view .LVU887
 3187 0130 9AF80030 		ldrb	r3, [r10]	@ zero_extendqisi2
 309:Core/Src/main.c ****       HAL_UART_Receive_DMA(deviceList[dev_num].uart, deviceList[dev_num].rx_buff, 10);
 3188              		.loc 1 309 74 is_stmt 0 view .LVU888
 3189 0134 03EBC301 		add	r1, r3, r3, lsl #3
 3190 0138 C900     		lsls	r1, r1, #3
 3191 013a 3831     		adds	r1, r1, #56
 3192 013c DFF83882 		ldr	r8, .L272+24
 3193 0140 4144     		add	r1, r1, r8
 309:Core/Src/main.c ****       HAL_UART_Receive_DMA(deviceList[dev_num].uart, deviceList[dev_num].rx_buff, 10);
 3194              		.loc 1 309 7 view .LVU889
 3195 0142 03EBC303 		add	r3, r3, r3, lsl #3
 3196 0146 0A22     		movs	r2, #10
 3197 0148 0531     		adds	r1, r1, #5
 3198 014a 58F83300 		ldr	r0, [r8, r3, lsl #3]
 3199 014e FFF7FEFF 		bl	HAL_UART_Transmit_DMA
ARM GAS  C:\Users\kroko\AppData\Local\Temp\ccpAdhTr.s 			page 113


 3200              	.LVL215:
 310:Core/Src/main.c ****     }
 3201              		.loc 1 310 7 is_stmt 1 view .LVU890
 3202 0152 9AF80030 		ldrb	r3, [r10]	@ zero_extendqisi2
 310:Core/Src/main.c ****     }
 3203              		.loc 1 310 73 is_stmt 0 view .LVU891
 3204 0156 03EBC301 		add	r1, r3, r3, lsl #3
 3205 015a C900     		lsls	r1, r1, #3
 3206 015c 3031     		adds	r1, r1, #48
 3207 015e 4144     		add	r1, r1, r8
 310:Core/Src/main.c ****     }
 3208              		.loc 1 310 7 view .LVU892
 3209 0160 03EBC303 		add	r3, r3, r3, lsl #3
 3210 0164 0A22     		movs	r2, #10
 3211 0166 0331     		adds	r1, r1, #3
 3212 0168 58F83300 		ldr	r0, [r8, r3, lsl #3]
 3213 016c FFF7FEFF 		bl	HAL_UART_Receive_DMA
 3214              	.LVL216:
 3215 0170 B1E1     		b	.L210
 3216              	.L262:
 314:Core/Src/main.c ****         if(transmitMode == TRANSMIT_MODE_GET){
 3217              		.loc 1 314 9 is_stmt 1 view .LVU893
 314:Core/Src/main.c ****         if(transmitMode == TRANSMIT_MODE_GET){
 3218              		.loc 1 314 33 is_stmt 0 view .LVU894
 3219 0172 834B     		ldr	r3, .L272+32
 3220 0174 1878     		ldrb	r0, [r3]	@ zero_extendqisi2
 314:Core/Src/main.c ****         if(transmitMode == TRANSMIT_MODE_GET){
 3221              		.loc 1 314 9 view .LVU895
 3222 0176 00EBC000 		add	r0, r0, r0, lsl #3
 3223 017a 7F4B     		ldr	r3, .L272+24
 3224 017c 03EBC000 		add	r0, r3, r0, lsl #3
 3225 0180 FFF7FEFF 		bl	Dispaly_Data
 3226              	.LVL217:
 315:Core/Src/main.c ****           if(deviceList[dev_num].deviceMode != TYPE_SET_ONLY){
 3227              		.loc 1 315 9 is_stmt 1 view .LVU896
 315:Core/Src/main.c ****           if(deviceList[dev_num].deviceMode != TYPE_SET_ONLY){
 3228              		.loc 1 315 25 is_stmt 0 view .LVU897
 3229 0184 7F4B     		ldr	r3, .L272+36
 3230 0186 1B78     		ldrb	r3, [r3]	@ zero_extendqisi2
 315:Core/Src/main.c ****           if(deviceList[dev_num].deviceMode != TYPE_SET_ONLY){
 3231              		.loc 1 315 11 view .LVU898
 3232 0188 9BBB     		cbnz	r3, .L212
 316:Core/Src/main.c ****             HAL_UART_Transmit_DMA(deviceList[dev_num].uart, deviceList[dev_num].tx_buff, 10);
 3233              		.loc 1 316 11 is_stmt 1 view .LVU899
 316:Core/Src/main.c ****             HAL_UART_Transmit_DMA(deviceList[dev_num].uart, deviceList[dev_num].tx_buff, 10);
 3234              		.loc 1 316 33 is_stmt 0 view .LVU900
 3235 018a 7D4B     		ldr	r3, .L272+32
 3236 018c 1B78     		ldrb	r3, [r3]	@ zero_extendqisi2
 3237 018e 03EBC301 		add	r1, r3, r3, lsl #3
 3238 0192 794A     		ldr	r2, .L272+24
 3239 0194 02EBC102 		add	r2, r2, r1, lsl #3
 3240 0198 5279     		ldrb	r2, [r2, #5]	@ zero_extendqisi2
 316:Core/Src/main.c ****             HAL_UART_Transmit_DMA(deviceList[dev_num].uart, deviceList[dev_num].tx_buff, 10);
 3241              		.loc 1 316 13 view .LVU901
 3242 019a 012A     		cmp	r2, #1
 3243 019c 0CD1     		bne	.L253
 3244              	.L213:
ARM GAS  C:\Users\kroko\AppData\Local\Temp\ccpAdhTr.s 			page 114


 327:Core/Src/main.c ****           if (act_dev_list[act_dev] == dev_num){
 3245              		.loc 1 327 9 is_stmt 1 view .LVU902
 3246              	.LBB27:
 327:Core/Src/main.c ****           if (act_dev_list[act_dev] == dev_num){
 3247              		.loc 1 327 13 view .LVU903
 3248              	.LVL218:
 327:Core/Src/main.c ****           if (act_dev_list[act_dev] == dev_num){
 3249              		.loc 1 327 21 is_stmt 0 view .LVU904
 3250 019e 0021     		movs	r1, #0
 3251              	.LVL219:
 3252              	.L214:
 327:Core/Src/main.c ****           if (act_dev_list[act_dev] == dev_num){
 3253              		.loc 1 327 42 is_stmt 1 discriminator 1 view .LVU905
 3254 01a0 0329     		cmp	r1, #3
 3255 01a2 00F29881 		bhi	.L210
 328:Core/Src/main.c ****             Draw_NavBar(act_dev_cnt, act_dev);
 3256              		.loc 1 328 11 view .LVU906
 328:Core/Src/main.c ****             Draw_NavBar(act_dev_cnt, act_dev);
 3257              		.loc 1 328 27 is_stmt 0 view .LVU907
 3258 01a6 784B     		ldr	r3, .L272+40
 3259 01a8 5A56     		ldrsb	r2, [r3, r1]
 328:Core/Src/main.c ****             Draw_NavBar(act_dev_cnt, act_dev);
 3260              		.loc 1 328 37 view .LVU908
 3261 01aa 754B     		ldr	r3, .L272+32
 3262 01ac 1B78     		ldrb	r3, [r3]	@ zero_extendqisi2
 328:Core/Src/main.c ****             Draw_NavBar(act_dev_cnt, act_dev);
 3263              		.loc 1 328 14 view .LVU909
 3264 01ae 9A42     		cmp	r2, r3
 3265 01b0 3FD0     		beq	.L254
 327:Core/Src/main.c ****           if (act_dev_list[act_dev] == dev_num){
 3266              		.loc 1 327 54 is_stmt 1 discriminator 2 view .LVU910
 3267 01b2 0131     		adds	r1, r1, #1
 3268              	.LVL220:
 327:Core/Src/main.c ****           if (act_dev_list[act_dev] == dev_num){
 3269              		.loc 1 327 54 is_stmt 0 discriminator 2 view .LVU911
 3270 01b4 C9B2     		uxtb	r1, r1
 3271              	.LVL221:
 327:Core/Src/main.c ****           if (act_dev_list[act_dev] == dev_num){
 3272              		.loc 1 327 54 discriminator 2 view .LVU912
 3273 01b6 F3E7     		b	.L214
 3274              	.LVL222:
 3275              	.L253:
 327:Core/Src/main.c ****           if (act_dev_list[act_dev] == dev_num){
 3276              		.loc 1 327 54 discriminator 2 view .LVU913
 3277              	.LBE27:
 317:Core/Src/main.c ****             HAL_UART_Receive_DMA(deviceList[dev_num].uart, deviceList[dev_num].rx_buff, 10);
 3278              		.loc 1 317 13 is_stmt 1 view .LVU914
 317:Core/Src/main.c ****             HAL_UART_Receive_DMA(deviceList[dev_num].uart, deviceList[dev_num].rx_buff, 10);
 3279              		.loc 1 317 80 is_stmt 0 view .LVU915
 3280 01b8 C900     		lsls	r1, r1, #3
 3281 01ba 3831     		adds	r1, r1, #56
 3282 01bc DFF8B881 		ldr	r8, .L272+24
 3283 01c0 4144     		add	r1, r1, r8
 317:Core/Src/main.c ****             HAL_UART_Receive_DMA(deviceList[dev_num].uart, deviceList[dev_num].rx_buff, 10);
 3284              		.loc 1 317 13 view .LVU916
 3285 01c2 03EBC303 		add	r3, r3, r3, lsl #3
 3286 01c6 0A22     		movs	r2, #10
ARM GAS  C:\Users\kroko\AppData\Local\Temp\ccpAdhTr.s 			page 115


 3287 01c8 0531     		adds	r1, r1, #5
 3288 01ca 58F83300 		ldr	r0, [r8, r3, lsl #3]
 3289 01ce FFF7FEFF 		bl	HAL_UART_Transmit_DMA
 3290              	.LVL223:
 318:Core/Src/main.c ****           }
 3291              		.loc 1 318 13 is_stmt 1 view .LVU917
 3292 01d2 6B4B     		ldr	r3, .L272+32
 3293 01d4 1B78     		ldrb	r3, [r3]	@ zero_extendqisi2
 318:Core/Src/main.c ****           }
 3294              		.loc 1 318 79 is_stmt 0 view .LVU918
 3295 01d6 03EBC301 		add	r1, r3, r3, lsl #3
 3296 01da C900     		lsls	r1, r1, #3
 3297 01dc 3031     		adds	r1, r1, #48
 3298 01de 4144     		add	r1, r1, r8
 318:Core/Src/main.c ****           }
 3299              		.loc 1 318 13 view .LVU919
 3300 01e0 03EBC303 		add	r3, r3, r3, lsl #3
 3301 01e4 0A22     		movs	r2, #10
 3302 01e6 0331     		adds	r1, r1, #3
 3303 01e8 58F83300 		ldr	r0, [r8, r3, lsl #3]
 3304 01ec FFF7FEFF 		bl	HAL_UART_Receive_DMA
 3305              	.LVL224:
 3306 01f0 D5E7     		b	.L213
 3307              	.L212:
 3308              	.LBB28:
 321:Core/Src/main.c ****           //sprintf(setValueTx, "%d", deviceList[dev_num].setValue);
 3309              		.loc 1 321 11 is_stmt 1 view .LVU920
 323:Core/Src/main.c ****           HAL_UART_Transmit_DMA(deviceList[dev_num].uart, (uint8_t*)&setValueTx, 10);
 3310              		.loc 1 323 11 view .LVU921
 323:Core/Src/main.c ****           HAL_UART_Transmit_DMA(deviceList[dev_num].uart, (uint8_t*)&setValueTx, 10);
 3311              		.loc 1 323 35 is_stmt 0 view .LVU922
 3312 01f2 DFF88481 		ldr	r8, .L272+24
 3313 01f6 DFF888A1 		ldr	r10, .L272+32
 3314 01fa 9AF80030 		ldrb	r3, [r10]	@ zero_extendqisi2
 3315 01fe 03EBC303 		add	r3, r3, r3, lsl #3
 3316 0202 08EBC303 		add	r3, r8, r3, lsl #3
 323:Core/Src/main.c ****           HAL_UART_Transmit_DMA(deviceList[dev_num].uart, (uint8_t*)&setValueTx, 10);
 3317              		.loc 1 323 11 view .LVU923
 3318 0206 D3E90601 		ldrd	r0, [r3, #24]
 3319 020a FFF7FEFF 		bl	__aeabi_d2iz
 3320              	.LVL225:
 3321 020e 0A22     		movs	r2, #10
 3322 0210 1CA9     		add	r1, sp, #112
 3323 0212 FFF7FEFF 		bl	itoa
 3324              	.LVL226:
 324:Core/Src/main.c ****           transmitMode = TRANSMIT_MODE_GET;
 3325              		.loc 1 324 11 is_stmt 1 view .LVU924
 3326 0216 9AF80030 		ldrb	r3, [r10]	@ zero_extendqisi2
 3327 021a 03EBC303 		add	r3, r3, r3, lsl #3
 3328 021e 0A22     		movs	r2, #10
 3329 0220 1CA9     		add	r1, sp, #112
 3330 0222 58F83300 		ldr	r0, [r8, r3, lsl #3]
 3331 0226 FFF7FEFF 		bl	HAL_UART_Transmit_DMA
 3332              	.LVL227:
 325:Core/Src/main.c ****         }
 3333              		.loc 1 325 11 view .LVU925
 325:Core/Src/main.c ****         }
ARM GAS  C:\Users\kroko\AppData\Local\Temp\ccpAdhTr.s 			page 116


 3334              		.loc 1 325 24 is_stmt 0 view .LVU926
 3335 022a 564B     		ldr	r3, .L272+36
 3336 022c 0022     		movs	r2, #0
 3337 022e 1A70     		strb	r2, [r3]
 3338 0230 B5E7     		b	.L213
 3339              	.LVL228:
 3340              	.L254:
 325:Core/Src/main.c ****         }
 3341              		.loc 1 325 24 view .LVU927
 3342              	.LBE28:
 3343              	.LBB29:
 329:Core/Src/main.c ****             break;
 3344              		.loc 1 329 13 is_stmt 1 view .LVU928
 3345 0232 49B2     		sxtb	r1, r1
 329:Core/Src/main.c ****             break;
 3346              		.loc 1 329 13 is_stmt 0 view .LVU929
 3347 0234 554B     		ldr	r3, .L272+44
 3348 0236 1878     		ldrb	r0, [r3]	@ zero_extendqisi2
 3349 0238 FFF7FEFF 		bl	Draw_NavBar
 3350              	.LVL229:
 330:Core/Src/main.c ****           }
 3351              		.loc 1 330 13 is_stmt 1 view .LVU930
 3352 023c 4BE1     		b	.L210
 3353              	.LVL230:
 3354              	.L263:
 330:Core/Src/main.c ****           }
 3355              		.loc 1 330 13 is_stmt 0 view .LVU931
 3356              	.LBE29:
 346:Core/Src/main.c ****       }else{
 3357              		.loc 1 346 9 is_stmt 1 view .LVU932
 346:Core/Src/main.c ****       }else{
 3358              		.loc 1 346 16 is_stmt 0 view .LVU933
 3359 023e 08F10103 		add	r3, r8, #1
 3360 0242 4F4A     		ldr	r2, .L272+32
 3361 0244 1370     		strb	r3, [r2]
 3362 0246 55E1     		b	.L218
 3363              	.L264:
 357:Core/Src/main.c ****           Add_Message("SIM detected");
 3364              		.loc 1 357 9 is_stmt 1 view .LVU934
 357:Core/Src/main.c ****           Add_Message("SIM detected");
 3365              		.loc 1 357 12 is_stmt 0 view .LVU935
 3366 0248 FFF7FEFF 		bl	checkSIMStatus
 3367              	.LVL231:
 357:Core/Src/main.c ****           Add_Message("SIM detected");
 3368              		.loc 1 357 11 discriminator 1 view .LVU936
 3369 024c 0028     		cmp	r0, #0
 3370 024e 00F06481 		beq	.L220
 358:Core/Src/main.c ****           isSIMInserted = true;
 3371              		.loc 1 358 11 is_stmt 1 view .LVU937
 3372 0252 4F48     		ldr	r0, .L272+48
 3373 0254 FFF7FEFF 		bl	Add_Message
 3374              	.LVL232:
 359:Core/Src/main.c ****         }
 3375              		.loc 1 359 11 view .LVU938
 359:Core/Src/main.c ****         }
 3376              		.loc 1 359 25 is_stmt 0 view .LVU939
 3377 0258 4E4B     		ldr	r3, .L272+52
ARM GAS  C:\Users\kroko\AppData\Local\Temp\ccpAdhTr.s 			page 117


 3378 025a 0122     		movs	r2, #1
 3379 025c 1A70     		strb	r2, [r3]
 3380 025e 5CE1     		b	.L220
 3381              	.L265:
 363:Core/Src/main.c ****           Add_Message("GSM connected");
 3382              		.loc 1 363 9 is_stmt 1 view .LVU940
 363:Core/Src/main.c ****           Add_Message("GSM connected");
 3383              		.loc 1 363 12 is_stmt 0 view .LVU941
 3384 0260 FFF7FEFF 		bl	checkInitStatus
 3385              	.LVL233:
 363:Core/Src/main.c ****           Add_Message("GSM connected");
 3386              		.loc 1 363 11 discriminator 1 view .LVU942
 3387 0264 0028     		cmp	r0, #0
 3388 0266 00F06081 		beq	.L221
 364:Core/Src/main.c ****           if(!isRTCSetUp && !isRTCTimeSync){
 3389              		.loc 1 364 11 is_stmt 1 view .LVU943
 3390 026a 4B48     		ldr	r0, .L272+56
 3391 026c FFF7FEFF 		bl	Add_Message
 3392              	.LVL234:
 365:Core/Src/main.c ****             syncTime();
 3393              		.loc 1 365 11 view .LVU944
 365:Core/Src/main.c ****             syncTime();
 3394              		.loc 1 365 14 is_stmt 0 view .LVU945
 3395 0270 3C4B     		ldr	r3, .L272+4
 3396 0272 1B78     		ldrb	r3, [r3]	@ zero_extendqisi2
 365:Core/Src/main.c ****             syncTime();
 3397              		.loc 1 365 13 view .LVU946
 3398 0274 13B9     		cbnz	r3, .L222
 365:Core/Src/main.c ****             syncTime();
 3399              		.loc 1 365 29 discriminator 1 view .LVU947
 3400 0276 494B     		ldr	r3, .L272+60
 3401 0278 1B78     		ldrb	r3, [r3]	@ zero_extendqisi2
 365:Core/Src/main.c ****             syncTime();
 3402              		.loc 1 365 26 discriminator 1 view .LVU948
 3403 027a 1BB1     		cbz	r3, .L255
 3404              	.L222:
 370:Core/Src/main.c ****           }
 3405              		.loc 1 370 13 is_stmt 1 view .LVU949
 370:Core/Src/main.c ****           }
 3406              		.loc 1 370 30 is_stmt 0 view .LVU950
 3407 027c 484B     		ldr	r3, .L272+64
 3408 027e 0122     		movs	r2, #1
 3409 0280 1A70     		strb	r2, [r3]
 3410 0282 52E1     		b	.L221
 3411              	.L255:
 366:Core/Src/main.c ****             resetModule();
 3412              		.loc 1 366 13 is_stmt 1 view .LVU951
 3413 0284 FFF7FEFF 		bl	syncTime
 3414              	.LVL235:
 367:Core/Src/main.c ****             isRTCTimeSync = true;
 3415              		.loc 1 367 13 view .LVU952
 3416 0288 FFF7FEFF 		bl	resetModule
 3417              	.LVL236:
 368:Core/Src/main.c ****           }else{
 3418              		.loc 1 368 13 view .LVU953
 368:Core/Src/main.c ****           }else{
 3419              		.loc 1 368 27 is_stmt 0 view .LVU954
ARM GAS  C:\Users\kroko\AppData\Local\Temp\ccpAdhTr.s 			page 118


 3420 028c 434B     		ldr	r3, .L272+60
 3421 028e 0122     		movs	r2, #1
 3422 0290 1A70     		strb	r2, [r3]
 3423 0292 4AE1     		b	.L221
 3424              	.L266:
 375:Core/Src/main.c ****         if(HAL_RTCEx_BKUPRead(&hrtc, RTC_BKP_DR1) == RTC_BKP_CONSTANT){
 3425              		.loc 1 375 9 is_stmt 1 view .LVU955
 3426 0294 FFF7FEFF 		bl	getTime
 3427              	.LVL237:
 376:Core/Src/main.c ****           Add_Message("RTC is set up");
 3428              		.loc 1 376 9 view .LVU956
 376:Core/Src/main.c ****           Add_Message("RTC is set up");
 3429              		.loc 1 376 12 is_stmt 0 view .LVU957
 3430 0298 0121     		movs	r1, #1
 3431 029a 3148     		ldr	r0, .L272
 3432 029c FFF7FEFF 		bl	HAL_RTCEx_BKUPRead
 3433              	.LVL238:
 376:Core/Src/main.c ****           Add_Message("RTC is set up");
 3434              		.loc 1 376 11 discriminator 1 view .LVU958
 3435 02a0 42F24533 		movw	r3, #9029
 3436 02a4 9842     		cmp	r0, r3
 3437 02a6 40F04881 		bne	.L223
 377:Core/Src/main.c ****           isRTCSetUp = true;
 3438              		.loc 1 377 11 is_stmt 1 view .LVU959
 3439 02aa 3E48     		ldr	r0, .L272+68
 3440 02ac FFF7FEFF 		bl	Add_Message
 3441              	.LVL239:
 378:Core/Src/main.c ****         } 
 3442              		.loc 1 378 11 view .LVU960
 378:Core/Src/main.c ****         } 
 3443              		.loc 1 378 22 is_stmt 0 view .LVU961
 3444 02b0 2C4B     		ldr	r3, .L272+4
 3445 02b2 0122     		movs	r2, #1
 3446 02b4 1A70     		strb	r2, [r3]
 3447 02b6 40E1     		b	.L223
 3448              	.L267:
 397:Core/Src/main.c ****       // state = STATE_800INIT;
 3449              		.loc 1 397 38 discriminator 1 view .LVU962
 3450 02b8 3B4B     		ldr	r3, .L272+72
 3451 02ba 93F80080 		ldrb	r8, [r3]	@ zero_extendqisi2
 397:Core/Src/main.c ****       // state = STATE_800INIT;
 3452              		.loc 1 397 29 discriminator 1 view .LVU963
 3453 02be B8F1000F 		cmp	r8, #0
 3454 02c2 40F04281 		bne	.L224
 399:Core/Src/main.c ****       //simtmr = HAL_GetTick();
 3455              		.loc 1 399 7 is_stmt 1 view .LVU964
 399:Core/Src/main.c ****       //simtmr = HAL_GetTick();
 3456              		.loc 1 399 13 is_stmt 0 view .LVU965
 3457 02c6 0120     		movs	r0, #1
 3458 02c8 1870     		strb	r0, [r3]
 401:Core/Src/main.c ****       screen_scroll_mode = SCROLL_MODE_AUTO;
 3459              		.loc 1 401 7 is_stmt 1 view .LVU966
 3460 02ca FFF7FEFF 		bl	findNextInDev
 3461              	.LVL240:
 402:Core/Src/main.c ****       if(isSDInitialised){
 3462              		.loc 1 402 7 view .LVU967
 402:Core/Src/main.c ****       if(isSDInitialised){
ARM GAS  C:\Users\kroko\AppData\Local\Temp\ccpAdhTr.s 			page 119


 3463              		.loc 1 402 26 is_stmt 0 view .LVU968
 3464 02ce 374B     		ldr	r3, .L272+76
 3465 02d0 0022     		movs	r2, #0
 3466 02d2 1A70     		strb	r2, [r3]
 403:Core/Src/main.c ****         // CREATE FILE "init_time_date.txt"
 3467              		.loc 1 403 7 is_stmt 1 view .LVU969
 403:Core/Src/main.c ****         // CREATE FILE "init_time_date.txt"
 3468              		.loc 1 403 10 is_stmt 0 view .LVU970
 3469 02d4 254B     		ldr	r3, .L272+12
 3470 02d6 1B78     		ldrb	r3, [r3]	@ zero_extendqisi2
 403:Core/Src/main.c ****         // CREATE FILE "init_time_date.txt"
 3471              		.loc 1 403 9 view .LVU971
 3472 02d8 002B     		cmp	r3, #0
 3473 02da 00F03681 		beq	.L224
 3474              	.LBB30:
 406:Core/Src/main.c ****         char reset_cause_buf[20];
 3475              		.loc 1 406 9 is_stmt 1 view .LVU972
 407:Core/Src/main.c ****         uint8_t buf_len = 0;
 3476              		.loc 1 407 9 view .LVU973
 408:Core/Src/main.c ****         // CREATE FILE
 3477              		.loc 1 408 9 view .LVU974
 3478              	.LVL241:
 410:Core/Src/main.c ****         FR_Status = f_open(&Fil, filename_buff, FA_WRITE | FA_OPEN_ALWAYS | FA_CREATE_ALWAYS);
 3479              		.loc 1 410 9 view .LVU975
 410:Core/Src/main.c ****         FR_Status = f_open(&Fil, filename_buff, FA_WRITE | FA_OPEN_ALWAYS | FA_CREATE_ALWAYS);
 3480              		.loc 1 410 106 is_stmt 0 view .LVU976
 3481 02de 0DF50453 		add	r3, sp, #8448
 3482 02e2 2A33     		adds	r3, r3, #42
 3483 02e4 1B78     		ldrb	r3, [r3]	@ zero_extendqisi2
 410:Core/Src/main.c ****         FR_Status = f_open(&Fil, filename_buff, FA_WRITE | FA_OPEN_ALWAYS | FA_CREATE_ALWAYS);
 3484              		.loc 1 410 121 view .LVU977
 3485 02e6 0DF50452 		add	r2, sp, #8448
 3486 02ea 3E32     		adds	r2, r2, #62
 3487 02ec 1278     		ldrb	r2, [r2]	@ zero_extendqisi2
 410:Core/Src/main.c ****         FR_Status = f_open(&Fil, filename_buff, FA_WRITE | FA_OPEN_ALWAYS | FA_CREATE_ALWAYS);
 3488              		.loc 1 410 133 view .LVU978
 3489 02ee 0DF50451 		add	r1, sp, #8448
 3490 02f2 3D31     		adds	r1, r1, #61
 3491 02f4 0978     		ldrb	r1, [r1]	@ zero_extendqisi2
 410:Core/Src/main.c ****         FR_Status = f_open(&Fil, filename_buff, FA_WRITE | FA_OPEN_ALWAYS | FA_CREATE_ALWAYS);
 3492              		.loc 1 410 146 view .LVU979
 3493 02f6 0DF50450 		add	r0, sp, #8448
 3494 02fa 3F30     		adds	r0, r0, #63
 3495 02fc 0078     		ldrb	r0, [r0]	@ zero_extendqisi2
 410:Core/Src/main.c ****         FR_Status = f_open(&Fil, filename_buff, FA_WRITE | FA_OPEN_ALWAYS | FA_CREATE_ALWAYS);
 3496              		.loc 1 410 9 view .LVU980
 3497 02fe 0390     		str	r0, [sp, #12]
 3498 0300 0291     		str	r1, [sp, #8]
 3499 0302 0192     		str	r2, [sp, #4]
 3500 0304 0093     		str	r3, [sp]
 3501 0306 0DF50453 		add	r3, sp, #8448
 3502 030a 2933     		adds	r3, r3, #41
 3503 030c 1B78     		ldrb	r3, [r3]	@ zero_extendqisi2
 3504 030e 0DF50452 		add	r2, sp, #8448
 3505 0312 2832     		adds	r2, r2, #40
 3506 0314 1278     		ldrb	r2, [r2]	@ zero_extendqisi2
 3507 0316 2649     		ldr	r1, .L272+80
ARM GAS  C:\Users\kroko\AppData\Local\Temp\ccpAdhTr.s 			page 120


 3508 0318 13A8     		add	r0, sp, #76
 3509 031a FFF7FEFF 		bl	sprintf
 3510              	.LVL242:
 411:Core/Src/main.c ****         // GET RESET REASON
 3511              		.loc 1 411 9 is_stmt 1 view .LVU981
 411:Core/Src/main.c ****         // GET RESET REASON
 3512              		.loc 1 411 21 is_stmt 0 view .LVU982
 3513 031e 1A22     		movs	r2, #26
 3514 0320 13A9     		add	r1, sp, #76
 3515 0322 30A8     		add	r0, sp, #192
 3516 0324 FFF7FEFF 		bl	f_open
 3517              	.LVL243:
 413:Core/Src/main.c ****         if (reset_flags & RCC_CSR_IWDGRSTF) {
 3518              		.loc 1 413 9 is_stmt 1 view .LVU983
 413:Core/Src/main.c ****         if (reset_flags & RCC_CSR_IWDGRSTF) {
 3519              		.loc 1 413 18 is_stmt 0 view .LVU984
 3520 0328 224B     		ldr	r3, .L272+84
 3521 032a 5B6F     		ldr	r3, [r3, #116]
 3522              	.LVL244:
 414:Core/Src/main.c ****           buf_len = sprintf(reset_cause_buf, "Reset by IWDG\n");
 3523              		.loc 1 414 9 is_stmt 1 view .LVU985
 414:Core/Src/main.c ****           buf_len = sprintf(reset_cause_buf, "Reset by IWDG\n");
 3524              		.loc 1 414 12 is_stmt 0 view .LVU986
 3525 032c 13F0005F 		tst	r3, #536870912
 3526 0330 09D1     		bne	.L256
 416:Core/Src/main.c ****           buf_len = sprintf(reset_cause_buf, "Normal startup\n");
 3527              		.loc 1 416 15 is_stmt 1 view .LVU987
 416:Core/Src/main.c ****           buf_len = sprintf(reset_cause_buf, "Normal startup\n");
 3528              		.loc 1 416 18 is_stmt 0 view .LVU988
 3529 0332 13F0806F 		tst	r3, #67108864
 3530 0336 41D1     		bne	.L257
 408:Core/Src/main.c ****         // CREATE FILE
 3531              		.loc 1 408 17 view .LVU989
 3532 0338 4246     		mov	r2, r8
 3533              	.LVL245:
 3534              	.L226:
 420:Core/Src/main.c ****         // GET DEVICE DATA
 3535              		.loc 1 420 9 is_stmt 1 view .LVU990
 420:Core/Src/main.c ****         // GET DEVICE DATA
 3536              		.loc 1 420 21 is_stmt 0 view .LVU991
 3537 033a 2FAB     		add	r3, sp, #188
 3538 033c 0EA9     		add	r1, sp, #56
 3539 033e 30A8     		add	r0, sp, #192
 3540 0340 FFF7FEFF 		bl	f_write
 3541              	.LVL246:
 422:Core/Src/main.c ****           char init_file_buf[75];
 3542              		.loc 1 422 9 is_stmt 1 view .LVU992
 3543              	.LBB31:
 422:Core/Src/main.c ****           char init_file_buf[75];
 3544              		.loc 1 422 14 view .LVU993
 422:Core/Src/main.c ****           char init_file_buf[75];
 3545              		.loc 1 422 9 is_stmt 0 view .LVU994
 3546 0344 6FE0     		b	.L227
 3547              	.LVL247:
 3548              	.L256:
 422:Core/Src/main.c ****           char init_file_buf[75];
 3549              		.loc 1 422 9 view .LVU995
ARM GAS  C:\Users\kroko\AppData\Local\Temp\ccpAdhTr.s 			page 121


 3550              	.LBE31:
 415:Core/Src/main.c ****         }else if (reset_flags & RCC_CSR_PINRSTF){
 3551              		.loc 1 415 11 is_stmt 1 view .LVU996
 415:Core/Src/main.c ****         }else if (reset_flags & RCC_CSR_PINRSTF){
 3552              		.loc 1 415 21 is_stmt 0 view .LVU997
 3553 0346 1C4B     		ldr	r3, .L272+88
 3554              	.LVL248:
 415:Core/Src/main.c ****         }else if (reset_flags & RCC_CSR_PINRSTF){
 3555              		.loc 1 415 21 view .LVU998
 3556 0348 0DF1380C 		add	ip, sp, #56
 3557 034c 0FCB     		ldm	r3, {r0, r1, r2, r3}
 3558 034e ACE80700 		stmia	ip!, {r0, r1, r2}
 3559 0352 2CF8023B 		strh	r3, [ip], #2	@ movhi
 3560 0356 1B0C     		lsrs	r3, r3, #16
 3561 0358 8CF80030 		strb	r3, [ip]
 3562              	.LVL249:
 415:Core/Src/main.c ****         }else if (reset_flags & RCC_CSR_PINRSTF){
 3563              		.loc 1 415 19 discriminator 1 view .LVU999
 3564 035c 0E22     		movs	r2, #14
 3565 035e ECE7     		b	.L226
 3566              	.L273:
 3567              		.align	2
 3568              	.L272:
 3569 0360 00000000 		.word	hrtc
 3570 0364 00000000 		.word	isRTCSetUp
 3571 0368 00000000 		.word	.LC19
 3572 036c 00000000 		.word	isSDInitialised
 3573 0370 00000000 		.word	SIMrxBuffer
 3574 0374 00000000 		.word	huart6
 3575 0378 00000000 		.word	deviceList
 3576 037c 00000000 		.word	hi2c1
 3577 0380 00000000 		.word	dev_num
 3578 0384 00000000 		.word	transmitMode
 3579 0388 00000000 		.word	act_dev_list
 3580 038c 00000000 		.word	act_dev_cnt
 3581 0390 04000000 		.word	.LC20
 3582 0394 00000000 		.word	isSIMInserted
 3583 0398 14000000 		.word	.LC21
 3584 039c 00000000 		.word	isRTCTimeSync
 3585 03a0 00000000 		.word	isSIMInitialised
 3586 03a4 24000000 		.word	.LC22
 3587 03a8 00000000 		.word	state
 3588 03ac 00000000 		.word	screen_scroll_mode
 3589 03b0 34000000 		.word	.LC23
 3590 03b4 00380240 		.word	1073887232
 3591 03b8 5C000000 		.word	.LC24
 3592              	.LVL250:
 3593              	.L257:
 417:Core/Src/main.c ****         }
 3594              		.loc 1 417 11 is_stmt 1 view .LVU1000
 417:Core/Src/main.c ****         }
 3595              		.loc 1 417 21 is_stmt 0 view .LVU1001
 3596 03bc 0DF1380C 		add	ip, sp, #56
 3597 03c0 9E4B     		ldr	r3, .L274
 3598              	.LVL251:
 417:Core/Src/main.c ****         }
 3599              		.loc 1 417 21 view .LVU1002
ARM GAS  C:\Users\kroko\AppData\Local\Temp\ccpAdhTr.s 			page 122


 3600 03c2 0FCB     		ldm	r3, {r0, r1, r2, r3}
 3601 03c4 8CE80F00 		stm	ip, {r0, r1, r2, r3}
 3602              	.LVL252:
 417:Core/Src/main.c ****         }
 3603              		.loc 1 417 19 discriminator 1 view .LVU1003
 3604 03c8 0F22     		movs	r2, #15
 3605 03ca B6E7     		b	.L226
 3606              	.LVL253:
 3607              	.L229:
 3608              	.LBB36:
 3609              	.LBB32:
 3610              	.LBB33:
 431:Core/Src/main.c ****               break;
 3611              		.loc 1 431 15 is_stmt 1 view .LVU1004
 3612 03cc 9C4B     		ldr	r3, .L274+4
 3613 03ce 0DF1280C 		add	ip, sp, #40
 3614 03d2 0FCB     		ldm	r3, {r0, r1, r2, r3}
 3615 03d4 ACE80700 		stmia	ip!, {r0, r1, r2}
 3616 03d8 ACF80030 		strh	r3, [ip]	@ movhi
 432:Core/Src/main.c ****             case TYPE_SET_TEL:
 3617              		.loc 1 432 15 view .LVU1005
 3618              	.L232:
 441:Core/Src/main.c ****             uint8_t min[5];
 3619              		.loc 1 441 13 view .LVU1006
 442:Core/Src/main.c ****             gcvt(deviceList[i].minValue, 5, min);
 3620              		.loc 1 442 13 view .LVU1007
 443:Core/Src/main.c ****             gcvt(deviceList[i].maxValue, 5, max);
 3621              		.loc 1 443 13 view .LVU1008
 3622 03dc 0BEBCB02 		add	r2, fp, fp, lsl #3
 3623 03e0 984B     		ldr	r3, .L274+8
 3624 03e2 03EBC20A 		add	r10, r3, r2, lsl #3
 3625 03e6 08A9     		add	r1, sp, #32
 3626 03e8 0520     		movs	r0, #5
 3627 03ea 9AED080B 		vldr.64	d0, [r10, #32]
 3628 03ee FFF7FEFF 		bl	gcvt
 3629              	.LVL254:
 444:Core/Src/main.c ****             // SAVE
 3630              		.loc 1 444 13 view .LVU1009
 3631 03f2 06A9     		add	r1, sp, #24
 3632 03f4 0520     		movs	r0, #5
 3633 03f6 9AED0A0B 		vldr.64	d0, [r10, #40]
 3634 03fa FFF7FEFF 		bl	gcvt
 3635              	.LVL255:
 446:Core/Src/main.c ****           }else{ // DEVICE UNINITIALISED
 3636              		.loc 1 446 13 view .LVU1010
 446:Core/Src/main.c ****           }else{ // DEVICE UNINITIALISED
 3637              		.loc 1 446 23 is_stmt 0 view .LVU1011
 3638 03fe 0AAB     		add	r3, sp, #40
 3639 0400 0193     		str	r3, [sp, #4]
 3640 0402 06AB     		add	r3, sp, #24
 3641 0404 0093     		str	r3, [sp]
 3642 0406 08AB     		add	r3, sp, #32
 3643 0408 5A46     		mov	r2, fp
 3644 040a 8F49     		ldr	r1, .L274+12
 3645 040c 1CA8     		add	r0, sp, #112
 3646 040e FFF7FEFF 		bl	sprintf
 3647              	.LVL256:
ARM GAS  C:\Users\kroko\AppData\Local\Temp\ccpAdhTr.s 			page 123


 446:Core/Src/main.c ****           }else{ // DEVICE UNINITIALISED
 3648              		.loc 1 446 21 discriminator 1 view .LVU1012
 3649 0412 C2B2     		uxtb	r2, r0
 3650              	.LVL257:
 3651              	.L233:
 446:Core/Src/main.c ****           }else{ // DEVICE UNINITIALISED
 3652              		.loc 1 446 21 discriminator 1 view .LVU1013
 3653              	.LBE33:
 450:Core/Src/main.c ****         }
 3654              		.loc 1 450 11 is_stmt 1 view .LVU1014
 450:Core/Src/main.c ****         }
 3655              		.loc 1 450 23 is_stmt 0 view .LVU1015
 3656 0414 2FAB     		add	r3, sp, #188
 3657 0416 1CA9     		add	r1, sp, #112
 3658 0418 30A8     		add	r0, sp, #192
 3659 041a FFF7FEFF 		bl	f_write
 3660              	.LVL258:
 450:Core/Src/main.c ****         }
 3661              		.loc 1 450 23 view .LVU1016
 3662              	.LBE32:
 422:Core/Src/main.c ****           char init_file_buf[75];
 3663              		.loc 1 422 45 is_stmt 1 discriminator 2 view .LVU1017
 3664 041e 08F10108 		add	r8, r8, #1
 3665              	.LVL259:
 422:Core/Src/main.c ****           char init_file_buf[75];
 3666              		.loc 1 422 45 is_stmt 0 discriminator 2 view .LVU1018
 3667 0422 5FFA88F8 		uxtb	r8, r8
 3668              	.LVL260:
 3669              	.L227:
 422:Core/Src/main.c ****           char init_file_buf[75];
 3670              		.loc 1 422 31 is_stmt 1 discriminator 1 view .LVU1019
 3671 0426 B8F1030F 		cmp	r8, #3
 3672 042a 2DD8     		bhi	.L258
 3673              	.LBB35:
 423:Core/Src/main.c ****           // DEVISE INITIALISED
 3674              		.loc 1 423 11 view .LVU1020
 425:Core/Src/main.c ****             char dev_type_buf[15];
 3675              		.loc 1 425 11 view .LVU1021
 425:Core/Src/main.c ****             char dev_type_buf[15];
 3676              		.loc 1 425 27 is_stmt 0 view .LVU1022
 3677 042c C346     		mov	fp, r8
 3678 042e 08EBC802 		add	r2, r8, r8, lsl #3
 3679 0432 844B     		ldr	r3, .L274+8
 3680 0434 03EBC203 		add	r3, r3, r2, lsl #3
 3681 0438 1B79     		ldrb	r3, [r3, #4]	@ zero_extendqisi2
 425:Core/Src/main.c ****             char dev_type_buf[15];
 3682              		.loc 1 425 13 view .LVU1023
 3683 043a DBB1     		cbz	r3, .L228
 3684              	.LBB34:
 426:Core/Src/main.c ****             // GET DEVICE TYPE
 3685              		.loc 1 426 13 is_stmt 1 view .LVU1024
 428:Core/Src/main.c ****             {
 3686              		.loc 1 428 13 view .LVU1025
 428:Core/Src/main.c ****             {
 3687              		.loc 1 428 34 is_stmt 0 view .LVU1026
 3688 043c 814B     		ldr	r3, .L274+8
 3689 043e 03EBC203 		add	r3, r3, r2, lsl #3
ARM GAS  C:\Users\kroko\AppData\Local\Temp\ccpAdhTr.s 			page 124


 3690 0442 5B79     		ldrb	r3, [r3, #5]	@ zero_extendqisi2
 428:Core/Src/main.c ****             {
 3691              		.loc 1 428 13 view .LVU1027
 3692 0444 012B     		cmp	r3, #1
 3693 0446 C1D0     		beq	.L229
 3694 0448 022B     		cmp	r3, #2
 3695 044a 0AD0     		beq	.L230
 3696 044c 002B     		cmp	r3, #0
 3697 044e C5D1     		bne	.L232
 434:Core/Src/main.c ****               break;
 3698              		.loc 1 434 15 is_stmt 1 view .LVU1028
 3699 0450 7E4B     		ldr	r3, .L274+16
 3700 0452 0DF1280C 		add	ip, sp, #40
 3701 0456 0FCB     		ldm	r3, {r0, r1, r2, r3}
 3702 0458 ACE80700 		stmia	ip!, {r0, r1, r2}
 3703 045c 8CF80030 		strb	r3, [ip]
 435:Core/Src/main.c ****             case TYPE_TEL_ONLY:
 3704              		.loc 1 435 15 view .LVU1029
 3705 0460 BCE7     		b	.L232
 3706              	.L230:
 437:Core/Src/main.c ****               break;
 3707              		.loc 1 437 15 view .LVU1030
 3708 0462 7B4B     		ldr	r3, .L274+20
 3709 0464 0DF1280C 		add	ip, sp, #40
 3710 0468 0FCB     		ldm	r3, {r0, r1, r2, r3}
 3711 046a ACE80700 		stmia	ip!, {r0, r1, r2}
 3712 046e ACF80030 		strh	r3, [ip]	@ movhi
 438:Core/Src/main.c ****             }
 3713              		.loc 1 438 15 view .LVU1031
 3714 0472 B3E7     		b	.L232
 3715              	.L228:
 3716              	.LBE34:
 448:Core/Src/main.c ****           }
 3717              		.loc 1 448 13 view .LVU1032
 448:Core/Src/main.c ****           }
 3718              		.loc 1 448 23 is_stmt 0 view .LVU1033
 3719 0474 774B     		ldr	r3, .L274+24
 3720 0476 0DF1700C 		add	ip, sp, #112
 3721 047a 0FCB     		ldm	r3, {r0, r1, r2, r3}
 3722 047c ACE80700 		stmia	ip!, {r0, r1, r2}
 3723 0480 8CF80030 		strb	r3, [ip]
 3724              	.LVL261:
 448:Core/Src/main.c ****           }
 3725              		.loc 1 448 21 discriminator 1 view .LVU1034
 3726 0484 0C22     		movs	r2, #12
 3727 0486 C5E7     		b	.L233
 3728              	.LVL262:
 3729              	.L258:
 448:Core/Src/main.c ****           }
 3730              		.loc 1 448 21 discriminator 1 view .LVU1035
 3731              	.LBE35:
 3732              	.LBE36:
 452:Core/Src/main.c ****         // SAVE CONFIG
 3733              		.loc 1 452 9 is_stmt 1 view .LVU1036
 3734 0488 30A8     		add	r0, sp, #192
 3735 048a FFF7FEFF 		bl	f_close
 3736              	.LVL263:
ARM GAS  C:\Users\kroko\AppData\Local\Temp\ccpAdhTr.s 			page 125


 3737 048e 5CE0     		b	.L224
 3738              	.LVL264:
 3739              	.L236:
 452:Core/Src/main.c ****         // SAVE CONFIG
 3740              		.loc 1 452 9 is_stmt 0 view .LVU1037
 3741              	.LBE30:
 463:Core/Src/main.c ****     }
 3742              		.loc 1 463 7 is_stmt 1 view .LVU1038
 463:Core/Src/main.c ****     }
 3743              		.loc 1 463 26 is_stmt 0 view .LVU1039
 3744 0490 FFF7FEFF 		bl	HAL_GetTick
 3745              	.LVL265:
 3746 0494 0546     		mov	r5, r0
 3747              	.LVL266:
 3748              	.L235:
 468:Core/Src/main.c ****       CST816S_ReadTouchData(&hi2c1, &TP);
 3749              		.loc 1 468 5 is_stmt 1 view .LVU1040
 468:Core/Src/main.c ****       CST816S_ReadTouchData(&hi2c1, &TP);
 3750              		.loc 1 468 8 is_stmt 0 view .LVU1041
 3751 0496 FFF7FEFF 		bl	HAL_GetTick
 3752              	.LVL267:
 468:Core/Src/main.c ****       CST816S_ReadTouchData(&hi2c1, &TP);
 3753              		.loc 1 468 22 discriminator 1 view .LVU1042
 3754 049a C01B     		subs	r0, r0, r7
 468:Core/Src/main.c ****       CST816S_ReadTouchData(&hi2c1, &TP);
 3755              		.loc 1 468 7 discriminator 1 view .LVU1043
 3756 049c 1E28     		cmp	r0, #30
 3757 049e 03D9     		bls	.L237
 468:Core/Src/main.c ****       CST816S_ReadTouchData(&hi2c1, &TP);
 3758              		.loc 1 468 39 discriminator 1 view .LVU1044
 3759 04a0 6D4B     		ldr	r3, .L274+28
 3760 04a2 1B78     		ldrb	r3, [r3]	@ zero_extendqisi2
 3761 04a4 002B     		cmp	r3, #0
 3762 04a6 67D1     		bne	.L259
 3763              	.L237:
 535:Core/Src/main.c ****       Error_Handler();
 3764              		.loc 1 535 5 is_stmt 1 view .LVU1045
 535:Core/Src/main.c ****       Error_Handler();
 3765              		.loc 1 535 9 is_stmt 0 view .LVU1046
 3766 04a8 6C48     		ldr	r0, .L274+32
 3767 04aa FFF7FEFF 		bl	HAL_IWDG_Refresh
 3768              	.LVL268:
 535:Core/Src/main.c ****       Error_Handler();
 3769              		.loc 1 535 8 discriminator 1 view .LVU1047
 3770 04ae 0028     		cmp	r0, #0
 3771 04b0 40F0A581 		bne	.L260
 3772              	.LVL269:
 3773              	.L208:
 306:Core/Src/main.c ****     if(state == STATE_INIT){
 3774              		.loc 1 306 3 is_stmt 1 view .LVU1048
 307:Core/Src/main.c ****       Display_Init(dev_num, DEV_COUNT);
 3775              		.loc 1 307 5 view .LVU1049
 307:Core/Src/main.c ****       Display_Init(dev_num, DEV_COUNT);
 3776              		.loc 1 307 14 is_stmt 0 view .LVU1050
 3777 04b4 6A4B     		ldr	r3, .L274+36
 3778 04b6 1B78     		ldrb	r3, [r3]	@ zero_extendqisi2
 307:Core/Src/main.c ****       Display_Init(dev_num, DEV_COUNT);
ARM GAS  C:\Users\kroko\AppData\Local\Temp\ccpAdhTr.s 			page 126


 3779              		.loc 1 307 7 view .LVU1051
 3780 04b8 002B     		cmp	r3, #0
 3781 04ba 3FF432AE 		beq	.L261
 313:Core/Src/main.c ****         Dispaly_Data(&deviceList[dev_num]);
 3782              		.loc 1 313 7 is_stmt 1 view .LVU1052
 313:Core/Src/main.c ****         Dispaly_Data(&deviceList[dev_num]);
 3783              		.loc 1 313 11 is_stmt 0 view .LVU1053
 3784 04be 694B     		ldr	r3, .L274+40
 3785 04c0 1B78     		ldrb	r3, [r3]	@ zero_extendqisi2
 313:Core/Src/main.c ****         Dispaly_Data(&deviceList[dev_num]);
 3786              		.loc 1 313 10 view .LVU1054
 3787 04c2 002B     		cmp	r3, #0
 3788 04c4 3FF455AE 		beq	.L262
 335:Core/Src/main.c ****         Draw_NavBar(0, -1);
 3789              		.loc 1 335 9 is_stmt 1 view .LVU1055
 3790 04c8 FFF7FEFF 		bl	Draw_Main_Screen
 3791              	.LVL270:
 336:Core/Src/main.c ****         //Draw_Easter();
 3792              		.loc 1 336 9 view .LVU1056
 3793 04cc 4FF0FF31 		mov	r1, #-1
 3794 04d0 0020     		movs	r0, #0
 3795 04d2 FFF7FEFF 		bl	Draw_NavBar
 3796              	.LVL271:
 3797              	.L210:
 344:Core/Src/main.c ****       if(dev_num == old_dev_num){
 3798              		.loc 1 344 5 view .LVU1057
 344:Core/Src/main.c ****       if(dev_num == old_dev_num){
 3799              		.loc 1 344 9 is_stmt 0 view .LVU1058
 3800 04d6 FFF7FEFF 		bl	HAL_GetTick
 3801              	.LVL272:
 344:Core/Src/main.c ****       if(dev_num == old_dev_num){
 3802              		.loc 1 344 22 discriminator 1 view .LVU1059
 3803 04da 801B     		subs	r0, r0, r6
 344:Core/Src/main.c ****       if(dev_num == old_dev_num){
 3804              		.loc 1 344 8 discriminator 1 view .LVU1060
 3805 04dc B0F57A7F 		cmp	r0, #1000
 3806 04e0 0FD9     		bls	.L217
 344:Core/Src/main.c ****       if(dev_num == old_dev_num){
 3807              		.loc 1 344 54 discriminator 1 view .LVU1061
 3808 04e2 5F4B     		ldr	r3, .L274+36
 3809 04e4 1B78     		ldrb	r3, [r3]	@ zero_extendqisi2
 344:Core/Src/main.c ****       if(dev_num == old_dev_num){
 3810              		.loc 1 344 45 discriminator 1 view .LVU1062
 3811 04e6 63B9     		cbnz	r3, .L217
 345:Core/Src/main.c ****         dev_num++;
 3812              		.loc 1 345 7 is_stmt 1 view .LVU1063
 345:Core/Src/main.c ****         dev_num++;
 3813              		.loc 1 345 18 is_stmt 0 view .LVU1064
 3814 04e8 5F4B     		ldr	r3, .L274+44
 3815 04ea 93F80080 		ldrb	r8, [r3]	@ zero_extendqisi2
 345:Core/Src/main.c ****         dev_num++;
 3816              		.loc 1 345 9 view .LVU1065
 3817 04ee C845     		cmp	r8, r9
 3818 04f0 3FF4A5AE 		beq	.L263
 3819              	.L218:
 3820              	.LVL273:
 350:Core/Src/main.c ****       screen_disp_time = HAL_GetTick();
ARM GAS  C:\Users\kroko\AppData\Local\Temp\ccpAdhTr.s 			page 127


 3821              		.loc 1 350 7 is_stmt 1 view .LVU1066
 350:Core/Src/main.c ****       screen_disp_time = HAL_GetTick();
 3822              		.loc 1 350 26 is_stmt 0 view .LVU1067
 3823 04f4 FFF7FEFF 		bl	HAL_GetTick
 3824              	.LVL274:
 3825 04f8 0646     		mov	r6, r0
 3826              	.LVL275:
 351:Core/Src/main.c ****     }
 3827              		.loc 1 351 7 is_stmt 1 view .LVU1068
 351:Core/Src/main.c ****     }
 3828              		.loc 1 351 26 is_stmt 0 view .LVU1069
 3829 04fa FFF7FEFF 		bl	HAL_GetTick
 3830              	.LVL276:
 351:Core/Src/main.c ****     }
 3831              		.loc 1 351 26 view .LVU1070
 3832 04fe 0546     		mov	r5, r0
 3833              	.LVL277:
 351:Core/Src/main.c ****     }
 3834              		.loc 1 351 26 view .LVU1071
 3835 0500 C146     		mov	r9, r8
 3836              	.LVL278:
 3837              	.L217:
 355:Core/Src/main.c ****       if(!isSIMInserted){
 3838              		.loc 1 355 5 is_stmt 1 view .LVU1072
 355:Core/Src/main.c ****       if(!isSIMInserted){
 3839              		.loc 1 355 8 is_stmt 0 view .LVU1073
 3840 0502 FFF7FEFF 		bl	HAL_GetTick
 3841              	.LVL279:
 355:Core/Src/main.c ****       if(!isSIMInserted){
 3842              		.loc 1 355 21 discriminator 1 view .LVU1074
 3843 0506 001B     		subs	r0, r0, r4
 355:Core/Src/main.c ****       if(!isSIMInserted){
 3844              		.loc 1 355 7 discriminator 1 view .LVU1075
 3845 0508 41F28833 		movw	r3, #5000
 3846 050c 9842     		cmp	r0, r3
 3847 050e 17D9     		bls	.L219
 356:Core/Src/main.c ****         if(checkSIMStatus()){
 3848              		.loc 1 356 7 is_stmt 1 view .LVU1076
 356:Core/Src/main.c ****         if(checkSIMStatus()){
 3849              		.loc 1 356 10 is_stmt 0 view .LVU1077
 3850 0510 564B     		ldr	r3, .L274+48
 3851 0512 1B78     		ldrb	r3, [r3]	@ zero_extendqisi2
 356:Core/Src/main.c ****         if(checkSIMStatus()){
 3852              		.loc 1 356 9 view .LVU1078
 3853 0514 002B     		cmp	r3, #0
 3854 0516 3FF497AE 		beq	.L264
 3855              	.L220:
 362:Core/Src/main.c ****         if(checkInitStatus()){
 3856              		.loc 1 362 7 is_stmt 1 view .LVU1079
 362:Core/Src/main.c ****         if(checkInitStatus()){
 3857              		.loc 1 362 10 is_stmt 0 view .LVU1080
 3858 051a 544B     		ldr	r3, .L274+48
 3859 051c 1B78     		ldrb	r3, [r3]	@ zero_extendqisi2
 362:Core/Src/main.c ****         if(checkInitStatus()){
 3860              		.loc 1 362 9 view .LVU1081
 3861 051e 23B1     		cbz	r3, .L221
 362:Core/Src/main.c ****         if(checkInitStatus()){
ARM GAS  C:\Users\kroko\AppData\Local\Temp\ccpAdhTr.s 			page 128


 3862              		.loc 1 362 27 discriminator 1 view .LVU1082
 3863 0520 534B     		ldr	r3, .L274+52
 3864 0522 1B78     		ldrb	r3, [r3]	@ zero_extendqisi2
 362:Core/Src/main.c ****         if(checkInitStatus()){
 3865              		.loc 1 362 24 discriminator 1 view .LVU1083
 3866 0524 002B     		cmp	r3, #0
 3867 0526 3FF49BAE 		beq	.L265
 3868              	.L221:
 374:Core/Src/main.c ****         getTime();
 3869              		.loc 1 374 7 is_stmt 1 view .LVU1084
 374:Core/Src/main.c ****         getTime();
 3870              		.loc 1 374 10 is_stmt 0 view .LVU1085
 3871 052a 514B     		ldr	r3, .L274+52
 3872 052c 1B78     		ldrb	r3, [r3]	@ zero_extendqisi2
 374:Core/Src/main.c ****         getTime();
 3873              		.loc 1 374 9 view .LVU1086
 3874 052e 23B1     		cbz	r3, .L223
 374:Core/Src/main.c ****         getTime();
 3875              		.loc 1 374 30 discriminator 1 view .LVU1087
 3876 0530 504B     		ldr	r3, .L274+56
 3877 0532 1B78     		ldrb	r3, [r3]	@ zero_extendqisi2
 374:Core/Src/main.c ****         getTime();
 3878              		.loc 1 374 27 discriminator 1 view .LVU1088
 3879 0534 002B     		cmp	r3, #0
 3880 0536 3FF4ADAE 		beq	.L266
 3881              	.L223:
 381:Core/Src/main.c ****     }
 3882              		.loc 1 381 7 is_stmt 1 view .LVU1089
 381:Core/Src/main.c ****     }
 3883              		.loc 1 381 17 is_stmt 0 view .LVU1090
 3884 053a FFF7FEFF 		bl	HAL_GetTick
 3885              	.LVL280:
 3886 053e 0446     		mov	r4, r0
 3887              	.LVL281:
 3888              	.L219:
 397:Core/Src/main.c ****       // state = STATE_800INIT;
 3889              		.loc 1 397 5 is_stmt 1 view .LVU1091
 397:Core/Src/main.c ****       // state = STATE_800INIT;
 3890              		.loc 1 397 16 is_stmt 0 view .LVU1092
 3891 0540 494B     		ldr	r3, .L274+44
 3892 0542 1B78     		ldrb	r3, [r3]	@ zero_extendqisi2
 397:Core/Src/main.c ****       // state = STATE_800INIT;
 3893              		.loc 1 397 7 view .LVU1093
 3894 0544 042B     		cmp	r3, #4
 3895 0546 3FF4B7AE 		beq	.L267
 3896              	.L224:
 459:Core/Src/main.c ****       if(state != STATE_INIT){
 3897              		.loc 1 459 5 is_stmt 1 view .LVU1094
 459:Core/Src/main.c ****       if(state != STATE_INIT){
 3898              		.loc 1 459 9 is_stmt 0 view .LVU1095
 3899 054a FFF7FEFF 		bl	HAL_GetTick
 3900              	.LVL282:
 459:Core/Src/main.c ****       if(state != STATE_INIT){
 3901              		.loc 1 459 22 discriminator 1 view .LVU1096
 3902 054e 401B     		subs	r0, r0, r5
 459:Core/Src/main.c ****       if(state != STATE_INIT){
 3903              		.loc 1 459 8 discriminator 1 view .LVU1097
ARM GAS  C:\Users\kroko\AppData\Local\Temp\ccpAdhTr.s 			page 129


 3904 0550 41F28833 		movw	r3, #5000
 3905 0554 9842     		cmp	r0, r3
 3906 0556 9ED9     		bls	.L235
 459:Core/Src/main.c ****       if(state != STATE_INIT){
 3907              		.loc 1 459 67 discriminator 1 view .LVU1098
 3908 0558 474B     		ldr	r3, .L274+60
 3909 055a 1B78     		ldrb	r3, [r3]	@ zero_extendqisi2
 459:Core/Src/main.c ****       if(state != STATE_INIT){
 3910              		.loc 1 459 45 discriminator 1 view .LVU1099
 3911 055c 002B     		cmp	r3, #0
 3912 055e 9AD1     		bne	.L235
 459:Core/Src/main.c ****       if(state != STATE_INIT){
 3913              		.loc 1 459 90 discriminator 2 view .LVU1100
 3914 0560 404B     		ldr	r3, .L274+40
 3915 0562 1B78     		ldrb	r3, [r3]	@ zero_extendqisi2
 459:Core/Src/main.c ****       if(state != STATE_INIT){
 3916              		.loc 1 459 87 discriminator 2 view .LVU1101
 3917 0564 002B     		cmp	r3, #0
 3918 0566 96D1     		bne	.L235
 460:Core/Src/main.c ****         findNextInDev(true);
 3919              		.loc 1 460 7 is_stmt 1 view .LVU1102
 460:Core/Src/main.c ****         findNextInDev(true);
 3920              		.loc 1 460 16 is_stmt 0 view .LVU1103
 3921 0568 3D4B     		ldr	r3, .L274+36
 3922 056a 1B78     		ldrb	r3, [r3]	@ zero_extendqisi2
 460:Core/Src/main.c ****         findNextInDev(true);
 3923              		.loc 1 460 9 view .LVU1104
 3924 056c 002B     		cmp	r3, #0
 3925 056e 8FD0     		beq	.L236
 461:Core/Src/main.c ****       }
 3926              		.loc 1 461 9 is_stmt 1 view .LVU1105
 3927 0570 0120     		movs	r0, #1
 3928 0572 FFF7FEFF 		bl	findNextInDev
 3929              	.LVL283:
 3930 0576 8BE7     		b	.L236
 3931              	.L259:
 469:Core/Src/main.c ****       if (TP.finger_num != 0){
 3932              		.loc 1 469 7 view .LVU1106
 3933 0578 404F     		ldr	r7, .L274+64
 3934              	.LVL284:
 469:Core/Src/main.c ****       if (TP.finger_num != 0){
 3935              		.loc 1 469 7 is_stmt 0 view .LVU1107
 3936 057a 3946     		mov	r1, r7
 3937 057c 4048     		ldr	r0, .L274+68
 3938 057e FFF7FEFF 		bl	CST816S_ReadTouchData
 3939              	.LVL285:
 470:Core/Src/main.c ****         // SOME ACTIONS
 3940              		.loc 1 470 7 is_stmt 1 view .LVU1108
 470:Core/Src/main.c ****         // SOME ACTIONS
 3941              		.loc 1 470 13 is_stmt 0 view .LVU1109
 3942 0582 7B78     		ldrb	r3, [r7, #1]	@ zero_extendqisi2
 470:Core/Src/main.c ****         // SOME ACTIONS
 3943              		.loc 1 470 10 view .LVU1110
 3944 0584 002B     		cmp	r3, #0
 3945 0586 51D0     		beq	.L238
 3946              	.LBB37:
 474:Core/Src/main.c ****         uint8_t y = map(TP.y_coord, 0, 65535, 0, 240);
ARM GAS  C:\Users\kroko\AppData\Local\Temp\ccpAdhTr.s 			page 130


 3947              		.loc 1 474 9 is_stmt 1 view .LVU1111
 474:Core/Src/main.c ****         uint8_t y = map(TP.y_coord, 0, 65535, 0, 240);
 3948              		.loc 1 474 27 is_stmt 0 view .LVU1112
 3949 0588 BA46     		mov	r10, r7
 474:Core/Src/main.c ****         uint8_t y = map(TP.y_coord, 0, 65535, 0, 240);
 3950              		.loc 1 474 21 view .LVU1113
 3951 058a 4FF0F00B 		mov	fp, #240
 3952 058e CDF800B0 		str	fp, [sp]
 3953 0592 0023     		movs	r3, #0
 3954 0594 4FF6FF72 		movw	r2, #65535
 3955 0598 1946     		mov	r1, r3
 3956 059a 7888     		ldrh	r0, [r7, #2]
 3957 059c FFF7FEFF 		bl	map
 3958              	.LVL286:
 3959 05a0 8046     		mov	r8, r0
 474:Core/Src/main.c ****         uint8_t y = map(TP.y_coord, 0, 65535, 0, 240);
 3960              		.loc 1 474 17 discriminator 1 view .LVU1114
 3961 05a2 C7B2     		uxtb	r7, r0
 3962              	.LVL287:
 475:Core/Src/main.c ****         
 3963              		.loc 1 475 9 is_stmt 1 view .LVU1115
 475:Core/Src/main.c ****         
 3964              		.loc 1 475 21 is_stmt 0 view .LVU1116
 3965 05a4 CDF800B0 		str	fp, [sp]
 3966 05a8 0023     		movs	r3, #0
 3967 05aa 4FF6FF72 		movw	r2, #65535
 3968 05ae 1946     		mov	r1, r3
 3969 05b0 BAF80400 		ldrh	r0, [r10, #4]
 3970 05b4 FFF7FEFF 		bl	map
 3971              	.LVL288:
 475:Core/Src/main.c ****         
 3972              		.loc 1 475 17 discriminator 1 view .LVU1117
 3973 05b8 C3B2     		uxtb	r3, r0
 3974              	.LVL289:
 478:Core/Src/main.c ****           deviceList[dev_num].isDevOn = !deviceList[dev_num].isDevOn;
 3975              		.loc 1 478 9 is_stmt 1 view .LVU1118
 478:Core/Src/main.c ****           deviceList[dev_num].isDevOn = !deviceList[dev_num].isDevOn;
 3976              		.loc 1 478 18 is_stmt 0 view .LVU1119
 3977 05ba 4F3F     		subs	r7, r7, #79
 3978              	.LVL290:
 478:Core/Src/main.c ****           deviceList[dev_num].isDevOn = !deviceList[dev_num].isDevOn;
 3979              		.loc 1 478 18 view .LVU1120
 3980 05bc FFB2     		uxtb	r7, r7
 3981              	.LVL291:
 478:Core/Src/main.c ****           deviceList[dev_num].isDevOn = !deviceList[dev_num].isDevOn;
 3982              		.loc 1 478 12 view .LVU1121
 3983 05be 522F     		cmp	r7, #82
 3984 05c0 12D8     		bhi	.L239
 478:Core/Src/main.c ****           deviceList[dev_num].isDevOn = !deviceList[dev_num].isDevOn;
 3985              		.loc 1 478 29 discriminator 1 view .LVU1122
 3986 05c2 4E2B     		cmp	r3, #78
 3987 05c4 10D9     		bls	.L239
 478:Core/Src/main.c ****           deviceList[dev_num].isDevOn = !deviceList[dev_num].isDevOn;
 3988              		.loc 1 478 39 discriminator 2 view .LVU1123
 3989 05c6 A12B     		cmp	r3, #161
 3990 05c8 0ED8     		bhi	.L239
 478:Core/Src/main.c ****           deviceList[dev_num].isDevOn = !deviceList[dev_num].isDevOn;
ARM GAS  C:\Users\kroko\AppData\Local\Temp\ccpAdhTr.s 			page 131


 3991              		.loc 1 478 53 discriminator 3 view .LVU1124
 3992 05ca 9AF80030 		ldrb	r3, [r10]	@ zero_extendqisi2
 3993              	.LVL292:
 478:Core/Src/main.c ****           deviceList[dev_num].isDevOn = !deviceList[dev_num].isDevOn;
 3994              		.loc 1 478 48 discriminator 3 view .LVU1125
 3995 05ce 5BB9     		cbnz	r3, .L239
 479:Core/Src/main.c ****         }
 3996              		.loc 1 479 11 is_stmt 1 view .LVU1126
 479:Core/Src/main.c ****         }
 3997              		.loc 1 479 61 is_stmt 0 view .LVU1127
 3998 05d0 254B     		ldr	r3, .L274+44
 3999 05d2 1A78     		ldrb	r2, [r3]	@ zero_extendqisi2
 4000 05d4 1B4B     		ldr	r3, .L274+8
 4001 05d6 4821     		movs	r1, #72
 4002 05d8 01FB0233 		mla	r3, r1, r2, r3
 4003 05dc 93F83020 		ldrb	r2, [r3, #48]	@ zero_extendqisi2
 479:Core/Src/main.c ****         }
 4004              		.loc 1 479 11 view .LVU1128
 4005 05e0 82F00102 		eor	r2, r2, #1
 479:Core/Src/main.c ****         }
 4006              		.loc 1 479 39 view .LVU1129
 4007 05e4 83F83020 		strb	r2, [r3, #48]
 4008              	.L239:
 481:Core/Src/main.c ****           if (isTouchInsideArc(x, y, 120, 120, 55, 120, 136, 44)) {
 4009              		.loc 1 481 9 is_stmt 1 view .LVU1130
 481:Core/Src/main.c ****           if (isTouchInsideArc(x, y, 120, 120, 55, 120, 136, 44)) {
 4010              		.loc 1 481 14 is_stmt 0 view .LVU1131
 4011 05e8 244B     		ldr	r3, .L274+64
 4012 05ea 1B78     		ldrb	r3, [r3]	@ zero_extendqisi2
 481:Core/Src/main.c ****           if (isTouchInsideArc(x, y, 120, 120, 55, 120, 136, 44)) {
 4013              		.loc 1 481 11 view .LVU1132
 4014 05ec 53B9     		cbnz	r3, .L240
 481:Core/Src/main.c ****           if (isTouchInsideArc(x, y, 120, 120, 55, 120, 136, 44)) {
 4015              		.loc 1 481 56 discriminator 1 view .LVU1133
 4016 05ee 1E4B     		ldr	r3, .L274+44
 4017 05f0 1B78     		ldrb	r3, [r3]	@ zero_extendqisi2
 4018 05f2 03EBC303 		add	r3, r3, r3, lsl #3
 4019 05f6 134A     		ldr	r2, .L274+8
 4020 05f8 02EBC303 		add	r3, r2, r3, lsl #3
 4021 05fc 93F83130 		ldrb	r3, [r3, #49]	@ zero_extendqisi2
 481:Core/Src/main.c ****           if (isTouchInsideArc(x, y, 120, 120, 55, 120, 136, 44)) {
 4022              		.loc 1 481 34 discriminator 1 view .LVU1134
 4023 0600 002B     		cmp	r3, #0
 4024 0602 45D1     		bne	.L268
 4025              	.LVL293:
 4026              	.L240:
 490:Core/Src/main.c ****           longPressFlag = true;
 4027              		.loc 1 490 9 is_stmt 1 view .LVU1135
 490:Core/Src/main.c ****           longPressFlag = true;
 4028              		.loc 1 490 14 is_stmt 0 view .LVU1136
 4029 0604 1D4B     		ldr	r3, .L274+64
 4030 0606 1B78     		ldrb	r3, [r3]	@ zero_extendqisi2
 490:Core/Src/main.c ****           longPressFlag = true;
 4031              		.loc 1 490 11 view .LVU1137
 4032 0608 0C2B     		cmp	r3, #12
 4033 060a 00F08780 		beq	.L269
 4034              	.L241:
ARM GAS  C:\Users\kroko\AppData\Local\Temp\ccpAdhTr.s 			page 132


 512:Core/Src/main.c ****           longPressFlag = false;
 4035              		.loc 1 512 9 is_stmt 1 view .LVU1138
 512:Core/Src/main.c ****           longPressFlag = false;
 4036              		.loc 1 512 14 is_stmt 0 view .LVU1139
 4037 060e 1B4B     		ldr	r3, .L274+64
 4038 0610 1B78     		ldrb	r3, [r3]	@ zero_extendqisi2
 512:Core/Src/main.c ****           longPressFlag = false;
 4039              		.loc 1 512 11 view .LVU1140
 4040 0612 0C2B     		cmp	r3, #12
 4041 0614 02D0     		beq	.L246
 513:Core/Src/main.c ****         }
 4042              		.loc 1 513 11 is_stmt 1 view .LVU1141
 513:Core/Src/main.c ****         }
 4043              		.loc 1 513 25 is_stmt 0 view .LVU1142
 4044 0616 1B4A     		ldr	r2, .L274+72
 4045 0618 0021     		movs	r1, #0
 4046 061a 1170     		strb	r1, [r2]
 4047              	.L246:
 517:Core/Src/main.c ****           findNextInDev(true);
 4048              		.loc 1 517 9 is_stmt 1 view .LVU1143
 517:Core/Src/main.c ****           findNextInDev(true);
 4049              		.loc 1 517 11 is_stmt 0 view .LVU1144
 4050 061c 032B     		cmp	r3, #3
 4051 061e 00F0C880 		beq	.L270
 4052              	.L247:
 522:Core/Src/main.c ****           findNextInDev(false);
 4053              		.loc 1 522 9 is_stmt 1 view .LVU1145
 522:Core/Src/main.c ****           findNextInDev(false);
 4054              		.loc 1 522 14 is_stmt 0 view .LVU1146
 4055 0622 164B     		ldr	r3, .L274+64
 4056 0624 1B78     		ldrb	r3, [r3]	@ zero_extendqisi2
 522:Core/Src/main.c ****           findNextInDev(false);
 4057              		.loc 1 522 11 view .LVU1147
 4058 0626 042B     		cmp	r3, #4
 4059 0628 00F0D680 		beq	.L271
 4060              	.LVL294:
 4061              	.L238:
 522:Core/Src/main.c ****           findNextInDev(false);
 4062              		.loc 1 522 11 view .LVU1148
 4063              	.LBE37:
 529:Core/Src/main.c ****       touch_tmr = HAL_GetTick();
 4064              		.loc 1 529 7 is_stmt 1 view .LVU1149
 529:Core/Src/main.c ****       touch_tmr = HAL_GetTick();
 4065              		.loc 1 529 22 is_stmt 0 view .LVU1150
 4066 062c 0A4B     		ldr	r3, .L274+28
 4067 062e 0022     		movs	r2, #0
 4068 0630 1A70     		strb	r2, [r3]
 530:Core/Src/main.c ****     }
 4069              		.loc 1 530 7 is_stmt 1 view .LVU1151
 530:Core/Src/main.c ****     }
 4070              		.loc 1 530 19 is_stmt 0 view .LVU1152
 4071 0632 FFF7FEFF 		bl	HAL_GetTick
 4072              	.LVL295:
 4073 0636 0746     		mov	r7, r0
 4074              	.LVL296:
 530:Core/Src/main.c ****     }
 4075              		.loc 1 530 19 view .LVU1153
ARM GAS  C:\Users\kroko\AppData\Local\Temp\ccpAdhTr.s 			page 133


 4076 0638 36E7     		b	.L237
 4077              	.L275:
 4078 063a 00BF     		.align	2
 4079              	.L274:
 4080 063c 6C000000 		.word	.LC25
 4081 0640 7C000000 		.word	.LC26
 4082 0644 00000000 		.word	deviceList
 4083 0648 AC000000 		.word	.LC29
 4084 064c 8C000000 		.word	.LC27
 4085 0650 9C000000 		.word	.LC28
 4086 0654 D4000000 		.word	.LC30
 4087 0658 00000000 		.word	touchAvailable
 4088 065c 00000000 		.word	hiwdg
 4089 0660 00000000 		.word	state
 4090 0664 00000000 		.word	allDeviceIsUnIn
 4091 0668 00000000 		.word	dev_num
 4092 066c 00000000 		.word	isSIMInserted
 4093 0670 00000000 		.word	isSIMInitialised
 4094 0674 00000000 		.word	isRTCSetUp
 4095 0678 00000000 		.word	screen_scroll_mode
 4096 067c 00000000 		.word	TP
 4097 0680 00000000 		.word	hi2c1
 4098 0684 00000000 		.word	longPressFlag
 4099 0688 00003042 		.word	1110441984
 4100 068c 00000843 		.word	1124597760
 4101              	.LVL297:
 4102              	.L268:
 4103              	.LBB39:
 482:Core/Src/main.c ****               char buf[13];
 4104              		.loc 1 482 11 is_stmt 1 view .LVU1154
 482:Core/Src/main.c ****               char buf[13];
 4105              		.loc 1 482 15 is_stmt 0 view .LVU1155
 4106 0690 5FFA88F8 		uxtb	r8, r8
 4107 0694 C7B2     		uxtb	r7, r0
 4108 0696 7822     		movs	r2, #120
 4109 0698 0192     		str	r2, [sp, #4]
 4110 069a 3723     		movs	r3, #55
 4111 069c 0093     		str	r3, [sp]
 4112 069e 5FED060A 		vldr.32	s1, .L274+76
 4113 06a2 1FED060A 		vldr.32	s0, .L274+80
 4114 06a6 1346     		mov	r3, r2
 4115 06a8 3946     		mov	r1, r7
 4116 06aa 4046     		mov	r0, r8
 4117              	.LVL298:
 482:Core/Src/main.c ****               char buf[13];
 4118              		.loc 1 482 15 view .LVU1156
 4119 06ac FFF7FEFF 		bl	isTouchInsideArc
 4120              	.LVL299:
 482:Core/Src/main.c ****               char buf[13];
 4121              		.loc 1 482 14 discriminator 1 view .LVU1157
 4122 06b0 0028     		cmp	r0, #0
 4123 06b2 A7D0     		beq	.L240
 4124              	.LBB38:
 483:Core/Src/main.c ****               float tp_angle = getTouchAngle(x, y); // 46 314
 4125              		.loc 1 483 15 is_stmt 1 view .LVU1158
 484:Core/Src/main.c ****               deviceList[dev_num].setValue = map(tp_angle, 46, 314, deviceList[dev_num].minValue, d
 4126              		.loc 1 484 15 view .LVU1159
ARM GAS  C:\Users\kroko\AppData\Local\Temp\ccpAdhTr.s 			page 134


 484:Core/Src/main.c ****               deviceList[dev_num].setValue = map(tp_angle, 46, 314, deviceList[dev_num].minValue, d
 4127              		.loc 1 484 32 is_stmt 0 view .LVU1160
 4128 06b4 3946     		mov	r1, r7
 4129 06b6 4046     		mov	r0, r8
 4130 06b8 FFF7FEFF 		bl	getTouchAngle
 4131              	.LVL300:
 485:Core/Src/main.c ****               sprintf(buf, "%d", map(tp_angle, 46, 314, 0, 100));
 4132              		.loc 1 485 15 is_stmt 1 view .LVU1161
 485:Core/Src/main.c ****               sprintf(buf, "%d", map(tp_angle, 46, 314, 0, 100));
 4133              		.loc 1 485 46 is_stmt 0 view .LVU1162
 4134 06bc FCEEC07A 		vcvt.u32.f32	s15, s0
 4135 06c0 17EE908A 		vmov	r8, s15	@ int
 485:Core/Src/main.c ****               sprintf(buf, "%d", map(tp_angle, 46, 314, 0, 100));
 4136              		.loc 1 485 88 view .LVU1163
 4137 06c4 4F4B     		ldr	r3, .L276
 4138 06c6 1B78     		ldrb	r3, [r3]	@ zero_extendqisi2
 4139 06c8 4F4F     		ldr	r7, .L276+4
 4140              	.LVL301:
 485:Core/Src/main.c ****               sprintf(buf, "%d", map(tp_angle, 46, 314, 0, 100));
 4141              		.loc 1 485 88 view .LVU1164
 4142 06ca 4822     		movs	r2, #72
 4143 06cc 02FB0377 		mla	r7, r2, r3, r7
 485:Core/Src/main.c ****               sprintf(buf, "%d", map(tp_angle, 46, 314, 0, 100));
 4144              		.loc 1 485 118 view .LVU1165
 4145 06d0 D7E90AAB 		ldrd	r10, [r7, #40]
 485:Core/Src/main.c ****               sprintf(buf, "%d", map(tp_angle, 46, 314, 0, 100));
 4146              		.loc 1 485 46 view .LVU1166
 4147 06d4 D7E90801 		ldrd	r0, [r7, #32]
 4148 06d8 FFF7FEFF 		bl	__aeabi_d2uiz
 4149              	.LVL302:
 485:Core/Src/main.c ****               sprintf(buf, "%d", map(tp_angle, 46, 314, 0, 100));
 4150              		.loc 1 485 46 view .LVU1167
 4151 06dc 0590     		str	r0, [sp, #20]
 4152 06de 5046     		mov	r0, r10
 4153 06e0 5946     		mov	r1, fp
 4154 06e2 FFF7FEFF 		bl	__aeabi_d2uiz
 4155              	.LVL303:
 4156 06e6 0090     		str	r0, [sp]
 4157 06e8 059B     		ldr	r3, [sp, #20]
 4158 06ea 4FF49D72 		mov	r2, #314
 4159 06ee 2E21     		movs	r1, #46
 4160 06f0 4046     		mov	r0, r8
 4161 06f2 FFF7FEFF 		bl	map
 4162              	.LVL304:
 485:Core/Src/main.c ****               sprintf(buf, "%d", map(tp_angle, 46, 314, 0, 100));
 4163              		.loc 1 485 44 discriminator 1 view .LVU1168
 4164 06f6 FFF7FEFF 		bl	__aeabi_ui2d
 4165              	.LVL305:
 4166 06fa C7E90601 		strd	r0, [r7, #24]
 486:Core/Src/main.c ****           }
 4167              		.loc 1 486 15 is_stmt 1 view .LVU1169
 4168 06fe 6423     		movs	r3, #100
 4169 0700 0093     		str	r3, [sp]
 4170 0702 0023     		movs	r3, #0
 4171 0704 4FF49D72 		mov	r2, #314
 4172 0708 2E21     		movs	r1, #46
 4173 070a 4046     		mov	r0, r8
ARM GAS  C:\Users\kroko\AppData\Local\Temp\ccpAdhTr.s 			page 135


 4174 070c FFF7FEFF 		bl	map
 4175              	.LVL306:
 4176 0710 0246     		mov	r2, r0
 486:Core/Src/main.c ****           }
 4177              		.loc 1 486 15 is_stmt 0 discriminator 1 view .LVU1170
 4178 0712 3E49     		ldr	r1, .L276+8
 4179 0714 1CA8     		add	r0, sp, #112
 4180 0716 FFF7FEFF 		bl	sprintf
 4181              	.LVL307:
 4182 071a 73E7     		b	.L240
 4183              	.LVL308:
 4184              	.L269:
 486:Core/Src/main.c ****           }
 4185              		.loc 1 486 15 discriminator 1 view .LVU1171
 4186              	.LBE38:
 490:Core/Src/main.c ****           longPressFlag = true;
 4187              		.loc 1 490 37 discriminator 1 view .LVU1172
 4188 071c 3C4B     		ldr	r3, .L276+12
 4189 071e 1B78     		ldrb	r3, [r3]	@ zero_extendqisi2
 490:Core/Src/main.c ****           longPressFlag = true;
 4190              		.loc 1 490 34 discriminator 1 view .LVU1173
 4191 0720 002B     		cmp	r3, #0
 4192 0722 7FF474AF 		bne	.L241
 490:Core/Src/main.c ****           longPressFlag = true;
 4193              		.loc 1 490 74 discriminator 2 view .LVU1174
 4194 0726 374B     		ldr	r3, .L276
 4195 0728 1B78     		ldrb	r3, [r3]	@ zero_extendqisi2
 4196 072a 03EBC303 		add	r3, r3, r3, lsl #3
 4197 072e 364A     		ldr	r2, .L276+4
 4198 0730 02EBC303 		add	r3, r2, r3, lsl #3
 4199 0734 5B79     		ldrb	r3, [r3, #5]	@ zero_extendqisi2
 490:Core/Src/main.c ****           longPressFlag = true;
 4200              		.loc 1 490 52 discriminator 2 view .LVU1175
 4201 0736 022B     		cmp	r3, #2
 4202 0738 3FF469AF 		beq	.L241
 491:Core/Src/main.c ****           // EDIT VALUE START
 4203              		.loc 1 491 11 is_stmt 1 view .LVU1176
 491:Core/Src/main.c ****           // EDIT VALUE START
 4204              		.loc 1 491 25 is_stmt 0 view .LVU1177
 4205 073c 344B     		ldr	r3, .L276+12
 4206 073e 0122     		movs	r2, #1
 4207 0740 1A70     		strb	r2, [r3]
 494:Core/Src/main.c ****           if(deviceList[dev_num].deviceDisplayMode == MODE_NORMAL){
 4208              		.loc 1 494 11 is_stmt 1 view .LVU1178
 494:Core/Src/main.c ****           if(deviceList[dev_num].deviceDisplayMode == MODE_NORMAL){
 4209              		.loc 1 494 30 is_stmt 0 view .LVU1179
 4210 0742 FFF7FEFF 		bl	HAL_GetTick
 4211              	.LVL309:
 4212 0746 0546     		mov	r5, r0
 4213              	.LVL310:
 495:Core/Src/main.c ****             if (deviceList[dev_num].deviceMode != TYPE_SET_ONLY){
 4214              		.loc 1 495 11 is_stmt 1 view .LVU1180
 495:Core/Src/main.c ****             if (deviceList[dev_num].deviceMode != TYPE_SET_ONLY){
 4215              		.loc 1 495 33 is_stmt 0 view .LVU1181
 4216 0748 2E4B     		ldr	r3, .L276
 4217 074a 1B78     		ldrb	r3, [r3]	@ zero_extendqisi2
 4218 074c 03EBC301 		add	r1, r3, r3, lsl #3
ARM GAS  C:\Users\kroko\AppData\Local\Temp\ccpAdhTr.s 			page 136


 4219 0750 2D4A     		ldr	r2, .L276+4
 4220 0752 02EBC102 		add	r2, r2, r1, lsl #3
 4221 0756 92F83120 		ldrb	r2, [r2, #49]	@ zero_extendqisi2
 495:Core/Src/main.c ****             if (deviceList[dev_num].deviceMode != TYPE_SET_ONLY){
 4222              		.loc 1 495 13 view .LVU1182
 4223 075a DAB9     		cbnz	r2, .L242
 496:Core/Src/main.c ****               deviceList[dev_num].setValue = deviceList[dev_num].currentValue;
 4224              		.loc 1 496 13 is_stmt 1 view .LVU1183
 496:Core/Src/main.c ****               deviceList[dev_num].setValue = deviceList[dev_num].currentValue;
 4225              		.loc 1 496 36 is_stmt 0 view .LVU1184
 4226 075c 2A4A     		ldr	r2, .L276+4
 4227 075e 4821     		movs	r1, #72
 4228 0760 01FB0322 		mla	r2, r1, r3, r2
 4229 0764 5279     		ldrb	r2, [r2, #5]	@ zero_extendqisi2
 496:Core/Src/main.c ****               deviceList[dev_num].setValue = deviceList[dev_num].currentValue;
 4230              		.loc 1 496 16 view .LVU1185
 4231 0766 012A     		cmp	r2, #1
 4232 0768 06D0     		beq	.L243
 497:Core/Src/main.c ****             }
 4233              		.loc 1 497 15 is_stmt 1 view .LVU1186
 497:Core/Src/main.c ****             }
 4234              		.loc 1 497 65 is_stmt 0 view .LVU1187
 4235 076a 274A     		ldr	r2, .L276+4
 4236 076c 01FB0322 		mla	r2, r1, r3, r2
 4237 0770 D2E90401 		ldrd	r0, [r2, #16]
 4238              	.LVL311:
 497:Core/Src/main.c ****             }
 4239              		.loc 1 497 44 view .LVU1188
 4240 0774 C2E90601 		strd	r0, [r2, #24]
 4241              	.L243:
 499:Core/Src/main.c ****           }else{
 4242              		.loc 1 499 13 is_stmt 1 view .LVU1189
 499:Core/Src/main.c ****           }else{
 4243              		.loc 1 499 51 is_stmt 0 view .LVU1190
 4244 0778 234A     		ldr	r2, .L276+4
 4245 077a 4821     		movs	r1, #72
 4246 077c 01FB0323 		mla	r3, r1, r3, r2
 4247 0780 0122     		movs	r2, #1
 4248 0782 83F83120 		strb	r2, [r3, #49]
 4249              	.L244:
 505:Core/Src/main.c ****             screen_scroll_mode = SCROLL_MODE_HALT;
 4250              		.loc 1 505 11 is_stmt 1 view .LVU1191
 505:Core/Src/main.c ****             screen_scroll_mode = SCROLL_MODE_HALT;
 4251              		.loc 1 505 33 is_stmt 0 view .LVU1192
 4252 0786 234B     		ldr	r3, .L276+16
 4253 0788 1B78     		ldrb	r3, [r3]	@ zero_extendqisi2
 505:Core/Src/main.c ****             screen_scroll_mode = SCROLL_MODE_HALT;
 4254              		.loc 1 505 13 view .LVU1193
 4255 078a 73B9     		cbnz	r3, .L245
 506:Core/Src/main.c ****           }else{
 4256              		.loc 1 506 13 is_stmt 1 view .LVU1194
 506:Core/Src/main.c ****           }else{
 4257              		.loc 1 506 32 is_stmt 0 view .LVU1195
 4258 078c 214B     		ldr	r3, .L276+16
 4259 078e 0122     		movs	r2, #1
 4260 0790 1A70     		strb	r2, [r3]
 4261 0792 3CE7     		b	.L241
ARM GAS  C:\Users\kroko\AppData\Local\Temp\ccpAdhTr.s 			page 137


 4262              	.LVL312:
 4263              	.L242:
 501:Core/Src/main.c ****             deviceList[dev_num].deviceDisplayMode = MODE_NORMAL;
 4264              		.loc 1 501 13 is_stmt 1 view .LVU1196
 501:Core/Src/main.c ****             deviceList[dev_num].deviceDisplayMode = MODE_NORMAL;
 4265              		.loc 1 501 26 is_stmt 0 view .LVU1197
 4266 0794 204A     		ldr	r2, .L276+20
 4267 0796 0121     		movs	r1, #1
 4268 0798 1170     		strb	r1, [r2]
 502:Core/Src/main.c ****           }
 4269              		.loc 1 502 13 is_stmt 1 view .LVU1198
 502:Core/Src/main.c ****           }
 4270              		.loc 1 502 51 is_stmt 0 view .LVU1199
 4271 079a 1B4A     		ldr	r2, .L276+4
 4272 079c 4821     		movs	r1, #72
 4273 079e 01FB0323 		mla	r3, r1, r3, r2
 4274 07a2 0022     		movs	r2, #0
 4275 07a4 83F83120 		strb	r2, [r3, #49]
 4276 07a8 EDE7     		b	.L244
 4277              	.LVL313:
 4278              	.L245:
 508:Core/Src/main.c ****           }
 4279              		.loc 1 508 13 is_stmt 1 view .LVU1200
 508:Core/Src/main.c ****           }
 4280              		.loc 1 508 32 is_stmt 0 view .LVU1201
 4281 07aa 1A4B     		ldr	r3, .L276+16
 4282 07ac 0022     		movs	r2, #0
 4283 07ae 1A70     		strb	r2, [r3]
 4284 07b0 2DE7     		b	.L241
 4285              	.L270:
 517:Core/Src/main.c ****           findNextInDev(true);
 4286              		.loc 1 517 56 discriminator 1 view .LVU1202
 4287 07b2 144B     		ldr	r3, .L276
 4288 07b4 1B78     		ldrb	r3, [r3]	@ zero_extendqisi2
 4289 07b6 03EBC303 		add	r3, r3, r3, lsl #3
 4290 07ba 134A     		ldr	r2, .L276+4
 4291 07bc 02EBC303 		add	r3, r2, r3, lsl #3
 4292 07c0 93F83130 		ldrb	r3, [r3, #49]	@ zero_extendqisi2
 517:Core/Src/main.c ****           findNextInDev(true);
 4293              		.loc 1 517 34 discriminator 1 view .LVU1203
 4294 07c4 002B     		cmp	r3, #0
 4295 07c6 7FF42CAF 		bne	.L247
 518:Core/Src/main.c ****           // Show_Message("LEFT", 500);
 4296              		.loc 1 518 11 is_stmt 1 view .LVU1204
 4297 07ca 0120     		movs	r0, #1
 4298 07cc FFF7FEFF 		bl	findNextInDev
 4299              	.LVL314:
 520:Core/Src/main.c ****         }
 4300              		.loc 1 520 11 view .LVU1205
 520:Core/Src/main.c ****         }
 4301              		.loc 1 520 30 is_stmt 0 view .LVU1206
 4302 07d0 FFF7FEFF 		bl	HAL_GetTick
 4303              	.LVL315:
 4304 07d4 0546     		mov	r5, r0
 4305              	.LVL316:
 520:Core/Src/main.c ****         }
 4306              		.loc 1 520 30 view .LVU1207
ARM GAS  C:\Users\kroko\AppData\Local\Temp\ccpAdhTr.s 			page 138


 4307 07d6 24E7     		b	.L247
 4308              	.LVL317:
 4309              	.L271:
 522:Core/Src/main.c ****           findNextInDev(false);
 4310              		.loc 1 522 56 discriminator 1 view .LVU1208
 4311 07d8 0A4B     		ldr	r3, .L276
 4312 07da 1B78     		ldrb	r3, [r3]	@ zero_extendqisi2
 4313 07dc 03EBC303 		add	r3, r3, r3, lsl #3
 4314 07e0 094A     		ldr	r2, .L276+4
 4315 07e2 02EBC303 		add	r3, r2, r3, lsl #3
 4316 07e6 93F83130 		ldrb	r3, [r3, #49]	@ zero_extendqisi2
 522:Core/Src/main.c ****           findNextInDev(false);
 4317              		.loc 1 522 34 discriminator 1 view .LVU1209
 4318 07ea 002B     		cmp	r3, #0
 4319 07ec 7FF41EAF 		bne	.L238
 523:Core/Src/main.c ****           // Show_Message("RIGHT", 500);
 4320              		.loc 1 523 11 is_stmt 1 view .LVU1210
 4321 07f0 0020     		movs	r0, #0
 4322 07f2 FFF7FEFF 		bl	findNextInDev
 4323              	.LVL318:
 525:Core/Src/main.c ****         }
 4324              		.loc 1 525 11 view .LVU1211
 525:Core/Src/main.c ****         }
 4325              		.loc 1 525 30 is_stmt 0 view .LVU1212
 4326 07f6 FFF7FEFF 		bl	HAL_GetTick
 4327              	.LVL319:
 4328 07fa 0546     		mov	r5, r0
 4329              	.LVL320:
 525:Core/Src/main.c ****         }
 4330              		.loc 1 525 30 view .LVU1213
 4331 07fc 16E7     		b	.L238
 4332              	.LVL321:
 4333              	.L260:
 525:Core/Src/main.c ****         }
 4334              		.loc 1 525 30 view .LVU1214
 4335              	.LBE39:
 536:Core/Src/main.c ****     }
 4336              		.loc 1 536 7 is_stmt 1 view .LVU1215
 4337 07fe FFF7FEFF 		bl	Error_Handler
 4338              	.LVL322:
 4339 0802 57E6     		b	.L208
 4340              	.L277:
 4341              		.align	2
 4342              	.L276:
 4343 0804 00000000 		.word	dev_num
 4344 0808 00000000 		.word	deviceList
 4345 080c E4000000 		.word	.LC31
 4346 0810 00000000 		.word	longPressFlag
 4347 0814 00000000 		.word	screen_scroll_mode
 4348 0818 00000000 		.word	transmitMode
 4349              		.cfi_endproc
 4350              	.LFE137:
 4352              		.global	bite_apn
 4353              		.section	.rodata.str1.4,"aMS",%progbits,1
 4354              		.align	2
 4355              	.LC32:
 4356 0000 696E7465 		.ascii	"internet\000"
ARM GAS  C:\Users\kroko\AppData\Local\Temp\ccpAdhTr.s 			page 139


 4356      726E6574 
 4356      00
 4357              		.section	.data.bite_apn,"aw"
 4358              		.align	2
 4361              	bite_apn:
 4362 0000 00000000 		.word	.LC32
 4363              		.global	lmt_apn
 4364              		.section	.rodata.str1.4
 4365 0009 000000   		.align	2
 4366              	.LC33:
 4367 000c 696E7465 		.ascii	"internet.lmt.lv\000"
 4367      726E6574 
 4367      2E6C6D74 
 4367      2E6C7600 
 4368              		.section	.data.lmt_apn,"aw"
 4369              		.align	2
 4372              	lmt_apn:
 4373 0000 0C000000 		.word	.LC33
 4374              		.global	tele2_apn
 4375              		.section	.rodata.str1.4
 4376              		.align	2
 4377              	.LC34:
 4378 001c 696E7465 		.ascii	"internet.tele2.lv\000"
 4378      726E6574 
 4378      2E74656C 
 4378      65322E6C 
 4378      7600
 4379              		.section	.data.tele2_apn,"aw"
 4380              		.align	2
 4383              	tele2_apn:
 4384 0000 1C000000 		.word	.LC34
 4385              		.global	longPressFlag
 4386              		.section	.bss.longPressFlag,"aw",%nobits
 4389              	longPressFlag:
 4390 0000 00       		.space	1
 4391              		.global	isRTCTimeSync
 4392              		.section	.bss.isRTCTimeSync,"aw",%nobits
 4395              	isRTCTimeSync:
 4396 0000 00       		.space	1
 4397              		.global	isRTCSetUp
 4398              		.section	.bss.isRTCSetUp,"aw",%nobits
 4401              	isRTCSetUp:
 4402 0000 00       		.space	1
 4403              		.global	touchAvailable
 4404              		.section	.bss.touchAvailable,"aw",%nobits
 4407              	touchAvailable:
 4408 0000 00       		.space	1
 4409              		.global	allDeviceIsUnIn
 4410              		.section	.data.allDeviceIsUnIn,"aw"
 4413              	allDeviceIsUnIn:
 4414 0000 01       		.byte	1
 4415              		.global	isSIMInserted
 4416              		.section	.bss.isSIMInserted,"aw",%nobits
 4419              	isSIMInserted:
 4420 0000 00       		.space	1
 4421              		.global	isSIMInitialised
 4422              		.section	.bss.isSIMInitialised,"aw",%nobits
ARM GAS  C:\Users\kroko\AppData\Local\Temp\ccpAdhTr.s 			page 140


 4425              	isSIMInitialised:
 4426 0000 00       		.space	1
 4427              		.global	isSDInitialised
 4428              		.section	.bss.isSDInitialised,"aw",%nobits
 4431              	isSDInitialised:
 4432 0000 00       		.space	1
 4433              		.global	transmitMode
 4434              		.section	.bss.transmitMode,"aw",%nobits
 4437              	transmitMode:
 4438 0000 00       		.space	1
 4439              		.global	SIMtxBuffer
 4440              		.section	.bss.SIMtxBuffer,"aw",%nobits
 4441              		.align	2
 4444              	SIMtxBuffer:
 4445 0000 00000000 		.space	128
 4445      00000000 
 4445      00000000 
 4445      00000000 
 4445      00000000 
 4446              		.global	SIMrxBuffer
 4447              		.section	.bss.SIMrxBuffer,"aw",%nobits
 4448              		.align	2
 4451              	SIMrxBuffer:
 4452 0000 00000000 		.space	512
 4452      00000000 
 4452      00000000 
 4452      00000000 
 4452      00000000 
 4453              		.global	sim_rx_buff
 4454              		.section	.bss.sim_rx_buff,"aw",%nobits
 4455              		.align	2
 4458              	sim_rx_buff:
 4459 0000 00000000 		.space	30
 4459      00000000 
 4459      00000000 
 4459      00000000 
 4459      00000000 
 4460              		.global	rx_buff
 4461              		.section	.bss.rx_buff,"aw",%nobits
 4462              		.align	2
 4465              	rx_buff:
 4466 0000 00000000 		.space	10
 4466      00000000 
 4466      0000
 4467              		.global	sim
 4468              		.section	.data.sim,"aw"
 4469              		.align	2
 4472              	sim:
 4473 0000 00000000 		.word	huart6
 4474 0004 00000000 		.space	4
 4475              		.global	deviceList
 4476              		.section	.data.deviceList,"aw"
 4477              		.align	3
 4480              	deviceList:
 4481 0000 00000000 		.word	huart4
 4482 0004 00       		.byte	0
 4483 0005 01       		.byte	1
ARM GAS  C:\Users\kroko\AppData\Local\Temp\ccpAdhTr.s 			page 141


 4484 0006 0000     		.space	2
 4485 0008 00080240 		.word	1073874944
 4486 000c 0100     		.short	1
 4487 000e 00000000 		.space	58
 4487      00000000 
 4487      00000000 
 4487      00000000 
 4487      00000000 
 4488 0048 00000000 		.word	huart2
 4489 004c 00       		.byte	0
 4490 004d 01       		.byte	1
 4491 004e 0000     		.space	2
 4492 0050 00040240 		.word	1073873920
 4493 0054 0100     		.short	1
 4494 0056 00000000 		.space	58
 4494      00000000 
 4494      00000000 
 4494      00000000 
 4494      00000000 
 4495 0090 00000000 		.word	huart3
 4496 0094 00       		.byte	0
 4497 0095 01       		.byte	1
 4498 0096 0000     		.space	2
 4499 0098 00040240 		.word	1073873920
 4500 009c 0200     		.short	2
 4501 009e 00000000 		.space	58
 4501      00000000 
 4501      00000000 
 4501      00000000 
 4501      00000000 
 4502 00d8 00000000 		.word	huart5
 4503 00dc 00       		.byte	0
 4504 00dd 01       		.byte	1
 4505 00de 0000     		.space	2
 4506 00e0 000C0240 		.word	1073875968
 4507 00e4 0400     		.short	4
 4508 00e6 00000000 		.space	58
 4508      00000000 
 4508      00000000 
 4508      00000000 
 4508      00000000 
 4509              		.global	TP
 4510              		.section	.bss.TP,"aw",%nobits
 4511              		.align	2
 4514              	TP:
 4515 0000 00000000 		.space	6
 4515      0000
 4516              		.global	screen_scroll_mode
 4517              		.section	.bss.screen_scroll_mode,"aw",%nobits
 4520              	screen_scroll_mode:
 4521 0000 00       		.space	1
 4522              		.global	alarm_timeout
 4523              		.section	.data.alarm_timeout,"aw"
 4526              	alarm_timeout:
 4527 0000 01       		.byte	1
 4528              		.global	isDevPolledFirstTime
 4529              		.section	.data.isDevPolledFirstTime,"aw"
ARM GAS  C:\Users\kroko\AppData\Local\Temp\ccpAdhTr.s 			page 142


 4532              	isDevPolledFirstTime:
 4533 0000 01       		.byte	1
 4534              		.global	act_dev_list
 4535              		.section	.data.act_dev_list,"aw"
 4536              		.align	2
 4539              	act_dev_list:
 4540 0000 FFFFFFFF 		.ascii	"\377\377\377\377"
 4541              		.global	act_dev_cnt
 4542              		.section	.bss.act_dev_cnt,"aw",%nobits
 4545              	act_dev_cnt:
 4546 0000 00       		.space	1
 4547              		.global	dev_num
 4548              		.section	.bss.dev_num,"aw",%nobits
 4551              	dev_num:
 4552 0000 00       		.space	1
 4553              		.global	state
 4554              		.section	.bss.state,"aw",%nobits
 4557              	state:
 4558 0000 00       		.space	1
 4559              		.global	device_type
 4560              		.section	.bss.device_type,"aw",%nobits
 4563              	device_type:
 4564 0000 00       		.space	1
 4565              		.global	palette
 4566              		.section	.bss.palette,"aw",%nobits
 4569              	palette:
 4570 0000 00       		.space	1
 4571              		.global	tx_buff
 4572              		.section	.data.tx_buff,"aw"
 4573              		.align	2
 4576              	tx_buff:
 4577 0000 54424344 		.ascii	"TBCDEFGHIJ"
 4577      45464748 
 4577      494A
 4578              		.global	val
 4579              		.section	.data.val,"aw"
 4580              		.align	3
 4583              	val:
 4584 0000 00000000 		.word	0
 4585 0004 00002440 		.word	1076101120
 4586              		.global	hdma_usart6_tx
 4587              		.section	.bss.hdma_usart6_tx,"aw",%nobits
 4588              		.align	2
 4591              	hdma_usart6_tx:
 4592 0000 00000000 		.space	96
 4592      00000000 
 4592      00000000 
 4592      00000000 
 4592      00000000 
 4593              		.global	hdma_usart6_rx
 4594              		.section	.bss.hdma_usart6_rx,"aw",%nobits
 4595              		.align	2
 4598              	hdma_usart6_rx:
 4599 0000 00000000 		.space	96
 4599      00000000 
 4599      00000000 
 4599      00000000 
ARM GAS  C:\Users\kroko\AppData\Local\Temp\ccpAdhTr.s 			page 143


 4599      00000000 
 4600              		.global	hdma_usart3_tx
 4601              		.section	.bss.hdma_usart3_tx,"aw",%nobits
 4602              		.align	2
 4605              	hdma_usart3_tx:
 4606 0000 00000000 		.space	96
 4606      00000000 
 4606      00000000 
 4606      00000000 
 4606      00000000 
 4607              		.global	hdma_usart3_rx
 4608              		.section	.bss.hdma_usart3_rx,"aw",%nobits
 4609              		.align	2
 4612              	hdma_usart3_rx:
 4613 0000 00000000 		.space	96
 4613      00000000 
 4613      00000000 
 4613      00000000 
 4613      00000000 
 4614              		.global	hdma_usart2_tx
 4615              		.section	.bss.hdma_usart2_tx,"aw",%nobits
 4616              		.align	2
 4619              	hdma_usart2_tx:
 4620 0000 00000000 		.space	96
 4620      00000000 
 4620      00000000 
 4620      00000000 
 4620      00000000 
 4621              		.global	hdma_usart2_rx
 4622              		.section	.bss.hdma_usart2_rx,"aw",%nobits
 4623              		.align	2
 4626              	hdma_usart2_rx:
 4627 0000 00000000 		.space	96
 4627      00000000 
 4627      00000000 
 4627      00000000 
 4627      00000000 
 4628              		.global	hdma_uart5_tx
 4629              		.section	.bss.hdma_uart5_tx,"aw",%nobits
 4630              		.align	2
 4633              	hdma_uart5_tx:
 4634 0000 00000000 		.space	96
 4634      00000000 
 4634      00000000 
 4634      00000000 
 4634      00000000 
 4635              		.global	hdma_uart5_rx
 4636              		.section	.bss.hdma_uart5_rx,"aw",%nobits
 4637              		.align	2
 4640              	hdma_uart5_rx:
 4641 0000 00000000 		.space	96
 4641      00000000 
 4641      00000000 
 4641      00000000 
 4641      00000000 
 4642              		.global	hdma_uart4_rx
 4643              		.section	.bss.hdma_uart4_rx,"aw",%nobits
ARM GAS  C:\Users\kroko\AppData\Local\Temp\ccpAdhTr.s 			page 144


 4644              		.align	2
 4647              	hdma_uart4_rx:
 4648 0000 00000000 		.space	96
 4648      00000000 
 4648      00000000 
 4648      00000000 
 4648      00000000 
 4649              		.global	hdma_uart4_tx
 4650              		.section	.bss.hdma_uart4_tx,"aw",%nobits
 4651              		.align	2
 4654              	hdma_uart4_tx:
 4655 0000 00000000 		.space	96
 4655      00000000 
 4655      00000000 
 4655      00000000 
 4655      00000000 
 4656              		.global	huart6
 4657              		.section	.bss.huart6,"aw",%nobits
 4658              		.align	2
 4661              	huart6:
 4662 0000 00000000 		.space	72
 4662      00000000 
 4662      00000000 
 4662      00000000 
 4662      00000000 
 4663              		.global	huart3
 4664              		.section	.bss.huart3,"aw",%nobits
 4665              		.align	2
 4668              	huart3:
 4669 0000 00000000 		.space	72
 4669      00000000 
 4669      00000000 
 4669      00000000 
 4669      00000000 
 4670              		.global	huart2
 4671              		.section	.bss.huart2,"aw",%nobits
 4672              		.align	2
 4675              	huart2:
 4676 0000 00000000 		.space	72
 4676      00000000 
 4676      00000000 
 4676      00000000 
 4676      00000000 
 4677              		.global	huart5
 4678              		.section	.bss.huart5,"aw",%nobits
 4679              		.align	2
 4682              	huart5:
 4683 0000 00000000 		.space	72
 4683      00000000 
 4683      00000000 
 4683      00000000 
 4683      00000000 
 4684              		.global	huart4
 4685              		.section	.bss.huart4,"aw",%nobits
 4686              		.align	2
 4689              	huart4:
 4690 0000 00000000 		.space	72
ARM GAS  C:\Users\kroko\AppData\Local\Temp\ccpAdhTr.s 			page 145


 4690      00000000 
 4690      00000000 
 4690      00000000 
 4690      00000000 
 4691              		.global	hspi2
 4692              		.section	.bss.hspi2,"aw",%nobits
 4693              		.align	2
 4696              	hspi2:
 4697 0000 00000000 		.space	88
 4697      00000000 
 4697      00000000 
 4697      00000000 
 4697      00000000 
 4698              		.global	hspi1
 4699              		.section	.bss.hspi1,"aw",%nobits
 4700              		.align	2
 4703              	hspi1:
 4704 0000 00000000 		.space	88
 4704      00000000 
 4704      00000000 
 4704      00000000 
 4704      00000000 
 4705              		.global	hrtc
 4706              		.section	.bss.hrtc,"aw",%nobits
 4707              		.align	2
 4710              	hrtc:
 4711 0000 00000000 		.space	32
 4711      00000000 
 4711      00000000 
 4711      00000000 
 4711      00000000 
 4712              		.global	hiwdg
 4713              		.section	.bss.hiwdg,"aw",%nobits
 4714              		.align	2
 4717              	hiwdg:
 4718 0000 00000000 		.space	12
 4718      00000000 
 4718      00000000 
 4719              		.global	hi2c1
 4720              		.section	.bss.hi2c1,"aw",%nobits
 4721              		.align	2
 4724              	hi2c1:
 4725 0000 00000000 		.space	84
 4725      00000000 
 4725      00000000 
 4725      00000000 
 4725      00000000 
 4726              		.text
 4727              	.Letext0:
 4728              		.file 3 "Core/Inc/stm32f4xx_hal_conf.h"
 4729              		.file 4 "Drivers/CMSIS/Device/ST/STM32F4xx/Include/stm32f413xx.h"
 4730              		.file 5 "C:/Users/kroko/AppData/Roaming/Code/User/globalStorage/bmd.stm32-for-vscode/@xpack-dev-to
 4731              		.file 6 "C:/Users/kroko/AppData/Roaming/Code/User/globalStorage/bmd.stm32-for-vscode/@xpack-dev-to
 4732              		.file 7 "C:/Users/kroko/AppData/Roaming/Code/User/globalStorage/bmd.stm32-for-vscode/@xpack-dev-to
 4733              		.file 8 "Drivers/STM32F4xx_HAL_Driver/Inc/stm32f4xx_hal_rcc_ex.h"
 4734              		.file 9 "Drivers/STM32F4xx_HAL_Driver/Inc/stm32f4xx_hal_rcc.h"
 4735              		.file 10 "Drivers/STM32F4xx_HAL_Driver/Inc/stm32f4xx_hal_gpio.h"
ARM GAS  C:\Users\kroko\AppData\Local\Temp\ccpAdhTr.s 			page 146


 4736              		.file 11 "Drivers/STM32F4xx_HAL_Driver/Inc/stm32f4xx_hal_dma.h"
 4737              		.file 12 "Drivers/STM32F4xx_HAL_Driver/Inc/stm32f4xx_hal_i2c.h"
 4738              		.file 13 "Drivers/STM32F4xx_HAL_Driver/Inc/stm32f4xx_hal_iwdg.h"
 4739              		.file 14 "Drivers/STM32F4xx_HAL_Driver/Inc/stm32f4xx_hal_rtc.h"
 4740              		.file 15 "Drivers/STM32F4xx_HAL_Driver/Inc/stm32f4xx_hal_spi.h"
 4741              		.file 16 "Drivers/STM32F4xx_HAL_Driver/Inc/stm32f4xx_hal_uart.h"
 4742              		.file 17 "Core/Inc/main.h"
 4743              		.file 18 "Middlewares/Third_Party/FatFs/src/integer.h"
 4744              		.file 19 "Middlewares/Third_Party/FatFs/src/ff.h"
 4745              		.file 20 "Core/Inc/info_disp.h"
 4746              		.file 21 "Core/Inc/cst816s.h"
 4747              		.file 22 "C:/Users/kroko/AppData/Roaming/Code/User/globalStorage/bmd.stm32-for-vscode/@xpack-dev-t
 4748              		.file 23 "C:/Users/kroko/AppData/Roaming/Code/User/globalStorage/bmd.stm32-for-vscode/@xpack-dev-t
 4749              		.file 24 "C:/Users/kroko/AppData/Roaming/Code/User/globalStorage/bmd.stm32-for-vscode/@xpack-dev-t
 4750              		.file 25 "Drivers/STM32F4xx_HAL_Driver/Inc/stm32f4xx_hal_rtc_ex.h"
 4751              		.file 26 "Drivers/STM32F4xx_HAL_Driver/Inc/stm32f4xx_hal_cortex.h"
 4752              		.file 27 "Drivers/STM32F4xx_HAL_Driver/Inc/stm32f4xx_hal.h"
 4753              		.file 28 "Core/Inc/dispcolor.h"
 4754              		.file 29 "FATFS/App/fatfs.h"
 4755              		.file 30 "<built-in>"
ARM GAS  C:\Users\kroko\AppData\Local\Temp\ccpAdhTr.s 			page 147


DEFINED SYMBOLS
                            *ABS*:00000000 main.c
C:\Users\kroko\AppData\Local\Temp\ccpAdhTr.s:21     .text.MX_GPIO_Init:00000000 $t
C:\Users\kroko\AppData\Local\Temp\ccpAdhTr.s:26     .text.MX_GPIO_Init:00000000 MX_GPIO_Init
C:\Users\kroko\AppData\Local\Temp\ccpAdhTr.s:273    .text.MX_GPIO_Init:00000134 $d
C:\Users\kroko\AppData\Local\Temp\ccpAdhTr.s:282    .text.MX_DMA_Init:00000000 $t
C:\Users\kroko\AppData\Local\Temp\ccpAdhTr.s:287    .text.MX_DMA_Init:00000000 MX_DMA_Init
C:\Users\kroko\AppData\Local\Temp\ccpAdhTr.s:451    .text.MX_DMA_Init:000000e4 $d
C:\Users\kroko\AppData\Local\Temp\ccpAdhTr.s:456    .text.Set_Alarm:00000000 $t
C:\Users\kroko\AppData\Local\Temp\ccpAdhTr.s:462    .text.Set_Alarm:00000000 Set_Alarm
C:\Users\kroko\AppData\Local\Temp\ccpAdhTr.s:476    .text.Set_RTC:00000000 $t
C:\Users\kroko\AppData\Local\Temp\ccpAdhTr.s:482    .text.Set_RTC:00000000 Set_RTC
C:\Users\kroko\AppData\Local\Temp\ccpAdhTr.s:496    .text.HAL_UART_RxCpltCallback:00000000 $t
C:\Users\kroko\AppData\Local\Temp\ccpAdhTr.s:502    .text.HAL_UART_RxCpltCallback:00000000 HAL_UART_RxCpltCallback
C:\Users\kroko\AppData\Local\Temp\ccpAdhTr.s:925    .text.HAL_UART_RxCpltCallback:00000208 $d
C:\Users\kroko\AppData\Local\Temp\ccpAdhTr.s:4661   .bss.huart6:00000000 huart6
C:\Users\kroko\AppData\Local\Temp\ccpAdhTr.s:4551   .bss.dev_num:00000000 dev_num
C:\Users\kroko\AppData\Local\Temp\ccpAdhTr.s:4480   .data.deviceList:00000000 deviceList
C:\Users\kroko\AppData\Local\Temp\ccpAdhTr.s:4532   .data.isDevPolledFirstTime:00000000 isDevPolledFirstTime
C:\Users\kroko\AppData\Local\Temp\ccpAdhTr.s:4451   .bss.SIMrxBuffer:00000000 SIMrxBuffer
C:\Users\kroko\AppData\Local\Temp\ccpAdhTr.s:4557   .bss.state:00000000 state
C:\Users\kroko\AppData\Local\Temp\ccpAdhTr.s:4413   .data.allDeviceIsUnIn:00000000 allDeviceIsUnIn
C:\Users\kroko\AppData\Local\Temp\ccpAdhTr.s:4545   .bss.act_dev_cnt:00000000 act_dev_cnt
C:\Users\kroko\AppData\Local\Temp\ccpAdhTr.s:4539   .data.act_dev_list:00000000 act_dev_list
C:\Users\kroko\AppData\Local\Temp\ccpAdhTr.s:4437   .bss.transmitMode:00000000 transmitMode
C:\Users\kroko\AppData\Local\Temp\ccpAdhTr.s:940    .text.HAL_GPIO_EXTI_Callback:00000000 $t
C:\Users\kroko\AppData\Local\Temp\ccpAdhTr.s:946    .text.HAL_GPIO_EXTI_Callback:00000000 HAL_GPIO_EXTI_Callback
C:\Users\kroko\AppData\Local\Temp\ccpAdhTr.s:977    .text.HAL_GPIO_EXTI_Callback:00000014 $d
C:\Users\kroko\AppData\Local\Temp\ccpAdhTr.s:4407   .bss.touchAvailable:00000000 touchAvailable
C:\Users\kroko\AppData\Local\Temp\ccpAdhTr.s:982    .text.findNextInDev:00000000 $t
C:\Users\kroko\AppData\Local\Temp\ccpAdhTr.s:988    .text.findNextInDev:00000000 findNextInDev
C:\Users\kroko\AppData\Local\Temp\ccpAdhTr.s:1082   .text.findNextInDev:00000064 $d
C:\Users\kroko\AppData\Local\Temp\ccpAdhTr.s:1090   .text.map:00000000 $t
C:\Users\kroko\AppData\Local\Temp\ccpAdhTr.s:1096   .text.map:00000000 map
C:\Users\kroko\AppData\Local\Temp\ccpAdhTr.s:1126   .rodata.SIM_sendCommand.str1.4:00000000 $d
C:\Users\kroko\AppData\Local\Temp\ccpAdhTr.s:1130   .text.SIM_sendCommand:00000000 $t
C:\Users\kroko\AppData\Local\Temp\ccpAdhTr.s:1136   .text.SIM_sendCommand:00000000 SIM_sendCommand
C:\Users\kroko\AppData\Local\Temp\ccpAdhTr.s:1186   .text.SIM_sendCommand:00000030 $d
C:\Users\kroko\AppData\Local\Temp\ccpAdhTr.s:4444   .bss.SIMtxBuffer:00000000 SIMtxBuffer
C:\Users\kroko\AppData\Local\Temp\ccpAdhTr.s:1193   .rodata.checkSIMStatus.str1.4:00000000 $d
C:\Users\kroko\AppData\Local\Temp\ccpAdhTr.s:1200   .text.checkSIMStatus:00000000 $t
C:\Users\kroko\AppData\Local\Temp\ccpAdhTr.s:1206   .text.checkSIMStatus:00000000 checkSIMStatus
C:\Users\kroko\AppData\Local\Temp\ccpAdhTr.s:1240   .text.checkSIMStatus:0000001c $d
C:\Users\kroko\AppData\Local\Temp\ccpAdhTr.s:1247   .rodata.checkInitStatus.str1.4:00000000 $d
C:\Users\kroko\AppData\Local\Temp\ccpAdhTr.s:1254   .text.checkInitStatus:00000000 $t
C:\Users\kroko\AppData\Local\Temp\ccpAdhTr.s:1260   .text.checkInitStatus:00000000 checkInitStatus
C:\Users\kroko\AppData\Local\Temp\ccpAdhTr.s:1290   .text.checkInitStatus:00000018 $d
C:\Users\kroko\AppData\Local\Temp\ccpAdhTr.s:1297   .rodata.sendSMS.str1.4:00000000 $d
C:\Users\kroko\AppData\Local\Temp\ccpAdhTr.s:1307   .text.sendSMS:00000000 $t
C:\Users\kroko\AppData\Local\Temp\ccpAdhTr.s:1313   .text.sendSMS:00000000 sendSMS
C:\Users\kroko\AppData\Local\Temp\ccpAdhTr.s:1390   .text.sendSMS:00000050 $d
C:\Users\kroko\AppData\Local\Temp\ccpAdhTr.s:1399   .rodata.resetModule.str1.4:00000000 $d
C:\Users\kroko\AppData\Local\Temp\ccpAdhTr.s:1403   .text.resetModule:00000000 $t
C:\Users\kroko\AppData\Local\Temp\ccpAdhTr.s:1409   .text.resetModule:00000000 resetModule
C:\Users\kroko\AppData\Local\Temp\ccpAdhTr.s:1432   .text.resetModule:00000010 $d
C:\Users\kroko\AppData\Local\Temp\ccpAdhTr.s:1437   .rodata.syncTime.str1.4:00000000 $d
C:\Users\kroko\AppData\Local\Temp\ccpAdhTr.s:1444   .text.syncTime:00000000 $t
ARM GAS  C:\Users\kroko\AppData\Local\Temp\ccpAdhTr.s 			page 148


C:\Users\kroko\AppData\Local\Temp\ccpAdhTr.s:1450   .text.syncTime:00000000 syncTime
C:\Users\kroko\AppData\Local\Temp\ccpAdhTr.s:1481   .text.syncTime:0000001c $d
C:\Users\kroko\AppData\Local\Temp\ccpAdhTr.s:1487   .rodata.enableGPRS.str1.4:00000000 $d
C:\Users\kroko\AppData\Local\Temp\ccpAdhTr.s:1497   .text.enableGPRS:00000000 $t
C:\Users\kroko\AppData\Local\Temp\ccpAdhTr.s:1503   .text.enableGPRS:00000000 enableGPRS
C:\Users\kroko\AppData\Local\Temp\ccpAdhTr.s:1557   .text.enableGPRS:00000038 $d
C:\Users\kroko\AppData\Local\Temp\ccpAdhTr.s:1566   .text.Error_Handler:00000000 $t
C:\Users\kroko\AppData\Local\Temp\ccpAdhTr.s:1572   .text.Error_Handler:00000000 Error_Handler
C:\Users\kroko\AppData\Local\Temp\ccpAdhTr.s:1606   .text.MX_SPI1_Init:00000000 $t
C:\Users\kroko\AppData\Local\Temp\ccpAdhTr.s:1611   .text.MX_SPI1_Init:00000000 MX_SPI1_Init
C:\Users\kroko\AppData\Local\Temp\ccpAdhTr.s:1682   .text.MX_SPI1_Init:0000003c $d
C:\Users\kroko\AppData\Local\Temp\ccpAdhTr.s:4703   .bss.hspi1:00000000 hspi1
C:\Users\kroko\AppData\Local\Temp\ccpAdhTr.s:1688   .text.MX_UART5_Init:00000000 $t
C:\Users\kroko\AppData\Local\Temp\ccpAdhTr.s:1693   .text.MX_UART5_Init:00000000 MX_UART5_Init
C:\Users\kroko\AppData\Local\Temp\ccpAdhTr.s:1750   .text.MX_UART5_Init:0000002c $d
C:\Users\kroko\AppData\Local\Temp\ccpAdhTr.s:4682   .bss.huart5:00000000 huart5
C:\Users\kroko\AppData\Local\Temp\ccpAdhTr.s:1756   .text.MX_USART6_UART_Init:00000000 $t
C:\Users\kroko\AppData\Local\Temp\ccpAdhTr.s:1761   .text.MX_USART6_UART_Init:00000000 MX_USART6_UART_Init
C:\Users\kroko\AppData\Local\Temp\ccpAdhTr.s:1818   .text.MX_USART6_UART_Init:0000002c $d
C:\Users\kroko\AppData\Local\Temp\ccpAdhTr.s:1824   .text.MX_SPI2_Init:00000000 $t
C:\Users\kroko\AppData\Local\Temp\ccpAdhTr.s:1829   .text.MX_SPI2_Init:00000000 MX_SPI2_Init
C:\Users\kroko\AppData\Local\Temp\ccpAdhTr.s:1900   .text.MX_SPI2_Init:0000003c $d
C:\Users\kroko\AppData\Local\Temp\ccpAdhTr.s:4696   .bss.hspi2:00000000 hspi2
C:\Users\kroko\AppData\Local\Temp\ccpAdhTr.s:1906   .text.MX_RTC_Init:00000000 $t
C:\Users\kroko\AppData\Local\Temp\ccpAdhTr.s:1911   .text.MX_RTC_Init:00000000 MX_RTC_Init
C:\Users\kroko\AppData\Local\Temp\ccpAdhTr.s:2108   .text.MX_RTC_Init:000000d4 $d
C:\Users\kroko\AppData\Local\Temp\ccpAdhTr.s:4710   .bss.hrtc:00000000 hrtc
C:\Users\kroko\AppData\Local\Temp\ccpAdhTr.s:2114   .text.MX_USART2_UART_Init:00000000 $t
C:\Users\kroko\AppData\Local\Temp\ccpAdhTr.s:2119   .text.MX_USART2_UART_Init:00000000 MX_USART2_UART_Init
C:\Users\kroko\AppData\Local\Temp\ccpAdhTr.s:2176   .text.MX_USART2_UART_Init:0000002c $d
C:\Users\kroko\AppData\Local\Temp\ccpAdhTr.s:4675   .bss.huart2:00000000 huart2
C:\Users\kroko\AppData\Local\Temp\ccpAdhTr.s:2182   .text.MX_IWDG_Init:00000000 $t
C:\Users\kroko\AppData\Local\Temp\ccpAdhTr.s:2187   .text.MX_IWDG_Init:00000000 MX_IWDG_Init
C:\Users\kroko\AppData\Local\Temp\ccpAdhTr.s:2228   .text.MX_IWDG_Init:00000020 $d
C:\Users\kroko\AppData\Local\Temp\ccpAdhTr.s:4717   .bss.hiwdg:00000000 hiwdg
C:\Users\kroko\AppData\Local\Temp\ccpAdhTr.s:2234   .text.MX_UART4_Init:00000000 $t
C:\Users\kroko\AppData\Local\Temp\ccpAdhTr.s:2239   .text.MX_UART4_Init:00000000 MX_UART4_Init
C:\Users\kroko\AppData\Local\Temp\ccpAdhTr.s:2296   .text.MX_UART4_Init:0000002c $d
C:\Users\kroko\AppData\Local\Temp\ccpAdhTr.s:4689   .bss.huart4:00000000 huart4
C:\Users\kroko\AppData\Local\Temp\ccpAdhTr.s:2302   .text.MX_USART3_UART_Init:00000000 $t
C:\Users\kroko\AppData\Local\Temp\ccpAdhTr.s:2307   .text.MX_USART3_UART_Init:00000000 MX_USART3_UART_Init
C:\Users\kroko\AppData\Local\Temp\ccpAdhTr.s:2364   .text.MX_USART3_UART_Init:0000002c $d
C:\Users\kroko\AppData\Local\Temp\ccpAdhTr.s:4668   .bss.huart3:00000000 huart3
C:\Users\kroko\AppData\Local\Temp\ccpAdhTr.s:2370   .text.MX_I2C1_Init:00000000 $t
C:\Users\kroko\AppData\Local\Temp\ccpAdhTr.s:2375   .text.MX_I2C1_Init:00000000 MX_I2C1_Init
C:\Users\kroko\AppData\Local\Temp\ccpAdhTr.s:2435   .text.MX_I2C1_Init:00000030 $d
C:\Users\kroko\AppData\Local\Temp\ccpAdhTr.s:4724   .bss.hi2c1:00000000 hi2c1
C:\Users\kroko\AppData\Local\Temp\ccpAdhTr.s:2442   .text.SystemClock_Config:00000000 $t
C:\Users\kroko\AppData\Local\Temp\ccpAdhTr.s:2448   .text.SystemClock_Config:00000000 SystemClock_Config
C:\Users\kroko\AppData\Local\Temp\ccpAdhTr.s:2605   .text.SystemClock_Config:000000a8 $d
C:\Users\kroko\AppData\Local\Temp\ccpAdhTr.s:2611   .rodata.getTime.str1.4:00000000 $d
C:\Users\kroko\AppData\Local\Temp\ccpAdhTr.s:2627   .text.getTime:00000000 $t
C:\Users\kroko\AppData\Local\Temp\ccpAdhTr.s:2633   .text.getTime:00000000 getTime
C:\Users\kroko\AppData\Local\Temp\ccpAdhTr.s:2866   .text.getTime:00000110 $d
C:\Users\kroko\AppData\Local\Temp\ccpAdhTr.s:2878   .rodata.main.str1.4:00000000 $d
C:\Users\kroko\AppData\Local\Temp\ccpAdhTr.s:2921   .text.main:00000000 $t
C:\Users\kroko\AppData\Local\Temp\ccpAdhTr.s:2927   .text.main:00000000 main
ARM GAS  C:\Users\kroko\AppData\Local\Temp\ccpAdhTr.s 			page 149


C:\Users\kroko\AppData\Local\Temp\ccpAdhTr.s:3569   .text.main:00000360 $d
C:\Users\kroko\AppData\Local\Temp\ccpAdhTr.s:4401   .bss.isRTCSetUp:00000000 isRTCSetUp
C:\Users\kroko\AppData\Local\Temp\ccpAdhTr.s:4431   .bss.isSDInitialised:00000000 isSDInitialised
C:\Users\kroko\AppData\Local\Temp\ccpAdhTr.s:4419   .bss.isSIMInserted:00000000 isSIMInserted
C:\Users\kroko\AppData\Local\Temp\ccpAdhTr.s:4395   .bss.isRTCTimeSync:00000000 isRTCTimeSync
C:\Users\kroko\AppData\Local\Temp\ccpAdhTr.s:4425   .bss.isSIMInitialised:00000000 isSIMInitialised
C:\Users\kroko\AppData\Local\Temp\ccpAdhTr.s:4520   .bss.screen_scroll_mode:00000000 screen_scroll_mode
C:\Users\kroko\AppData\Local\Temp\ccpAdhTr.s:3596   .text.main:000003bc $t
C:\Users\kroko\AppData\Local\Temp\ccpAdhTr.s:4080   .text.main:0000063c $d
C:\Users\kroko\AppData\Local\Temp\ccpAdhTr.s:4514   .bss.TP:00000000 TP
C:\Users\kroko\AppData\Local\Temp\ccpAdhTr.s:4389   .bss.longPressFlag:00000000 longPressFlag
C:\Users\kroko\AppData\Local\Temp\ccpAdhTr.s:4106   .text.main:00000690 $t
C:\Users\kroko\AppData\Local\Temp\ccpAdhTr.s:4343   .text.main:00000804 $d
C:\Users\kroko\AppData\Local\Temp\ccpAdhTr.s:4361   .data.bite_apn:00000000 bite_apn
C:\Users\kroko\AppData\Local\Temp\ccpAdhTr.s:4354   .rodata.str1.4:00000000 $d
C:\Users\kroko\AppData\Local\Temp\ccpAdhTr.s:4358   .data.bite_apn:00000000 $d
C:\Users\kroko\AppData\Local\Temp\ccpAdhTr.s:4372   .data.lmt_apn:00000000 lmt_apn
C:\Users\kroko\AppData\Local\Temp\ccpAdhTr.s:4369   .data.lmt_apn:00000000 $d
C:\Users\kroko\AppData\Local\Temp\ccpAdhTr.s:4383   .data.tele2_apn:00000000 tele2_apn
C:\Users\kroko\AppData\Local\Temp\ccpAdhTr.s:4380   .data.tele2_apn:00000000 $d
C:\Users\kroko\AppData\Local\Temp\ccpAdhTr.s:4390   .bss.longPressFlag:00000000 $d
C:\Users\kroko\AppData\Local\Temp\ccpAdhTr.s:4396   .bss.isRTCTimeSync:00000000 $d
C:\Users\kroko\AppData\Local\Temp\ccpAdhTr.s:4402   .bss.isRTCSetUp:00000000 $d
C:\Users\kroko\AppData\Local\Temp\ccpAdhTr.s:4408   .bss.touchAvailable:00000000 $d
C:\Users\kroko\AppData\Local\Temp\ccpAdhTr.s:4420   .bss.isSIMInserted:00000000 $d
C:\Users\kroko\AppData\Local\Temp\ccpAdhTr.s:4426   .bss.isSIMInitialised:00000000 $d
C:\Users\kroko\AppData\Local\Temp\ccpAdhTr.s:4432   .bss.isSDInitialised:00000000 $d
C:\Users\kroko\AppData\Local\Temp\ccpAdhTr.s:4438   .bss.transmitMode:00000000 $d
C:\Users\kroko\AppData\Local\Temp\ccpAdhTr.s:4441   .bss.SIMtxBuffer:00000000 $d
C:\Users\kroko\AppData\Local\Temp\ccpAdhTr.s:4448   .bss.SIMrxBuffer:00000000 $d
C:\Users\kroko\AppData\Local\Temp\ccpAdhTr.s:4458   .bss.sim_rx_buff:00000000 sim_rx_buff
C:\Users\kroko\AppData\Local\Temp\ccpAdhTr.s:4455   .bss.sim_rx_buff:00000000 $d
C:\Users\kroko\AppData\Local\Temp\ccpAdhTr.s:4465   .bss.rx_buff:00000000 rx_buff
C:\Users\kroko\AppData\Local\Temp\ccpAdhTr.s:4462   .bss.rx_buff:00000000 $d
C:\Users\kroko\AppData\Local\Temp\ccpAdhTr.s:4472   .data.sim:00000000 sim
C:\Users\kroko\AppData\Local\Temp\ccpAdhTr.s:4469   .data.sim:00000000 $d
C:\Users\kroko\AppData\Local\Temp\ccpAdhTr.s:4477   .data.deviceList:00000000 $d
C:\Users\kroko\AppData\Local\Temp\ccpAdhTr.s:4511   .bss.TP:00000000 $d
C:\Users\kroko\AppData\Local\Temp\ccpAdhTr.s:4521   .bss.screen_scroll_mode:00000000 $d
C:\Users\kroko\AppData\Local\Temp\ccpAdhTr.s:4526   .data.alarm_timeout:00000000 alarm_timeout
C:\Users\kroko\AppData\Local\Temp\ccpAdhTr.s:4536   .data.act_dev_list:00000000 $d
C:\Users\kroko\AppData\Local\Temp\ccpAdhTr.s:4546   .bss.act_dev_cnt:00000000 $d
C:\Users\kroko\AppData\Local\Temp\ccpAdhTr.s:4552   .bss.dev_num:00000000 $d
C:\Users\kroko\AppData\Local\Temp\ccpAdhTr.s:4558   .bss.state:00000000 $d
C:\Users\kroko\AppData\Local\Temp\ccpAdhTr.s:4563   .bss.device_type:00000000 device_type
C:\Users\kroko\AppData\Local\Temp\ccpAdhTr.s:4564   .bss.device_type:00000000 $d
C:\Users\kroko\AppData\Local\Temp\ccpAdhTr.s:4569   .bss.palette:00000000 palette
C:\Users\kroko\AppData\Local\Temp\ccpAdhTr.s:4570   .bss.palette:00000000 $d
C:\Users\kroko\AppData\Local\Temp\ccpAdhTr.s:4576   .data.tx_buff:00000000 tx_buff
C:\Users\kroko\AppData\Local\Temp\ccpAdhTr.s:4573   .data.tx_buff:00000000 $d
C:\Users\kroko\AppData\Local\Temp\ccpAdhTr.s:4583   .data.val:00000000 val
C:\Users\kroko\AppData\Local\Temp\ccpAdhTr.s:4580   .data.val:00000000 $d
C:\Users\kroko\AppData\Local\Temp\ccpAdhTr.s:4591   .bss.hdma_usart6_tx:00000000 hdma_usart6_tx
C:\Users\kroko\AppData\Local\Temp\ccpAdhTr.s:4588   .bss.hdma_usart6_tx:00000000 $d
C:\Users\kroko\AppData\Local\Temp\ccpAdhTr.s:4598   .bss.hdma_usart6_rx:00000000 hdma_usart6_rx
C:\Users\kroko\AppData\Local\Temp\ccpAdhTr.s:4595   .bss.hdma_usart6_rx:00000000 $d
C:\Users\kroko\AppData\Local\Temp\ccpAdhTr.s:4605   .bss.hdma_usart3_tx:00000000 hdma_usart3_tx
ARM GAS  C:\Users\kroko\AppData\Local\Temp\ccpAdhTr.s 			page 150


C:\Users\kroko\AppData\Local\Temp\ccpAdhTr.s:4602   .bss.hdma_usart3_tx:00000000 $d
C:\Users\kroko\AppData\Local\Temp\ccpAdhTr.s:4612   .bss.hdma_usart3_rx:00000000 hdma_usart3_rx
C:\Users\kroko\AppData\Local\Temp\ccpAdhTr.s:4609   .bss.hdma_usart3_rx:00000000 $d
C:\Users\kroko\AppData\Local\Temp\ccpAdhTr.s:4619   .bss.hdma_usart2_tx:00000000 hdma_usart2_tx
C:\Users\kroko\AppData\Local\Temp\ccpAdhTr.s:4616   .bss.hdma_usart2_tx:00000000 $d
C:\Users\kroko\AppData\Local\Temp\ccpAdhTr.s:4626   .bss.hdma_usart2_rx:00000000 hdma_usart2_rx
C:\Users\kroko\AppData\Local\Temp\ccpAdhTr.s:4623   .bss.hdma_usart2_rx:00000000 $d
C:\Users\kroko\AppData\Local\Temp\ccpAdhTr.s:4633   .bss.hdma_uart5_tx:00000000 hdma_uart5_tx
C:\Users\kroko\AppData\Local\Temp\ccpAdhTr.s:4630   .bss.hdma_uart5_tx:00000000 $d
C:\Users\kroko\AppData\Local\Temp\ccpAdhTr.s:4640   .bss.hdma_uart5_rx:00000000 hdma_uart5_rx
C:\Users\kroko\AppData\Local\Temp\ccpAdhTr.s:4637   .bss.hdma_uart5_rx:00000000 $d
C:\Users\kroko\AppData\Local\Temp\ccpAdhTr.s:4647   .bss.hdma_uart4_rx:00000000 hdma_uart4_rx
C:\Users\kroko\AppData\Local\Temp\ccpAdhTr.s:4644   .bss.hdma_uart4_rx:00000000 $d
C:\Users\kroko\AppData\Local\Temp\ccpAdhTr.s:4654   .bss.hdma_uart4_tx:00000000 hdma_uart4_tx
C:\Users\kroko\AppData\Local\Temp\ccpAdhTr.s:4651   .bss.hdma_uart4_tx:00000000 $d
C:\Users\kroko\AppData\Local\Temp\ccpAdhTr.s:4658   .bss.huart6:00000000 $d
C:\Users\kroko\AppData\Local\Temp\ccpAdhTr.s:4665   .bss.huart3:00000000 $d
C:\Users\kroko\AppData\Local\Temp\ccpAdhTr.s:4672   .bss.huart2:00000000 $d
C:\Users\kroko\AppData\Local\Temp\ccpAdhTr.s:4679   .bss.huart5:00000000 $d
C:\Users\kroko\AppData\Local\Temp\ccpAdhTr.s:4686   .bss.huart4:00000000 $d
C:\Users\kroko\AppData\Local\Temp\ccpAdhTr.s:4693   .bss.hspi2:00000000 $d
C:\Users\kroko\AppData\Local\Temp\ccpAdhTr.s:4700   .bss.hspi1:00000000 $d
C:\Users\kroko\AppData\Local\Temp\ccpAdhTr.s:4707   .bss.hrtc:00000000 $d
C:\Users\kroko\AppData\Local\Temp\ccpAdhTr.s:4714   .bss.hiwdg:00000000 $d
C:\Users\kroko\AppData\Local\Temp\ccpAdhTr.s:4721   .bss.hi2c1:00000000 $d

UNDEFINED SYMBOLS
HAL_GPIO_WritePin
HAL_GPIO_Init
HAL_NVIC_SetPriority
HAL_NVIC_EnableIRQ
__aeabi_ddiv
HAL_UART_Receive_DMA
memcpy
atof
memset
snprintf
strlen
HAL_UART_Transmit_DMA
HAL_Delay
strstr
HAL_NVIC_SystemReset
HAL_SPI_Init
HAL_UART_Init
HAL_RTC_Init
HAL_RTCEx_BKUPRead
HAL_RTC_SetTime
HAL_RTC_SetDate
HAL_RTC_SetAlarm
HAL_IWDG_Init
HAL_I2C_Init
HAL_RCC_OscConfig
HAL_RCC_ClockConfig
sscanf
HAL_RTCEx_BKUPWrite
__aeabi_d2iz
__aeabi_d2uiz
ARM GAS  C:\Users\kroko\AppData\Local\Temp\ccpAdhTr.s 			page 151


__aeabi_ui2d
HAL_Init
MX_FATFS_Init
dispcolor_Init
HAL_GetTick
HAL_RTC_GetTime
HAL_RTC_GetDate
f_mount
Show_RTC_Warning
Show_SD_Warning
CST816S_Init
Display_Init
Dispaly_Data
itoa
Draw_NavBar
Add_Message
sprintf
f_open
f_write
gcvt
f_close
HAL_IWDG_Refresh
Draw_Main_Screen
CST816S_ReadTouchData
isTouchInsideArc
getTouchAngle
