ARM GAS  C:\Users\kroko\AppData\Local\Temp\ccpAdhTr.s 			page 1


   1              		.cpu cortex-m4
   2              		.arch armv7e-m
   3              		.fpu fpv4-sp-d16
   4              		.eabi_attribute 27, 1
   5              		.eabi_attribute 28, 1
   6              		.eabi_attribute 20, 1
   7              		.eabi_attribute 21, 1
   8              		.eabi_attribute 23, 3
   9              		.eabi_attribute 24, 1
  10              		.eabi_attribute 25, 1
  11              		.eabi_attribute 26, 1
  12              		.eabi_attribute 30, 1
  13              		.eabi_attribute 34, 1
  14              		.eabi_attribute 18, 4
  15              		.file	"main.c"
  16              		.text
  17              	.Ltext0:
  18              		.cfi_sections	.debug_frame
  19              		.file 1 "Core/Src/main.c"
  20              		.section	.text.MX_GPIO_Init,"ax",%progbits
  21              		.align	1
  22              		.syntax unified
  23              		.thumb
  24              		.thumb_func
  26              	MX_GPIO_Init:
  27              	.LFB150:
   1:Core/Src/main.c **** /* USER CODE BEGIN Header */
   2:Core/Src/main.c **** /**
   3:Core/Src/main.c ****   ******************************************************************************
   4:Core/Src/main.c ****   * @file           : main.c
   5:Core/Src/main.c ****   * @brief          : Main program body
   6:Core/Src/main.c ****   ******************************************************************************
   7:Core/Src/main.c ****   * @attention
   8:Core/Src/main.c ****   *
   9:Core/Src/main.c ****   * Copyright (c) 2024 STMicroelectronics.
  10:Core/Src/main.c ****   * All rights reserved.
  11:Core/Src/main.c ****   *
  12:Core/Src/main.c ****   * This software is licensed under terms that can be found in the LICENSE file
  13:Core/Src/main.c ****   * in the root directory of this software component.
  14:Core/Src/main.c ****   * If no LICENSE file comes with this software, it is provided AS-IS.
  15:Core/Src/main.c ****   *
  16:Core/Src/main.c ****   ******************************************************************************
  17:Core/Src/main.c ****   */
  18:Core/Src/main.c **** /* USER CODE END Header */
  19:Core/Src/main.c **** /* Includes ------------------------------------------------------------------*/
  20:Core/Src/main.c **** #include "main.h"
  21:Core/Src/main.c **** #include "fatfs.h"
  22:Core/Src/main.c **** 
  23:Core/Src/main.c **** /* Private includes ----------------------------------------------------------*/
  24:Core/Src/main.c **** /* USER CODE BEGIN Includes */
  25:Core/Src/main.c **** #include <stdlib.h>
  26:Core/Src/main.c **** #include <dispcolor.h>
  27:Core/Src/main.c **** #include <gpio.h>
  28:Core/Src/main.c **** #include "info_disp.h"
  29:Core/Src/main.c **** #include "cst816s.h"
  30:Core/Src/main.c **** #include <string.h>
  31:Core/Src/main.c **** #include <stdio.h>
ARM GAS  C:\Users\kroko\AppData\Local\Temp\ccpAdhTr.s 			page 2


  32:Core/Src/main.c **** /* USER CODE END Includes */
  33:Core/Src/main.c **** 
  34:Core/Src/main.c **** /* Private typedef -----------------------------------------------------------*/
  35:Core/Src/main.c **** /* USER CODE BEGIN PTD */
  36:Core/Src/main.c **** 
  37:Core/Src/main.c **** /* USER CODE END PTD */
  38:Core/Src/main.c **** 
  39:Core/Src/main.c **** /* Private define ------------------------------------------------------------*/
  40:Core/Src/main.c **** /* USER CODE BEGIN PD */
  41:Core/Src/main.c **** #define STATE_INIT    0
  42:Core/Src/main.c **** #define STATE_DISPLAY 1
  43:Core/Src/main.c **** #define STATE_800INIT 2
  44:Core/Src/main.c **** 
  45:Core/Src/main.c **** #define SCROLL_MODE_AUTO  0
  46:Core/Src/main.c **** #define SCROLL_MODE_HALT  1
  47:Core/Src/main.c **** #define SCROLL_MODE_CLICK 2
  48:Core/Src/main.c **** 
  49:Core/Src/main.c **** #define TRANSMIT_MODE_GET 0
  50:Core/Src/main.c **** #define TRANSMIT_MODE_SET 1
  51:Core/Src/main.c **** 
  52:Core/Src/main.c **** 
  53:Core/Src/main.c **** #define RX_BUFFER_SIZE 512
  54:Core/Src/main.c **** #define TX_BUFFER_SIZE 128
  55:Core/Src/main.c **** 
  56:Core/Src/main.c **** #define RTC_BKP_CONSTANT  0x2345
  57:Core/Src/main.c **** /* USER CODE END PD */
  58:Core/Src/main.c **** 
  59:Core/Src/main.c **** /* Private macro -------------------------------------------------------------*/
  60:Core/Src/main.c **** /* USER CODE BEGIN PM */
  61:Core/Src/main.c **** 
  62:Core/Src/main.c **** /* USER CODE END PM */
  63:Core/Src/main.c **** 
  64:Core/Src/main.c **** /* Private variables ---------------------------------------------------------*/
  65:Core/Src/main.c **** I2C_HandleTypeDef hi2c1;
  66:Core/Src/main.c **** 
  67:Core/Src/main.c **** IWDG_HandleTypeDef hiwdg;
  68:Core/Src/main.c **** 
  69:Core/Src/main.c **** RTC_HandleTypeDef hrtc;
  70:Core/Src/main.c **** 
  71:Core/Src/main.c **** SPI_HandleTypeDef hspi1;
  72:Core/Src/main.c **** SPI_HandleTypeDef hspi2;
  73:Core/Src/main.c **** // DMA_HandleTypeDef hdma_spi1_tx;
  74:Core/Src/main.c **** 
  75:Core/Src/main.c **** UART_HandleTypeDef huart4;
  76:Core/Src/main.c **** UART_HandleTypeDef huart5;
  77:Core/Src/main.c **** UART_HandleTypeDef huart2;
  78:Core/Src/main.c **** UART_HandleTypeDef huart3;
  79:Core/Src/main.c **** UART_HandleTypeDef huart6;
  80:Core/Src/main.c **** DMA_HandleTypeDef hdma_uart4_tx;
  81:Core/Src/main.c **** DMA_HandleTypeDef hdma_uart4_rx;
  82:Core/Src/main.c **** DMA_HandleTypeDef hdma_uart5_rx;
  83:Core/Src/main.c **** DMA_HandleTypeDef hdma_uart5_tx;
  84:Core/Src/main.c **** DMA_HandleTypeDef hdma_usart2_rx;
  85:Core/Src/main.c **** DMA_HandleTypeDef hdma_usart2_tx;
  86:Core/Src/main.c **** DMA_HandleTypeDef hdma_usart3_rx;
  87:Core/Src/main.c **** DMA_HandleTypeDef hdma_usart3_tx;
  88:Core/Src/main.c **** DMA_HandleTypeDef hdma_usart6_rx;
ARM GAS  C:\Users\kroko\AppData\Local\Temp\ccpAdhTr.s 			page 3


  89:Core/Src/main.c **** DMA_HandleTypeDef hdma_usart6_tx;
  90:Core/Src/main.c **** 
  91:Core/Src/main.c **** /* USER CODE BEGIN PV */
  92:Core/Src/main.c **** #define DEV0_UART &huart4
  93:Core/Src/main.c **** #define DEV3_UART &huart5
  94:Core/Src/main.c **** 
  95:Core/Src/main.c **** #define DEV_STATE_IN    1
  96:Core/Src/main.c **** #define DEV_STATE_UNIN  0
  97:Core/Src/main.c **** 
  98:Core/Src/main.c **** 
  99:Core/Src/main.c **** #define SIM800_UART &huart6
 100:Core/Src/main.c **** /* USER CODE END PV */
 101:Core/Src/main.c **** 
 102:Core/Src/main.c **** /* Private function prototypes -----------------------------------------------*/
 103:Core/Src/main.c **** void SystemClock_Config(void);
 104:Core/Src/main.c **** static void MX_GPIO_Init(void);
 105:Core/Src/main.c **** static void MX_DMA_Init(void);
 106:Core/Src/main.c **** static void MX_SPI1_Init(void);
 107:Core/Src/main.c **** static void MX_UART5_Init(void);
 108:Core/Src/main.c **** static void MX_USART6_UART_Init(void);
 109:Core/Src/main.c **** static void MX_SPI2_Init(void);
 110:Core/Src/main.c **** static void MX_RTC_Init(void);
 111:Core/Src/main.c **** static void MX_USART2_UART_Init(void);
 112:Core/Src/main.c **** static void MX_IWDG_Init(void);
 113:Core/Src/main.c **** static void MX_UART4_Init(void);
 114:Core/Src/main.c **** static void MX_USART3_UART_Init(void);
 115:Core/Src/main.c **** static void MX_I2C1_Init(void);
 116:Core/Src/main.c **** /* USER CODE BEGIN PFP */
 117:Core/Src/main.c **** void Set_Alarm(uint8_t minutes);
 118:Core/Src/main.c **** void Set_RTC();
 119:Core/Src/main.c **** uint32_t map(uint32_t x, uint32_t in_min, uint32_t in_max, uint32_t out_min, uint32_t out_max);
 120:Core/Src/main.c **** void findNextInDev(bool dir);
 121:Core/Src/main.c **** bool checkSIMStatus();
 122:Core/Src/main.c **** bool sendSMS(char *message);
 123:Core/Src/main.c **** bool checkInitStatus();
 124:Core/Src/main.c **** bool enableGPRS();
 125:Core/Src/main.c **** void resetModule();
 126:Core/Src/main.c **** void syncTime();
 127:Core/Src/main.c **** void getTime();
 128:Core/Src/main.c **** /* USER CODE END PFP */
 129:Core/Src/main.c **** 
 130:Core/Src/main.c **** /* Private user code ---------------------------------------------------------*/
 131:Core/Src/main.c **** /* USER CODE BEGIN 0 */
 132:Core/Src/main.c **** double val = 10;
 133:Core/Src/main.c **** uint8_t tx_buff[]={84,66,67,68,69,70,71,72,73,74};
 134:Core/Src/main.c **** uint8_t palette = TEMP_PALETTE;
 135:Core/Src/main.c **** uint8_t device_type = TYPE_SET_TEL;
 136:Core/Src/main.c **** 
 137:Core/Src/main.c **** uint8_t state = STATE_INIT;
 138:Core/Src/main.c **** uint8_t dev_num = 0;
 139:Core/Src/main.c **** uint8_t act_dev_cnt = 0;
 140:Core/Src/main.c **** 
 141:Core/Src/main.c **** int8_t act_dev_list[]  = {-1, -1, -1, -1};
 142:Core/Src/main.c **** 
 143:Core/Src/main.c **** bool isDevPolledFirstTime = true;
 144:Core/Src/main.c **** 
 145:Core/Src/main.c **** uint8_t alarm_timeout = 1;
ARM GAS  C:\Users\kroko\AppData\Local\Temp\ccpAdhTr.s 			page 4


 146:Core/Src/main.c **** 
 147:Core/Src/main.c **** uint8_t screen_scroll_mode = SCROLL_MODE_AUTO;
 148:Core/Src/main.c **** 
 149:Core/Src/main.c **** //Device device_0 = {&huart4, DEV_STATE_UNIN, TYPE_SET_ONLY};
 150:Core/Src/main.c **** // Device device_2 = {&huart5, DEV_STATE_UNIN, TYPE_SET_ONLY};
 151:Core/Src/main.c **** //Device device_3 = {&huart5, DEV_STATE_UNIN, TYPE_SET_ONLY};
 152:Core/Src/main.c **** // Device device_4 = {&huart5, DEV_STATE_UNIN, TYPE_SET_ONLY};
 153:Core/Src/main.c **** 
 154:Core/Src/main.c **** CST816S_TouchData TP;
 155:Core/Src/main.c **** 
 156:Core/Src/main.c **** Device deviceList[] = {{&huart4, DEV_STATE_UNIN, TYPE_SET_ONLY, DEV0_RST_GPIO_Port, DEV0_RST_Pin}, 
 157:Core/Src/main.c ****                        {&huart2, DEV_STATE_UNIN, TYPE_SET_ONLY, DEV1_RST_GPIO_Port, DEV1_RST_Pin}, 
 158:Core/Src/main.c ****                        {&huart3, DEV_STATE_UNIN, TYPE_SET_ONLY, DEV2_RST_GPIO_Port, DEV2_RST_Pin}, 
 159:Core/Src/main.c ****                        {&huart5, DEV_STATE_UNIN, TYPE_SET_ONLY, DEV3_RST_GPIO_Port, DEV3_RST_Pin}};
 160:Core/Src/main.c **** //Device deviceList[] = {device_0, dev};
 161:Core/Src/main.c **** 
 162:Core/Src/main.c **** 
 163:Core/Src/main.c **** SIM sim = {SIM800_UART};
 164:Core/Src/main.c **** 
 165:Core/Src/main.c **** uint8_t rx_buff[10];
 166:Core/Src/main.c **** 
 167:Core/Src/main.c **** uint8_t sim_rx_buff[30];
 168:Core/Src/main.c **** 
 169:Core/Src/main.c **** uint8_t SIMrxBuffer[RX_BUFFER_SIZE];
 170:Core/Src/main.c **** uint8_t SIMtxBuffer[TX_BUFFER_SIZE];
 171:Core/Src/main.c **** 
 172:Core/Src/main.c **** #define DEV_COUNT 4
 173:Core/Src/main.c **** 
 174:Core/Src/main.c **** bool transmitMode = TRANSMIT_MODE_GET;
 175:Core/Src/main.c **** 
 176:Core/Src/main.c **** bool isSDInitialised = false;
 177:Core/Src/main.c **** 
 178:Core/Src/main.c **** bool isSIMInitialised = false;
 179:Core/Src/main.c **** bool isSIMInserted = false;
 180:Core/Src/main.c **** 
 181:Core/Src/main.c **** bool allDeviceIsUnIn = true;
 182:Core/Src/main.c **** 
 183:Core/Src/main.c **** bool touchAvailable = false;
 184:Core/Src/main.c **** 
 185:Core/Src/main.c **** bool isRTCSetUp = false;
 186:Core/Src/main.c **** 
 187:Core/Src/main.c **** bool isRTCTimeSync = false;
 188:Core/Src/main.c **** 
 189:Core/Src/main.c **** bool longPressFlag = false;
 190:Core/Src/main.c **** 
 191:Core/Src/main.c **** const char *tele2_apn = "internet.tele2.lv";
 192:Core/Src/main.c **** const char *lmt_apn = "internet.lmt.lv";
 193:Core/Src/main.c **** const char *bite_apn = "internet";
 194:Core/Src/main.c **** /* USER CODE END 0 */
 195:Core/Src/main.c **** 
 196:Core/Src/main.c **** /**
 197:Core/Src/main.c ****   * @brief  The application entry point.
 198:Core/Src/main.c ****   * @retval int
 199:Core/Src/main.c ****   */
 200:Core/Src/main.c **** int main(void)
 201:Core/Src/main.c **** {
 202:Core/Src/main.c **** 
ARM GAS  C:\Users\kroko\AppData\Local\Temp\ccpAdhTr.s 			page 5


 203:Core/Src/main.c ****   /* USER CODE BEGIN 1 */
 204:Core/Src/main.c **** 
 205:Core/Src/main.c ****   /* USER CODE END 1 */
 206:Core/Src/main.c **** 
 207:Core/Src/main.c ****   /* MCU Configuration--------------------------------------------------------*/
 208:Core/Src/main.c **** 
 209:Core/Src/main.c ****   /* Reset of all peripherals, Initializes the Flash interface and the Systick. */
 210:Core/Src/main.c ****   HAL_Init();
 211:Core/Src/main.c **** 
 212:Core/Src/main.c ****   /* USER CODE BEGIN Init */
 213:Core/Src/main.c **** 
 214:Core/Src/main.c ****   /* USER CODE END Init */
 215:Core/Src/main.c **** 
 216:Core/Src/main.c ****   /* Configure the system clock */
 217:Core/Src/main.c ****   SystemClock_Config();
 218:Core/Src/main.c **** 
 219:Core/Src/main.c ****   /* USER CODE BEGIN SysInit */
 220:Core/Src/main.c **** 
 221:Core/Src/main.c ****   /* USER CODE END SysInit */
 222:Core/Src/main.c **** 
 223:Core/Src/main.c ****   /* Initialize all configured peripherals */
 224:Core/Src/main.c ****   MX_GPIO_Init();
 225:Core/Src/main.c ****   MX_DMA_Init();
 226:Core/Src/main.c ****   MX_SPI1_Init();
 227:Core/Src/main.c ****   MX_UART5_Init();
 228:Core/Src/main.c ****   MX_USART6_UART_Init();
 229:Core/Src/main.c ****   MX_SPI2_Init();
 230:Core/Src/main.c ****   MX_FATFS_Init();
 231:Core/Src/main.c ****   MX_RTC_Init();
 232:Core/Src/main.c ****   MX_USART2_UART_Init();
 233:Core/Src/main.c ****   MX_IWDG_Init();
 234:Core/Src/main.c ****   MX_UART4_Init();
 235:Core/Src/main.c ****   MX_USART3_UART_Init();
 236:Core/Src/main.c ****   MX_I2C1_Init();
 237:Core/Src/main.c ****   /* USER CODE BEGIN 2 */
 238:Core/Src/main.c **** 
 239:Core/Src/main.c **** 	dispcolor_Init(240, 240);
 240:Core/Src/main.c **** 
 241:Core/Src/main.c **** 	uint32_t dev_init_timeout = HAL_GetTick();
 242:Core/Src/main.c ****   uint32_t screen_disp_time = HAL_GetTick();
 243:Core/Src/main.c ****   uint32_t touch_tmr = HAL_GetTick();
 244:Core/Src/main.c ****   uint32_t sim_tmr = HAL_GetTick();
 245:Core/Src/main.c **** 
 246:Core/Src/main.c ****   // uint32_t simtmr = HAL_GetTick();
 247:Core/Src/main.c ****   // uint32_t txtmr = HAL_GetTick();
 248:Core/Src/main.c ****   
 249:Core/Src/main.c ****   uint8_t old_dev_num = 0;
 250:Core/Src/main.c **** 
 251:Core/Src/main.c ****   /* RTC */
 252:Core/Src/main.c ****   // GET RTC DATETIME
 253:Core/Src/main.c ****   RTC_DateTypeDef gDate;
 254:Core/Src/main.c ****   RTC_TimeTypeDef gTime;
 255:Core/Src/main.c **** 
 256:Core/Src/main.c ****   /* Get the RTC current Time */
 257:Core/Src/main.c ****   HAL_RTC_GetTime(&hrtc, &gTime, RTC_FORMAT_BIN);
 258:Core/Src/main.c ****   /* Get the RTC current Date */
 259:Core/Src/main.c ****   HAL_RTC_GetDate(&hrtc, &gDate, RTC_FORMAT_BIN);
ARM GAS  C:\Users\kroko\AppData\Local\Temp\ccpAdhTr.s 			page 6


 260:Core/Src/main.c ****   
 261:Core/Src/main.c ****   if(HAL_RTCEx_BKUPRead(&hrtc, RTC_BKP_DR1) != RTC_BKP_CONSTANT){
 262:Core/Src/main.c ****     Show_RTC_Warning();
 263:Core/Src/main.c ****     // RTC SETUP MENU
 264:Core/Src/main.c ****     // Set_RTC();
 265:Core/Src/main.c ****     // NVIC_SystemReset();
 266:Core/Src/main.c ****   }else{
 267:Core/Src/main.c ****     isRTCSetUp = true;
 268:Core/Src/main.c ****   }
 269:Core/Src/main.c **** 
 270:Core/Src/main.c ****   /* SD CARD */
 271:Core/Src/main.c ****   FATFS FatFs;
 272:Core/Src/main.c ****   FRESULT FR_Status;
 273:Core/Src/main.c ****   FIL Fil;
 274:Core/Src/main.c ****   UINT bytesWrote;
 275:Core/Src/main.c **** 
 276:Core/Src/main.c ****   FR_Status = f_mount(&FatFs, "", 1);
 277:Core/Src/main.c ****   if (FR_Status == FR_OK){
 278:Core/Src/main.c ****     isSDInitialised = true;
 279:Core/Src/main.c ****   }else{
 280:Core/Src/main.c ****     Show_SD_Warning();
 281:Core/Src/main.c ****   }
 282:Core/Src/main.c **** 
 283:Core/Src/main.c ****   /* SIM CARD */
 284:Core/Src/main.c ****   HAL_UART_Receive_DMA(&huart6, SIMrxBuffer, RX_BUFFER_SIZE);
 285:Core/Src/main.c **** 
 286:Core/Src/main.c **** 
 287:Core/Src/main.c ****   /* RESET */
 288:Core/Src/main.c ****   for (int i = 0; i < DEV_COUNT; i++){
 289:Core/Src/main.c ****     GPIO_TypeDef *curDevRSTport = deviceList[i].RSTport;
 290:Core/Src/main.c ****     uint16_t curDevRSTpin = deviceList[i].RSTpin;
 291:Core/Src/main.c ****     HAL_GPIO_WritePin(curDevRSTport, curDevRSTpin, GPIO_PIN_RESET);
 292:Core/Src/main.c **** 	  HAL_Delay(100);
 293:Core/Src/main.c ****     HAL_GPIO_WritePin(curDevRSTport, curDevRSTpin, GPIO_PIN_SET);
 294:Core/Src/main.c ****     deviceList[i].tx_buff[0] = 84;
 295:Core/Src/main.c ****   }
 296:Core/Src/main.c ****   dev_init_timeout = HAL_GetTick();
 297:Core/Src/main.c **** 
 298:Core/Src/main.c ****   /* TOUCH */
 299:Core/Src/main.c ****   if (!CST816S_Init(&hi2c1)){
 300:Core/Src/main.c ****     HAL_NVIC_SystemReset();
 301:Core/Src/main.c ****   }
 302:Core/Src/main.c ****   /* USER CODE END 2 */
 303:Core/Src/main.c **** 
 304:Core/Src/main.c ****   /* Infinite loop */
 305:Core/Src/main.c ****   /* USER CODE BEGIN WHILE */
 306:Core/Src/main.c ****   while (1){ 
 307:Core/Src/main.c ****     if(state == STATE_INIT){
 308:Core/Src/main.c ****       Display_Init(dev_num, DEV_COUNT);
 309:Core/Src/main.c ****       HAL_UART_Transmit_DMA(deviceList[dev_num].uart, deviceList[dev_num].tx_buff, 10);
 310:Core/Src/main.c ****       HAL_UART_Receive_DMA(deviceList[dev_num].uart, deviceList[dev_num].rx_buff, 10);
 311:Core/Src/main.c ****     }
 312:Core/Src/main.c ****     else{
 313:Core/Src/main.c ****       if (!allDeviceIsUnIn){
 314:Core/Src/main.c ****         Dispaly_Data(&deviceList[dev_num]);
 315:Core/Src/main.c ****         if(transmitMode == TRANSMIT_MODE_GET){
 316:Core/Src/main.c ****           if(deviceList[dev_num].deviceMode != TYPE_SET_ONLY){
ARM GAS  C:\Users\kroko\AppData\Local\Temp\ccpAdhTr.s 			page 7


 317:Core/Src/main.c ****             HAL_UART_Transmit_DMA(deviceList[dev_num].uart, deviceList[dev_num].tx_buff, 10);
 318:Core/Src/main.c ****             HAL_UART_Receive_DMA(deviceList[dev_num].uart, deviceList[dev_num].rx_buff, 10);
 319:Core/Src/main.c ****           }
 320:Core/Src/main.c ****         }else{
 321:Core/Src/main.c ****           char setValueTx[10];
 322:Core/Src/main.c ****           //sprintf(setValueTx, "%d", deviceList[dev_num].setValue);
 323:Core/Src/main.c ****           itoa(deviceList[dev_num].setValue, setValueTx, 10);
 324:Core/Src/main.c ****           HAL_UART_Transmit_DMA(deviceList[dev_num].uart, (uint8_t*)&setValueTx, 10);
 325:Core/Src/main.c ****           transmitMode = TRANSMIT_MODE_GET;
 326:Core/Src/main.c ****         }
 327:Core/Src/main.c ****         for(uint8_t act_dev = 0; act_dev < 4; act_dev++){
 328:Core/Src/main.c ****           if (act_dev_list[act_dev] == dev_num){
 329:Core/Src/main.c ****             Draw_NavBar(act_dev_cnt, act_dev);
 330:Core/Src/main.c ****             break;
 331:Core/Src/main.c ****           }
 332:Core/Src/main.c ****         }
 333:Core/Src/main.c ****         
 334:Core/Src/main.c ****       }else{
 335:Core/Src/main.c ****         Draw_Main_Screen();
 336:Core/Src/main.c ****         Draw_NavBar(0, -1);
 337:Core/Src/main.c ****         //Draw_Easter();
 338:Core/Src/main.c ****       }
 339:Core/Src/main.c ****     }
 340:Core/Src/main.c **** 
 341:Core/Src/main.c ****     
 342:Core/Src/main.c **** 
 343:Core/Src/main.c ****     // DEVICE INITIALIZATION START
 344:Core/Src/main.c ****     if (HAL_GetTick()-dev_init_timeout>1000 && state == STATE_INIT){
 345:Core/Src/main.c ****       if(dev_num == old_dev_num){
 346:Core/Src/main.c ****         dev_num++;
 347:Core/Src/main.c ****       }else{
 348:Core/Src/main.c ****         old_dev_num = dev_num;
 349:Core/Src/main.c ****       }
 350:Core/Src/main.c ****       dev_init_timeout = HAL_GetTick();
 351:Core/Src/main.c ****       screen_disp_time = HAL_GetTick();
 352:Core/Src/main.c ****     }
 353:Core/Src/main.c **** 
 354:Core/Src/main.c **** 
 355:Core/Src/main.c ****     if(HAL_GetTick()-sim_tmr > 5000){
 356:Core/Src/main.c ****       if(!isSIMInserted){
 357:Core/Src/main.c ****         if(checkSIMStatus()){
 358:Core/Src/main.c ****           Add_Message("SIM detected");
 359:Core/Src/main.c ****           isSIMInserted = true;
 360:Core/Src/main.c ****         }
 361:Core/Src/main.c ****       }
 362:Core/Src/main.c ****       if(isSIMInserted && !isSIMInitialised){
 363:Core/Src/main.c ****         if(checkInitStatus()){
 364:Core/Src/main.c ****           Add_Message("GSM connected");
 365:Core/Src/main.c ****           if(!isRTCSetUp && !isRTCTimeSync){
 366:Core/Src/main.c ****             syncTime();
 367:Core/Src/main.c ****             resetModule();
 368:Core/Src/main.c ****             isRTCTimeSync = true;
 369:Core/Src/main.c ****           }else{
 370:Core/Src/main.c ****             isSIMInitialised = true;
 371:Core/Src/main.c ****           }
 372:Core/Src/main.c ****         }
 373:Core/Src/main.c ****       }
ARM GAS  C:\Users\kroko\AppData\Local\Temp\ccpAdhTr.s 			page 8


 374:Core/Src/main.c ****       if(isSIMInitialised && !isRTCSetUp){
 375:Core/Src/main.c ****         getTime();
 376:Core/Src/main.c ****         if(HAL_RTCEx_BKUPRead(&hrtc, RTC_BKP_DR1) == RTC_BKP_CONSTANT){
 377:Core/Src/main.c ****           Add_Message("RTC is set up");
 378:Core/Src/main.c ****           isRTCSetUp = true;
 379:Core/Src/main.c ****         } 
 380:Core/Src/main.c ****       }
 381:Core/Src/main.c ****       sim_tmr = HAL_GetTick();
 382:Core/Src/main.c ****     }
 383:Core/Src/main.c **** 
 384:Core/Src/main.c ****     // TEST CODE START
 385:Core/Src/main.c ****     // if (HAL_GetTick() - sim_tmr > 10000 && isSIMInitialised && isSIMInserted){
 386:Core/Src/main.c ****     //   char msg[30];
 387:Core/Src/main.c ****     //   char b[4];
 388:Core/Src/main.c ****     //   gcvt(deviceList[dev_num].currentValue, 3, b);
 389:Core/Src/main.c ****     //   sprintf(msg,"TEMP: %s*C", b);
 390:Core/Src/main.c ****     //   if(sendSMS(msg)){
 391:Core/Src/main.c ****     //     // Show_Message("SMS OK", 500);
 392:Core/Src/main.c ****     //   }
 393:Core/Src/main.c ****     //   sim_tmr = HAL_GetTick();
 394:Core/Src/main.c ****     // }
 395:Core/Src/main.c ****     // TEST CODE END
 396:Core/Src/main.c **** 
 397:Core/Src/main.c ****     if(dev_num == DEV_COUNT && state == STATE_INIT){
 398:Core/Src/main.c ****       // state = STATE_800INIT;
 399:Core/Src/main.c ****       state = STATE_DISPLAY;
 400:Core/Src/main.c ****       //simtmr = HAL_GetTick();
 401:Core/Src/main.c ****       findNextInDev(true);
 402:Core/Src/main.c ****       screen_scroll_mode = SCROLL_MODE_AUTO;
 403:Core/Src/main.c ****       if(isSDInitialised){
 404:Core/Src/main.c ****         // CREATE FILE "init_time_date.txt"
 405:Core/Src/main.c ****        // Set_Alarm(alarm_timeout);
 406:Core/Src/main.c ****         char filename_buff[35];
 407:Core/Src/main.c ****         char reset_cause_buf[20];
 408:Core/Src/main.c ****         uint8_t buf_len = 0;
 409:Core/Src/main.c ****         // CREATE FILE
 410:Core/Src/main.c ****         sprintf(filename_buff, "init_%02d-%02d-%02d_%02d-%02d-%2d.txt", gTime.Hours, gTime.Minutes,
 411:Core/Src/main.c ****         FR_Status = f_open(&Fil, filename_buff, FA_WRITE | FA_OPEN_ALWAYS | FA_CREATE_ALWAYS);
 412:Core/Src/main.c ****         // GET RESET REASON
 413:Core/Src/main.c ****         uint32_t reset_flags = RCC->CSR;
 414:Core/Src/main.c ****         if (reset_flags & RCC_CSR_IWDGRSTF) {
 415:Core/Src/main.c ****           buf_len = sprintf(reset_cause_buf, "Reset by IWDG\n");
 416:Core/Src/main.c ****         }else if (reset_flags & RCC_CSR_PINRSTF){
 417:Core/Src/main.c ****           buf_len = sprintf(reset_cause_buf, "Normal startup\n");
 418:Core/Src/main.c ****         }
 419:Core/Src/main.c ****         // SAVE
 420:Core/Src/main.c ****         FR_Status = f_write(&Fil, reset_cause_buf, buf_len, &bytesWrote);
 421:Core/Src/main.c ****         // GET DEVICE DATA
 422:Core/Src/main.c ****         for (uint8_t i = 0; i < DEV_COUNT; i++){
 423:Core/Src/main.c ****           char init_file_buf[75];
 424:Core/Src/main.c ****           // DEVISE INITIALISED
 425:Core/Src/main.c ****           if(deviceList[i].initState == DEV_STATE_IN){
 426:Core/Src/main.c ****             char dev_type_buf[15];
 427:Core/Src/main.c ****             // GET DEVICE TYPE
 428:Core/Src/main.c ****             switch (deviceList[i].deviceMode)
 429:Core/Src/main.c ****             {
 430:Core/Src/main.c ****             case TYPE_SET_ONLY:
ARM GAS  C:\Users\kroko\AppData\Local\Temp\ccpAdhTr.s 			page 9


 431:Core/Src/main.c ****               sprintf(dev_type_buf, "TYPE_SET_ONLY");
 432:Core/Src/main.c ****               break;
 433:Core/Src/main.c ****             case TYPE_SET_TEL:
 434:Core/Src/main.c ****               sprintf(dev_type_buf, "TYPE_SET_TEL");
 435:Core/Src/main.c ****               break;
 436:Core/Src/main.c ****             case TYPE_TEL_ONLY:
 437:Core/Src/main.c ****               sprintf(dev_type_buf, "TYPE_TEL_ONLY");
 438:Core/Src/main.c ****               break;
 439:Core/Src/main.c ****             }
 440:Core/Src/main.c ****             // GET DEVICE VARIABLES
 441:Core/Src/main.c ****             uint8_t max[5];
 442:Core/Src/main.c ****             uint8_t min[5];
 443:Core/Src/main.c ****             gcvt(deviceList[i].minValue, 5, min);
 444:Core/Src/main.c ****             gcvt(deviceList[i].maxValue, 5, max);
 445:Core/Src/main.c ****             // SAVE
 446:Core/Src/main.c ****             buf_len = sprintf(init_file_buf, "DEV: %d\nMin/Max: %s/%s\nDev type: %s\n\n", i, min, m
 447:Core/Src/main.c ****           }else{ // DEVICE UNINITIALISED
 448:Core/Src/main.c ****             buf_len = sprintf(init_file_buf, "DEV: empty\n\n");
 449:Core/Src/main.c ****           }
 450:Core/Src/main.c ****           FR_Status = f_write(&Fil, init_file_buf, buf_len, &bytesWrote);
 451:Core/Src/main.c ****         }
 452:Core/Src/main.c ****         f_close(&Fil);
 453:Core/Src/main.c ****         // SAVE CONFIG
 454:Core/Src/main.c ****       }
 455:Core/Src/main.c ****     }
 456:Core/Src/main.c ****     // DEVICE INITIALIZATION END
 457:Core/Src/main.c **** 
 458:Core/Src/main.c ****     // AUTO SCREEN SCROLL START
 459:Core/Src/main.c ****     if (HAL_GetTick()-screen_disp_time>5000 && screen_scroll_mode == SCROLL_MODE_AUTO && !allDevice
 460:Core/Src/main.c ****       if(state != STATE_INIT){
 461:Core/Src/main.c ****         findNextInDev(true);
 462:Core/Src/main.c ****       }
 463:Core/Src/main.c ****       screen_disp_time = HAL_GetTick();
 464:Core/Src/main.c ****     }
 465:Core/Src/main.c ****     // AUTO SCREEN SCROLL END
 466:Core/Src/main.c **** 
 467:Core/Src/main.c ****     // TP READING START
 468:Core/Src/main.c ****     if(HAL_GetTick() - touch_tmr > 30 && touchAvailable){
 469:Core/Src/main.c ****       CST816S_ReadTouchData(&hi2c1, &TP);
 470:Core/Src/main.c ****       if (TP.finger_num != 0){
 471:Core/Src/main.c ****         // SOME ACTIONS
 472:Core/Src/main.c ****         
 473:Core/Src/main.c ****         // TP COORDS TO DISP COORDS
 474:Core/Src/main.c ****         uint8_t x = map(TP.x_coord, 0, 65535, 0, 240);
 475:Core/Src/main.c ****         uint8_t y = map(TP.y_coord, 0, 65535, 0, 240);
 476:Core/Src/main.c ****         
 477:Core/Src/main.c ****         // TEST
 478:Core/Src/main.c ****         if (x>78 && x < 162 && y > 78 && y<162 && TP.gesture_id == 0x00){
 479:Core/Src/main.c ****           deviceList[dev_num].isDevOn = !deviceList[dev_num].isDevOn;
 480:Core/Src/main.c ****         }
 481:Core/Src/main.c ****         if(TP.gesture_id == 0x00 && deviceList[dev_num].deviceDisplayMode ==MODE_EDIT){
 482:Core/Src/main.c ****           if (isTouchInsideArc(x, y, 120, 120, 55, 120, 136, 44)) {
 483:Core/Src/main.c ****               char buf[13];
 484:Core/Src/main.c ****               float tp_angle = getTouchAngle(x, y); // 46 314
 485:Core/Src/main.c ****               deviceList[dev_num].setValue = map(tp_angle, 46, 314, deviceList[dev_num].minValue, d
 486:Core/Src/main.c ****               sprintf(buf, "%d", map(tp_angle, 46, 314, 0, 100));
 487:Core/Src/main.c ****           }
ARM GAS  C:\Users\kroko\AppData\Local\Temp\ccpAdhTr.s 			page 10


 488:Core/Src/main.c ****         }
 489:Core/Src/main.c ****         // TEST
 490:Core/Src/main.c ****         if(TP.gesture_id == 0x0C && !longPressFlag && deviceList[dev_num].deviceMode != TYPE_TEL_ON
 491:Core/Src/main.c ****           longPressFlag = true;
 492:Core/Src/main.c ****           // EDIT VALUE START
 493:Core/Src/main.c **** 
 494:Core/Src/main.c ****           screen_disp_time = HAL_GetTick();
 495:Core/Src/main.c ****           if(deviceList[dev_num].deviceDisplayMode == MODE_NORMAL){
 496:Core/Src/main.c ****             if (deviceList[dev_num].deviceMode != TYPE_SET_ONLY){
 497:Core/Src/main.c ****               deviceList[dev_num].setValue = deviceList[dev_num].currentValue;
 498:Core/Src/main.c ****             }
 499:Core/Src/main.c ****             deviceList[dev_num].deviceDisplayMode = MODE_EDIT;
 500:Core/Src/main.c ****           }else{
 501:Core/Src/main.c ****             transmitMode = TRANSMIT_MODE_SET;
 502:Core/Src/main.c ****             deviceList[dev_num].deviceDisplayMode = MODE_NORMAL;
 503:Core/Src/main.c ****           }
 504:Core/Src/main.c **** 
 505:Core/Src/main.c ****           if(screen_scroll_mode == SCROLL_MODE_AUTO){
 506:Core/Src/main.c ****             screen_scroll_mode = SCROLL_MODE_HALT;
 507:Core/Src/main.c ****           }else{
 508:Core/Src/main.c ****             screen_scroll_mode = SCROLL_MODE_AUTO;
 509:Core/Src/main.c ****           }
 510:Core/Src/main.c ****           // EDIT VALUE END
 511:Core/Src/main.c ****         }
 512:Core/Src/main.c ****         if(TP.gesture_id != 0x0C){
 513:Core/Src/main.c ****           longPressFlag = false;
 514:Core/Src/main.c ****         }
 515:Core/Src/main.c **** 
 516:Core/Src/main.c ****         // SCROLL START
 517:Core/Src/main.c ****         if(TP.gesture_id == 0x03 && deviceList[dev_num].deviceDisplayMode != MODE_EDIT){ // LEFT
 518:Core/Src/main.c ****           findNextInDev(true);
 519:Core/Src/main.c ****           // Show_Message("LEFT", 500);
 520:Core/Src/main.c ****           screen_disp_time = HAL_GetTick();
 521:Core/Src/main.c ****         }
 522:Core/Src/main.c ****         if(TP.gesture_id == 0x04 && deviceList[dev_num].deviceDisplayMode != MODE_EDIT){ // RIGHT
 523:Core/Src/main.c ****           findNextInDev(false);
 524:Core/Src/main.c ****           // Show_Message("RIGHT", 500);
 525:Core/Src/main.c ****           screen_disp_time = HAL_GetTick();
 526:Core/Src/main.c ****         }
 527:Core/Src/main.c ****         // SCROLL END
 528:Core/Src/main.c ****       }
 529:Core/Src/main.c ****       touchAvailable = false;
 530:Core/Src/main.c ****       touch_tmr = HAL_GetTick();
 531:Core/Src/main.c ****     }
 532:Core/Src/main.c ****     // TP READING END
 533:Core/Src/main.c **** 
 534:Core/Src/main.c ****     // IWDG RESET START
 535:Core/Src/main.c ****     if (HAL_IWDG_Refresh(&hiwdg) != HAL_OK){
 536:Core/Src/main.c ****       Error_Handler();
 537:Core/Src/main.c ****     }
 538:Core/Src/main.c ****     // IWDG RESET END
 539:Core/Src/main.c ****     /* USER CODE END WHILE */
 540:Core/Src/main.c **** 
 541:Core/Src/main.c ****     /* USER CODE BEGIN 3 */
 542:Core/Src/main.c ****   }
 543:Core/Src/main.c ****   /* USER CODE END 3 */
 544:Core/Src/main.c **** }
ARM GAS  C:\Users\kroko\AppData\Local\Temp\ccpAdhTr.s 			page 11


 545:Core/Src/main.c **** 
 546:Core/Src/main.c **** /**
 547:Core/Src/main.c ****   * @brief System Clock Configuration
 548:Core/Src/main.c ****   * @retval None
 549:Core/Src/main.c ****   */
 550:Core/Src/main.c **** void SystemClock_Config(void)
 551:Core/Src/main.c **** {
 552:Core/Src/main.c ****   RCC_OscInitTypeDef RCC_OscInitStruct = {0};
 553:Core/Src/main.c ****   RCC_ClkInitTypeDef RCC_ClkInitStruct = {0};
 554:Core/Src/main.c **** 
 555:Core/Src/main.c ****   /** Configure the main internal regulator output voltage
 556:Core/Src/main.c ****   */
 557:Core/Src/main.c ****   __HAL_RCC_PWR_CLK_ENABLE();
 558:Core/Src/main.c ****   __HAL_PWR_VOLTAGESCALING_CONFIG(PWR_REGULATOR_VOLTAGE_SCALE1);
 559:Core/Src/main.c **** 
 560:Core/Src/main.c ****   /** Initializes the RCC Oscillators according to the specified parameters
 561:Core/Src/main.c ****   * in the RCC_OscInitTypeDef structure.
 562:Core/Src/main.c ****   */
 563:Core/Src/main.c ****   RCC_OscInitStruct.OscillatorType = RCC_OSCILLATORTYPE_LSI|RCC_OSCILLATORTYPE_HSE
 564:Core/Src/main.c ****                               |RCC_OSCILLATORTYPE_LSE;
 565:Core/Src/main.c ****   RCC_OscInitStruct.HSEState = RCC_HSE_ON;
 566:Core/Src/main.c ****   RCC_OscInitStruct.LSEState = RCC_LSE_ON;
 567:Core/Src/main.c ****   RCC_OscInitStruct.LSIState = RCC_LSI_ON;
 568:Core/Src/main.c ****   RCC_OscInitStruct.PLL.PLLState = RCC_PLL_ON;
 569:Core/Src/main.c ****   RCC_OscInitStruct.PLL.PLLSource = RCC_PLLSOURCE_HSE;
 570:Core/Src/main.c ****   RCC_OscInitStruct.PLL.PLLM = 4;
 571:Core/Src/main.c ****   RCC_OscInitStruct.PLL.PLLN = 96;
 572:Core/Src/main.c ****   RCC_OscInitStruct.PLL.PLLP = RCC_PLLP_DIV2;
 573:Core/Src/main.c ****   RCC_OscInitStruct.PLL.PLLQ = 2;
 574:Core/Src/main.c ****   RCC_OscInitStruct.PLL.PLLR = 2;
 575:Core/Src/main.c ****   if (HAL_RCC_OscConfig(&RCC_OscInitStruct) != HAL_OK)
 576:Core/Src/main.c ****   {
 577:Core/Src/main.c ****     Error_Handler();
 578:Core/Src/main.c ****   }
 579:Core/Src/main.c **** 
 580:Core/Src/main.c ****   /** Initializes the CPU, AHB and APB buses clocks
 581:Core/Src/main.c ****   */
 582:Core/Src/main.c ****   RCC_ClkInitStruct.ClockType = RCC_CLOCKTYPE_HCLK|RCC_CLOCKTYPE_SYSCLK
 583:Core/Src/main.c ****                               |RCC_CLOCKTYPE_PCLK1|RCC_CLOCKTYPE_PCLK2;
 584:Core/Src/main.c ****   RCC_ClkInitStruct.SYSCLKSource = RCC_SYSCLKSOURCE_PLLCLK;
 585:Core/Src/main.c ****   RCC_ClkInitStruct.AHBCLKDivider = RCC_SYSCLK_DIV1;
 586:Core/Src/main.c ****   RCC_ClkInitStruct.APB1CLKDivider = RCC_HCLK_DIV2;
 587:Core/Src/main.c ****   RCC_ClkInitStruct.APB2CLKDivider = RCC_HCLK_DIV1;
 588:Core/Src/main.c **** 
 589:Core/Src/main.c ****   if (HAL_RCC_ClockConfig(&RCC_ClkInitStruct, FLASH_LATENCY_3) != HAL_OK)
 590:Core/Src/main.c ****   {
 591:Core/Src/main.c ****     Error_Handler();
 592:Core/Src/main.c ****   }
 593:Core/Src/main.c **** }
 594:Core/Src/main.c **** 
 595:Core/Src/main.c **** /**
 596:Core/Src/main.c ****   * @brief I2C1 Initialization Function
 597:Core/Src/main.c ****   * @param None
 598:Core/Src/main.c ****   * @retval None
 599:Core/Src/main.c ****   */
 600:Core/Src/main.c **** static void MX_I2C1_Init(void)
 601:Core/Src/main.c **** {
ARM GAS  C:\Users\kroko\AppData\Local\Temp\ccpAdhTr.s 			page 12


 602:Core/Src/main.c **** 
 603:Core/Src/main.c ****   /* USER CODE BEGIN I2C1_Init 0 */
 604:Core/Src/main.c **** 
 605:Core/Src/main.c ****   /* USER CODE END I2C1_Init 0 */
 606:Core/Src/main.c **** 
 607:Core/Src/main.c ****   /* USER CODE BEGIN I2C1_Init 1 */
 608:Core/Src/main.c **** 
 609:Core/Src/main.c ****   /* USER CODE END I2C1_Init 1 */
 610:Core/Src/main.c ****   hi2c1.Instance = I2C1;
 611:Core/Src/main.c ****   hi2c1.Init.ClockSpeed = 100000;
 612:Core/Src/main.c ****   hi2c1.Init.DutyCycle = I2C_DUTYCYCLE_2;
 613:Core/Src/main.c ****   hi2c1.Init.OwnAddress1 = 0;
 614:Core/Src/main.c ****   hi2c1.Init.AddressingMode = I2C_ADDRESSINGMODE_7BIT;
 615:Core/Src/main.c ****   hi2c1.Init.DualAddressMode = I2C_DUALADDRESS_DISABLE;
 616:Core/Src/main.c ****   hi2c1.Init.OwnAddress2 = 0;
 617:Core/Src/main.c ****   hi2c1.Init.GeneralCallMode = I2C_GENERALCALL_DISABLE;
 618:Core/Src/main.c ****   hi2c1.Init.NoStretchMode = I2C_NOSTRETCH_DISABLE;
 619:Core/Src/main.c ****   if (HAL_I2C_Init(&hi2c1) != HAL_OK)
 620:Core/Src/main.c ****   {
 621:Core/Src/main.c ****     Error_Handler();
 622:Core/Src/main.c ****   }
 623:Core/Src/main.c ****   /* USER CODE BEGIN I2C1_Init 2 */
 624:Core/Src/main.c **** 
 625:Core/Src/main.c ****   /* USER CODE END I2C1_Init 2 */
 626:Core/Src/main.c **** 
 627:Core/Src/main.c **** }
 628:Core/Src/main.c **** 
 629:Core/Src/main.c **** /**
 630:Core/Src/main.c ****   * @brief IWDG Initialization Function
 631:Core/Src/main.c ****   * @param None
 632:Core/Src/main.c ****   * @retval None
 633:Core/Src/main.c ****   */
 634:Core/Src/main.c **** static void MX_IWDG_Init(void)
 635:Core/Src/main.c **** {
 636:Core/Src/main.c **** 
 637:Core/Src/main.c ****   /* USER CODE BEGIN IWDG_Init 0 */
 638:Core/Src/main.c **** 
 639:Core/Src/main.c ****   /* USER CODE END IWDG_Init 0 */
 640:Core/Src/main.c **** 
 641:Core/Src/main.c ****   /* USER CODE BEGIN IWDG_Init 1 */
 642:Core/Src/main.c **** 
 643:Core/Src/main.c ****   /* USER CODE END IWDG_Init 1 */
 644:Core/Src/main.c ****   hiwdg.Instance = IWDG;
 645:Core/Src/main.c ****   hiwdg.Init.Prescaler = IWDG_PRESCALER_256;
 646:Core/Src/main.c ****   hiwdg.Init.Reload = 1250;
 647:Core/Src/main.c ****   if (HAL_IWDG_Init(&hiwdg) != HAL_OK)
 648:Core/Src/main.c ****   {
 649:Core/Src/main.c ****     Error_Handler();
 650:Core/Src/main.c ****   }
 651:Core/Src/main.c ****   /* USER CODE BEGIN IWDG_Init 2 */
 652:Core/Src/main.c **** 
 653:Core/Src/main.c ****   /* USER CODE END IWDG_Init 2 */
 654:Core/Src/main.c **** 
 655:Core/Src/main.c **** }
 656:Core/Src/main.c **** 
 657:Core/Src/main.c **** /**
 658:Core/Src/main.c ****   * @brief RTC Initialization Function
ARM GAS  C:\Users\kroko\AppData\Local\Temp\ccpAdhTr.s 			page 13


 659:Core/Src/main.c ****   * @param None
 660:Core/Src/main.c ****   * @retval None
 661:Core/Src/main.c ****   */
 662:Core/Src/main.c **** static void MX_RTC_Init(void)
 663:Core/Src/main.c **** {
 664:Core/Src/main.c **** 
 665:Core/Src/main.c ****   /* USER CODE BEGIN RTC_Init 0 */
 666:Core/Src/main.c **** 
 667:Core/Src/main.c ****   /* USER CODE END RTC_Init 0 */
 668:Core/Src/main.c **** 
 669:Core/Src/main.c ****   RTC_TimeTypeDef sTime = {0};
 670:Core/Src/main.c ****   RTC_DateTypeDef sDate = {0};
 671:Core/Src/main.c ****   RTC_AlarmTypeDef sAlarm = {0};
 672:Core/Src/main.c **** 
 673:Core/Src/main.c ****   /* USER CODE BEGIN RTC_Init 1 */
 674:Core/Src/main.c **** 
 675:Core/Src/main.c ****   /* USER CODE END RTC_Init 1 */
 676:Core/Src/main.c **** 
 677:Core/Src/main.c ****   /** Initialize RTC Only
 678:Core/Src/main.c ****   */
 679:Core/Src/main.c ****   hrtc.Instance = RTC;
 680:Core/Src/main.c ****   hrtc.Init.HourFormat = RTC_HOURFORMAT_24;
 681:Core/Src/main.c ****   hrtc.Init.AsynchPrediv = 127;
 682:Core/Src/main.c ****   hrtc.Init.SynchPrediv = 255;
 683:Core/Src/main.c ****   hrtc.Init.OutPut = RTC_OUTPUT_DISABLE;
 684:Core/Src/main.c ****   hrtc.Init.OutPutPolarity = RTC_OUTPUT_POLARITY_HIGH;
 685:Core/Src/main.c ****   hrtc.Init.OutPutType = RTC_OUTPUT_TYPE_OPENDRAIN;
 686:Core/Src/main.c ****   if (HAL_RTC_Init(&hrtc) != HAL_OK)
 687:Core/Src/main.c ****   {
 688:Core/Src/main.c ****     Error_Handler();
 689:Core/Src/main.c ****   }
 690:Core/Src/main.c **** 
 691:Core/Src/main.c ****   /* USER CODE BEGIN Check_RTC_BKUP */
 692:Core/Src/main.c ****   if (HAL_RTCEx_BKUPRead(&hrtc, RTC_BKP_DR1) == RTC_BKP_CONSTANT){return;}
 693:Core/Src/main.c ****   // // GET RTC DATETIME
 694:Core/Src/main.c ****   // RTC_DateTypeDef gDate;
 695:Core/Src/main.c ****   // RTC_TimeTypeDef gTime;
 696:Core/Src/main.c ****   // bool rtcBackup = false;
 697:Core/Src/main.c **** 
 698:Core/Src/main.c ****   // /* Get the RTC current Time */
 699:Core/Src/main.c ****   // HAL_RTC_GetTime(&hrtc, &gTime, RTC_FORMAT_BIN);
 700:Core/Src/main.c ****   // /* Get the RTC current Date */
 701:Core/Src/main.c ****   // HAL_RTC_GetDate(&hrtc, &gDate, RTC_FORMAT_BIN);
 702:Core/Src/main.c ****   
 703:Core/Src/main.c ****   // if(gDate.Year != 0){
 704:Core/Src/main.c ****   //     rtcBackup = true;
 705:Core/Src/main.c ****   // }
 706:Core/Src/main.c ****   /* USER CODE END Check_RTC_BKUP */
 707:Core/Src/main.c **** 
 708:Core/Src/main.c ****   /** Initialize RTC and set the Time and Date
 709:Core/Src/main.c ****   */
 710:Core/Src/main.c ****   sTime.Hours = 0x0;
 711:Core/Src/main.c ****   sTime.Minutes = 0x0;
 712:Core/Src/main.c ****   sTime.Seconds = 0x0;
 713:Core/Src/main.c ****   sTime.DayLightSaving = RTC_DAYLIGHTSAVING_NONE;
 714:Core/Src/main.c ****   sTime.StoreOperation = RTC_STOREOPERATION_RESET;
 715:Core/Src/main.c ****   if (HAL_RTC_SetTime(&hrtc, &sTime, RTC_FORMAT_BCD) != HAL_OK)
ARM GAS  C:\Users\kroko\AppData\Local\Temp\ccpAdhTr.s 			page 14


 716:Core/Src/main.c ****   {
 717:Core/Src/main.c ****     Error_Handler();
 718:Core/Src/main.c ****   }
 719:Core/Src/main.c ****   sDate.WeekDay = RTC_WEEKDAY_MONDAY;
 720:Core/Src/main.c ****   sDate.Month = RTC_MONTH_JANUARY;
 721:Core/Src/main.c ****   sDate.Date = 0x1;
 722:Core/Src/main.c ****   sDate.Year = 0x0;
 723:Core/Src/main.c **** 
 724:Core/Src/main.c ****   if (HAL_RTC_SetDate(&hrtc, &sDate, RTC_FORMAT_BCD) != HAL_OK)
 725:Core/Src/main.c ****   {
 726:Core/Src/main.c ****     Error_Handler();
 727:Core/Src/main.c ****   }
 728:Core/Src/main.c **** 
 729:Core/Src/main.c ****   /** Enable the Alarm A
 730:Core/Src/main.c ****   */
 731:Core/Src/main.c ****   sAlarm.AlarmTime.Hours = 0x0;
 732:Core/Src/main.c ****   sAlarm.AlarmTime.Minutes = 0x0;
 733:Core/Src/main.c ****   sAlarm.AlarmTime.Seconds = 0x0;
 734:Core/Src/main.c ****   sAlarm.AlarmTime.SubSeconds = 0x0;
 735:Core/Src/main.c ****   sAlarm.AlarmTime.DayLightSaving = RTC_DAYLIGHTSAVING_NONE;
 736:Core/Src/main.c ****   sAlarm.AlarmTime.StoreOperation = RTC_STOREOPERATION_RESET;
 737:Core/Src/main.c ****   sAlarm.AlarmMask = RTC_ALARMMASK_NONE;
 738:Core/Src/main.c ****   sAlarm.AlarmSubSecondMask = RTC_ALARMSUBSECONDMASK_ALL;
 739:Core/Src/main.c ****   sAlarm.AlarmDateWeekDaySel = RTC_ALARMDATEWEEKDAYSEL_DATE;
 740:Core/Src/main.c ****   sAlarm.AlarmDateWeekDay = 0x1;
 741:Core/Src/main.c ****   sAlarm.Alarm = RTC_ALARM_A;
 742:Core/Src/main.c ****   if (HAL_RTC_SetAlarm(&hrtc, &sAlarm, RTC_FORMAT_BCD) != HAL_OK)
 743:Core/Src/main.c ****   {
 744:Core/Src/main.c ****     Error_Handler();
 745:Core/Src/main.c ****   }
 746:Core/Src/main.c ****   /* USER CODE BEGIN RTC_Init 2 */
 747:Core/Src/main.c ****   // if(rtcBackup){
 748:Core/Src/main.c ****   //   HAL_RTC_SetTime(&hrtc, &gTime, RTC_FORMAT_BIN);
 749:Core/Src/main.c ****   //   HAL_RTC_SetDate(&hrtc, &gDate, RTC_FORMAT_BIN);
 750:Core/Src/main.c ****   // }
 751:Core/Src/main.c ****   /* USER CODE END RTC_Init 2 */
 752:Core/Src/main.c **** 
 753:Core/Src/main.c **** }
 754:Core/Src/main.c **** 
 755:Core/Src/main.c **** /**
 756:Core/Src/main.c ****   * @brief SPI1 Initialization Function
 757:Core/Src/main.c ****   * @param None
 758:Core/Src/main.c ****   * @retval None
 759:Core/Src/main.c ****   */
 760:Core/Src/main.c **** static void MX_SPI1_Init(void)
 761:Core/Src/main.c **** {
 762:Core/Src/main.c **** 
 763:Core/Src/main.c ****   /* USER CODE BEGIN SPI1_Init 0 */
 764:Core/Src/main.c **** 
 765:Core/Src/main.c ****   /* USER CODE END SPI1_Init 0 */
 766:Core/Src/main.c **** 
 767:Core/Src/main.c ****   /* USER CODE BEGIN SPI1_Init 1 */
 768:Core/Src/main.c **** 
 769:Core/Src/main.c ****   /* USER CODE END SPI1_Init 1 */
 770:Core/Src/main.c ****   /* SPI1 parameter configuration*/
 771:Core/Src/main.c ****   hspi1.Instance = SPI1;
 772:Core/Src/main.c ****   hspi1.Init.Mode = SPI_MODE_MASTER;
ARM GAS  C:\Users\kroko\AppData\Local\Temp\ccpAdhTr.s 			page 15


 773:Core/Src/main.c ****   hspi1.Init.Direction = SPI_DIRECTION_1LINE;
 774:Core/Src/main.c ****   hspi1.Init.DataSize = SPI_DATASIZE_8BIT;
 775:Core/Src/main.c ****   hspi1.Init.CLKPolarity = SPI_POLARITY_LOW;
 776:Core/Src/main.c ****   hspi1.Init.CLKPhase = SPI_PHASE_1EDGE;
 777:Core/Src/main.c ****   hspi1.Init.NSS = SPI_NSS_HARD_OUTPUT;
 778:Core/Src/main.c ****   hspi1.Init.BaudRatePrescaler = SPI_BAUDRATEPRESCALER_2;
 779:Core/Src/main.c ****   hspi1.Init.FirstBit = SPI_FIRSTBIT_MSB;
 780:Core/Src/main.c ****   hspi1.Init.TIMode = SPI_TIMODE_DISABLE;
 781:Core/Src/main.c ****   hspi1.Init.CRCCalculation = SPI_CRCCALCULATION_DISABLE;
 782:Core/Src/main.c ****   hspi1.Init.CRCPolynomial = 10;
 783:Core/Src/main.c ****   if (HAL_SPI_Init(&hspi1) != HAL_OK)
 784:Core/Src/main.c ****   {
 785:Core/Src/main.c ****     Error_Handler();
 786:Core/Src/main.c ****   }
 787:Core/Src/main.c ****   /* USER CODE BEGIN SPI1_Init 2 */
 788:Core/Src/main.c **** 
 789:Core/Src/main.c ****   /* USER CODE END SPI1_Init 2 */
 790:Core/Src/main.c **** 
 791:Core/Src/main.c **** }
 792:Core/Src/main.c **** 
 793:Core/Src/main.c **** /**
 794:Core/Src/main.c ****   * @brief SPI2 Initialization Function
 795:Core/Src/main.c ****   * @param None
 796:Core/Src/main.c ****   * @retval None
 797:Core/Src/main.c ****   */
 798:Core/Src/main.c **** static void MX_SPI2_Init(void)
 799:Core/Src/main.c **** {
 800:Core/Src/main.c **** 
 801:Core/Src/main.c ****   /* USER CODE BEGIN SPI2_Init 0 */
 802:Core/Src/main.c **** 
 803:Core/Src/main.c ****   /* USER CODE END SPI2_Init 0 */
 804:Core/Src/main.c **** 
 805:Core/Src/main.c ****   /* USER CODE BEGIN SPI2_Init 1 */
 806:Core/Src/main.c **** 
 807:Core/Src/main.c ****   /* USER CODE END SPI2_Init 1 */
 808:Core/Src/main.c ****   /* SPI2 parameter configuration*/
 809:Core/Src/main.c ****   hspi2.Instance = SPI2;
 810:Core/Src/main.c ****   hspi2.Init.Mode = SPI_MODE_MASTER;
 811:Core/Src/main.c ****   hspi2.Init.Direction = SPI_DIRECTION_2LINES;
 812:Core/Src/main.c ****   hspi2.Init.DataSize = SPI_DATASIZE_8BIT;
 813:Core/Src/main.c ****   hspi2.Init.CLKPolarity = SPI_POLARITY_LOW;
 814:Core/Src/main.c ****   hspi2.Init.CLKPhase = SPI_PHASE_1EDGE;
 815:Core/Src/main.c ****   hspi2.Init.NSS = SPI_NSS_SOFT;
 816:Core/Src/main.c ****   hspi2.Init.BaudRatePrescaler = SPI_BAUDRATEPRESCALER_256;
 817:Core/Src/main.c ****   hspi2.Init.FirstBit = SPI_FIRSTBIT_MSB;
 818:Core/Src/main.c ****   hspi2.Init.TIMode = SPI_TIMODE_DISABLE;
 819:Core/Src/main.c ****   hspi2.Init.CRCCalculation = SPI_CRCCALCULATION_DISABLE;
 820:Core/Src/main.c ****   hspi2.Init.CRCPolynomial = 10;
 821:Core/Src/main.c ****   if (HAL_SPI_Init(&hspi2) != HAL_OK)
 822:Core/Src/main.c ****   {
 823:Core/Src/main.c ****     Error_Handler();
 824:Core/Src/main.c ****   }
 825:Core/Src/main.c ****   /* USER CODE BEGIN SPI2_Init 2 */
 826:Core/Src/main.c **** 
 827:Core/Src/main.c ****   /* USER CODE END SPI2_Init 2 */
 828:Core/Src/main.c **** 
 829:Core/Src/main.c **** }
ARM GAS  C:\Users\kroko\AppData\Local\Temp\ccpAdhTr.s 			page 16


 830:Core/Src/main.c **** 
 831:Core/Src/main.c **** /**
 832:Core/Src/main.c ****   * @brief UART4 Initialization Function
 833:Core/Src/main.c ****   * @param None
 834:Core/Src/main.c ****   * @retval None
 835:Core/Src/main.c ****   */
 836:Core/Src/main.c **** static void MX_UART4_Init(void)
 837:Core/Src/main.c **** {
 838:Core/Src/main.c **** 
 839:Core/Src/main.c ****   /* USER CODE BEGIN UART4_Init 0 */
 840:Core/Src/main.c **** 
 841:Core/Src/main.c ****   /* USER CODE END UART4_Init 0 */
 842:Core/Src/main.c **** 
 843:Core/Src/main.c ****   /* USER CODE BEGIN UART4_Init 1 */
 844:Core/Src/main.c **** 
 845:Core/Src/main.c ****   /* USER CODE END UART4_Init 1 */
 846:Core/Src/main.c ****   huart4.Instance = UART4;
 847:Core/Src/main.c ****   huart4.Init.BaudRate = 115200;
 848:Core/Src/main.c ****   huart4.Init.WordLength = UART_WORDLENGTH_8B;
 849:Core/Src/main.c ****   huart4.Init.StopBits = UART_STOPBITS_1;
 850:Core/Src/main.c ****   huart4.Init.Parity = UART_PARITY_NONE;
 851:Core/Src/main.c ****   huart4.Init.Mode = UART_MODE_TX_RX;
 852:Core/Src/main.c ****   huart4.Init.HwFlowCtl = UART_HWCONTROL_NONE;
 853:Core/Src/main.c ****   huart4.Init.OverSampling = UART_OVERSAMPLING_16;
 854:Core/Src/main.c ****   if (HAL_UART_Init(&huart4) != HAL_OK)
 855:Core/Src/main.c ****   {
 856:Core/Src/main.c ****     Error_Handler();
 857:Core/Src/main.c ****   }
 858:Core/Src/main.c ****   /* USER CODE BEGIN UART4_Init 2 */
 859:Core/Src/main.c **** 
 860:Core/Src/main.c ****   /* USER CODE END UART4_Init 2 */
 861:Core/Src/main.c **** 
 862:Core/Src/main.c **** }
 863:Core/Src/main.c **** 
 864:Core/Src/main.c **** /**
 865:Core/Src/main.c ****   * @brief UART5 Initialization Function
 866:Core/Src/main.c ****   * @param None
 867:Core/Src/main.c ****   * @retval None
 868:Core/Src/main.c ****   */
 869:Core/Src/main.c **** static void MX_UART5_Init(void)
 870:Core/Src/main.c **** {
 871:Core/Src/main.c **** 
 872:Core/Src/main.c ****   /* USER CODE BEGIN UART5_Init 0 */
 873:Core/Src/main.c **** 
 874:Core/Src/main.c ****   /* USER CODE END UART5_Init 0 */
 875:Core/Src/main.c **** 
 876:Core/Src/main.c ****   /* USER CODE BEGIN UART5_Init 1 */
 877:Core/Src/main.c **** 
 878:Core/Src/main.c ****   /* USER CODE END UART5_Init 1 */
 879:Core/Src/main.c ****   huart5.Instance = UART5;
 880:Core/Src/main.c ****   huart5.Init.BaudRate = 115200;
 881:Core/Src/main.c ****   huart5.Init.WordLength = UART_WORDLENGTH_8B;
 882:Core/Src/main.c ****   huart5.Init.StopBits = UART_STOPBITS_1;
 883:Core/Src/main.c ****   huart5.Init.Parity = UART_PARITY_NONE;
 884:Core/Src/main.c ****   huart5.Init.Mode = UART_MODE_TX_RX;
 885:Core/Src/main.c ****   huart5.Init.HwFlowCtl = UART_HWCONTROL_NONE;
 886:Core/Src/main.c ****   huart5.Init.OverSampling = UART_OVERSAMPLING_16;
ARM GAS  C:\Users\kroko\AppData\Local\Temp\ccpAdhTr.s 			page 17


 887:Core/Src/main.c ****   if (HAL_UART_Init(&huart5) != HAL_OK)
 888:Core/Src/main.c ****   {
 889:Core/Src/main.c ****     Error_Handler();
 890:Core/Src/main.c ****   }
 891:Core/Src/main.c ****   /* USER CODE BEGIN UART5_Init 2 */
 892:Core/Src/main.c **** 
 893:Core/Src/main.c ****   /* USER CODE END UART5_Init 2 */
 894:Core/Src/main.c **** 
 895:Core/Src/main.c **** }
 896:Core/Src/main.c **** 
 897:Core/Src/main.c **** /**
 898:Core/Src/main.c ****   * @brief USART2 Initialization Function
 899:Core/Src/main.c ****   * @param None
 900:Core/Src/main.c ****   * @retval None
 901:Core/Src/main.c ****   */
 902:Core/Src/main.c **** static void MX_USART2_UART_Init(void)
 903:Core/Src/main.c **** {
 904:Core/Src/main.c **** 
 905:Core/Src/main.c ****   /* USER CODE BEGIN USART2_Init 0 */
 906:Core/Src/main.c **** 
 907:Core/Src/main.c ****   /* USER CODE END USART2_Init 0 */
 908:Core/Src/main.c **** 
 909:Core/Src/main.c ****   /* USER CODE BEGIN USART2_Init 1 */
 910:Core/Src/main.c **** 
 911:Core/Src/main.c ****   /* USER CODE END USART2_Init 1 */
 912:Core/Src/main.c ****   huart2.Instance = USART2;
 913:Core/Src/main.c ****   huart2.Init.BaudRate = 115200;
 914:Core/Src/main.c ****   huart2.Init.WordLength = UART_WORDLENGTH_8B;
 915:Core/Src/main.c ****   huart2.Init.StopBits = UART_STOPBITS_1;
 916:Core/Src/main.c ****   huart2.Init.Parity = UART_PARITY_NONE;
 917:Core/Src/main.c ****   huart2.Init.Mode = UART_MODE_TX_RX;
 918:Core/Src/main.c ****   huart2.Init.HwFlowCtl = UART_HWCONTROL_NONE;
 919:Core/Src/main.c ****   huart2.Init.OverSampling = UART_OVERSAMPLING_16;
 920:Core/Src/main.c ****   if (HAL_UART_Init(&huart2) != HAL_OK)
 921:Core/Src/main.c ****   {
 922:Core/Src/main.c ****     Error_Handler();
 923:Core/Src/main.c ****   }
 924:Core/Src/main.c ****   /* USER CODE BEGIN USART2_Init 2 */
 925:Core/Src/main.c **** 
 926:Core/Src/main.c ****   /* USER CODE END USART2_Init 2 */
 927:Core/Src/main.c **** 
 928:Core/Src/main.c **** }
 929:Core/Src/main.c **** 
 930:Core/Src/main.c **** /**
 931:Core/Src/main.c ****   * @brief USART3 Initialization Function
 932:Core/Src/main.c ****   * @param None
 933:Core/Src/main.c ****   * @retval None
 934:Core/Src/main.c ****   */
 935:Core/Src/main.c **** static void MX_USART3_UART_Init(void)
 936:Core/Src/main.c **** {
 937:Core/Src/main.c **** 
 938:Core/Src/main.c ****   /* USER CODE BEGIN USART3_Init 0 */
 939:Core/Src/main.c **** 
 940:Core/Src/main.c ****   /* USER CODE END USART3_Init 0 */
 941:Core/Src/main.c **** 
 942:Core/Src/main.c ****   /* USER CODE BEGIN USART3_Init 1 */
 943:Core/Src/main.c **** 
ARM GAS  C:\Users\kroko\AppData\Local\Temp\ccpAdhTr.s 			page 18


 944:Core/Src/main.c ****   /* USER CODE END USART3_Init 1 */
 945:Core/Src/main.c ****   huart3.Instance = USART3;
 946:Core/Src/main.c ****   huart3.Init.BaudRate = 115200;
 947:Core/Src/main.c ****   huart3.Init.WordLength = UART_WORDLENGTH_8B;
 948:Core/Src/main.c ****   huart3.Init.StopBits = UART_STOPBITS_1;
 949:Core/Src/main.c ****   huart3.Init.Parity = UART_PARITY_NONE;
 950:Core/Src/main.c ****   huart3.Init.Mode = UART_MODE_TX_RX;
 951:Core/Src/main.c ****   huart3.Init.HwFlowCtl = UART_HWCONTROL_NONE;
 952:Core/Src/main.c ****   huart3.Init.OverSampling = UART_OVERSAMPLING_16;
 953:Core/Src/main.c ****   if (HAL_UART_Init(&huart3) != HAL_OK)
 954:Core/Src/main.c ****   {
 955:Core/Src/main.c ****     Error_Handler();
 956:Core/Src/main.c ****   }
 957:Core/Src/main.c ****   /* USER CODE BEGIN USART3_Init 2 */
 958:Core/Src/main.c **** 
 959:Core/Src/main.c ****   /* USER CODE END USART3_Init 2 */
 960:Core/Src/main.c **** 
 961:Core/Src/main.c **** }
 962:Core/Src/main.c **** 
 963:Core/Src/main.c **** /**
 964:Core/Src/main.c ****   * @brief USART6 Initialization Function
 965:Core/Src/main.c ****   * @param None
 966:Core/Src/main.c ****   * @retval None
 967:Core/Src/main.c ****   */
 968:Core/Src/main.c **** static void MX_USART6_UART_Init(void)
 969:Core/Src/main.c **** {
 970:Core/Src/main.c **** 
 971:Core/Src/main.c ****   /* USER CODE BEGIN USART6_Init 0 */
 972:Core/Src/main.c **** 
 973:Core/Src/main.c ****   /* USER CODE END USART6_Init 0 */
 974:Core/Src/main.c **** 
 975:Core/Src/main.c ****   /* USER CODE BEGIN USART6_Init 1 */
 976:Core/Src/main.c **** 
 977:Core/Src/main.c ****   /* USER CODE END USART6_Init 1 */
 978:Core/Src/main.c ****   huart6.Instance = USART6;
 979:Core/Src/main.c ****   huart6.Init.BaudRate = 115200;
 980:Core/Src/main.c ****   huart6.Init.WordLength = UART_WORDLENGTH_8B;
 981:Core/Src/main.c ****   huart6.Init.StopBits = UART_STOPBITS_1;
 982:Core/Src/main.c ****   huart6.Init.Parity = UART_PARITY_NONE;
 983:Core/Src/main.c ****   huart6.Init.Mode = UART_MODE_TX_RX;
 984:Core/Src/main.c ****   huart6.Init.HwFlowCtl = UART_HWCONTROL_NONE;
 985:Core/Src/main.c ****   huart6.Init.OverSampling = UART_OVERSAMPLING_16;
 986:Core/Src/main.c ****   if (HAL_UART_Init(&huart6) != HAL_OK)
 987:Core/Src/main.c ****   {
 988:Core/Src/main.c ****     Error_Handler();
 989:Core/Src/main.c ****   }
 990:Core/Src/main.c ****   /* USER CODE BEGIN USART6_Init 2 */
 991:Core/Src/main.c **** 
 992:Core/Src/main.c ****   /* USER CODE END USART6_Init 2 */
 993:Core/Src/main.c **** 
 994:Core/Src/main.c **** }
 995:Core/Src/main.c **** 
 996:Core/Src/main.c **** /**
 997:Core/Src/main.c ****   * Enable DMA controller clock
 998:Core/Src/main.c ****   */
 999:Core/Src/main.c **** static void MX_DMA_Init(void)
1000:Core/Src/main.c **** {
ARM GAS  C:\Users\kroko\AppData\Local\Temp\ccpAdhTr.s 			page 19


1001:Core/Src/main.c **** 
1002:Core/Src/main.c ****   /* DMA controller clock enable */
1003:Core/Src/main.c ****   __HAL_RCC_DMA2_CLK_ENABLE();
1004:Core/Src/main.c ****   __HAL_RCC_DMA1_CLK_ENABLE();
1005:Core/Src/main.c **** 
1006:Core/Src/main.c ****   /* DMA interrupt init */
1007:Core/Src/main.c ****   /* DMA1_Stream0_IRQn interrupt configuration */
1008:Core/Src/main.c ****   HAL_NVIC_SetPriority(DMA1_Stream0_IRQn, 0, 0);
1009:Core/Src/main.c ****   HAL_NVIC_EnableIRQ(DMA1_Stream0_IRQn);
1010:Core/Src/main.c ****   /* DMA1_Stream1_IRQn interrupt configuration */
1011:Core/Src/main.c ****   HAL_NVIC_SetPriority(DMA1_Stream1_IRQn, 0, 0);
1012:Core/Src/main.c ****   HAL_NVIC_EnableIRQ(DMA1_Stream1_IRQn);
1013:Core/Src/main.c ****   /* DMA1_Stream2_IRQn interrupt configuration */
1014:Core/Src/main.c ****   HAL_NVIC_SetPriority(DMA1_Stream2_IRQn, 0, 0);
1015:Core/Src/main.c ****   HAL_NVIC_EnableIRQ(DMA1_Stream2_IRQn);
1016:Core/Src/main.c ****   /* DMA1_Stream3_IRQn interrupt configuration */
1017:Core/Src/main.c ****   HAL_NVIC_SetPriority(DMA1_Stream3_IRQn, 0, 0);
1018:Core/Src/main.c ****   HAL_NVIC_EnableIRQ(DMA1_Stream3_IRQn);
1019:Core/Src/main.c ****   /* DMA1_Stream4_IRQn interrupt configuration */
1020:Core/Src/main.c ****   HAL_NVIC_SetPriority(DMA1_Stream4_IRQn, 0, 0);
1021:Core/Src/main.c ****   HAL_NVIC_EnableIRQ(DMA1_Stream4_IRQn);
1022:Core/Src/main.c ****   /* DMA1_Stream5_IRQn interrupt configuration */
1023:Core/Src/main.c ****   HAL_NVIC_SetPriority(DMA1_Stream5_IRQn, 0, 0);
1024:Core/Src/main.c ****   HAL_NVIC_EnableIRQ(DMA1_Stream5_IRQn);
1025:Core/Src/main.c ****   /* DMA1_Stream6_IRQn interrupt configuration */
1026:Core/Src/main.c ****   HAL_NVIC_SetPriority(DMA1_Stream6_IRQn, 0, 0);
1027:Core/Src/main.c ****   HAL_NVIC_EnableIRQ(DMA1_Stream6_IRQn);
1028:Core/Src/main.c ****   /* DMA1_Stream7_IRQn interrupt configuration */
1029:Core/Src/main.c ****   HAL_NVIC_SetPriority(DMA1_Stream7_IRQn, 0, 0);
1030:Core/Src/main.c ****   HAL_NVIC_EnableIRQ(DMA1_Stream7_IRQn);
1031:Core/Src/main.c ****   /* DMA2_Stream1_IRQn interrupt configuration */
1032:Core/Src/main.c ****   HAL_NVIC_SetPriority(DMA2_Stream1_IRQn, 0, 0);
1033:Core/Src/main.c ****   HAL_NVIC_EnableIRQ(DMA2_Stream1_IRQn);
1034:Core/Src/main.c ****   /* DMA2_Stream2_IRQn interrupt configuration */
1035:Core/Src/main.c ****   HAL_NVIC_SetPriority(DMA2_Stream2_IRQn, 0, 0);
1036:Core/Src/main.c ****   HAL_NVIC_EnableIRQ(DMA2_Stream2_IRQn);
1037:Core/Src/main.c ****   /* DMA2_Stream6_IRQn interrupt configuration */
1038:Core/Src/main.c ****   HAL_NVIC_SetPriority(DMA2_Stream6_IRQn, 0, 0);
1039:Core/Src/main.c ****   HAL_NVIC_EnableIRQ(DMA2_Stream6_IRQn);
1040:Core/Src/main.c **** 
1041:Core/Src/main.c **** }
1042:Core/Src/main.c **** 
1043:Core/Src/main.c **** /**
1044:Core/Src/main.c ****   * @brief GPIO Initialization Function
1045:Core/Src/main.c ****   * @param None
1046:Core/Src/main.c ****   * @retval None
1047:Core/Src/main.c ****   */
1048:Core/Src/main.c **** static void MX_GPIO_Init(void)
1049:Core/Src/main.c **** {
  28              		.loc 1 1049 1 view -0
  29              		.cfi_startproc
  30              		@ args = 0, pretend = 0, frame = 40
  31              		@ frame_needed = 0, uses_anonymous_args = 0
  32 0000 2DE9F043 		push	{r4, r5, r6, r7, r8, r9, lr}
  33              		.cfi_def_cfa_offset 28
  34              		.cfi_offset 4, -28
  35              		.cfi_offset 5, -24
ARM GAS  C:\Users\kroko\AppData\Local\Temp\ccpAdhTr.s 			page 20


  36              		.cfi_offset 6, -20
  37              		.cfi_offset 7, -16
  38              		.cfi_offset 8, -12
  39              		.cfi_offset 9, -8
  40              		.cfi_offset 14, -4
  41 0004 8BB0     		sub	sp, sp, #44
  42              		.cfi_def_cfa_offset 72
1050:Core/Src/main.c ****   GPIO_InitTypeDef GPIO_InitStruct = {0};
  43              		.loc 1 1050 3 view .LVU1
  44              		.loc 1 1050 20 is_stmt 0 view .LVU2
  45 0006 0024     		movs	r4, #0
  46 0008 0594     		str	r4, [sp, #20]
  47 000a 0694     		str	r4, [sp, #24]
  48 000c 0794     		str	r4, [sp, #28]
  49 000e 0894     		str	r4, [sp, #32]
  50 0010 0994     		str	r4, [sp, #36]
1051:Core/Src/main.c **** /* USER CODE BEGIN MX_GPIO_Init_1 */
1052:Core/Src/main.c **** /* USER CODE END MX_GPIO_Init_1 */
1053:Core/Src/main.c **** 
1054:Core/Src/main.c ****   /* GPIO Ports Clock Enable */
1055:Core/Src/main.c ****   __HAL_RCC_GPIOC_CLK_ENABLE();
  51              		.loc 1 1055 3 is_stmt 1 view .LVU3
  52              	.LBB4:
  53              		.loc 1 1055 3 view .LVU4
  54 0012 0094     		str	r4, [sp]
  55              		.loc 1 1055 3 view .LVU5
  56 0014 474B     		ldr	r3, .L3
  57 0016 1A6B     		ldr	r2, [r3, #48]
  58 0018 42F00402 		orr	r2, r2, #4
  59 001c 1A63     		str	r2, [r3, #48]
  60              		.loc 1 1055 3 view .LVU6
  61 001e 1A6B     		ldr	r2, [r3, #48]
  62 0020 02F00402 		and	r2, r2, #4
  63 0024 0092     		str	r2, [sp]
  64              		.loc 1 1055 3 view .LVU7
  65 0026 009A     		ldr	r2, [sp]
  66              	.LBE4:
  67              		.loc 1 1055 3 view .LVU8
1056:Core/Src/main.c ****   __HAL_RCC_GPIOH_CLK_ENABLE();
  68              		.loc 1 1056 3 view .LVU9
  69              	.LBB5:
  70              		.loc 1 1056 3 view .LVU10
  71 0028 0194     		str	r4, [sp, #4]
  72              		.loc 1 1056 3 view .LVU11
  73 002a 1A6B     		ldr	r2, [r3, #48]
  74 002c 42F08002 		orr	r2, r2, #128
  75 0030 1A63     		str	r2, [r3, #48]
  76              		.loc 1 1056 3 view .LVU12
  77 0032 1A6B     		ldr	r2, [r3, #48]
  78 0034 02F08002 		and	r2, r2, #128
  79 0038 0192     		str	r2, [sp, #4]
  80              		.loc 1 1056 3 view .LVU13
  81 003a 019A     		ldr	r2, [sp, #4]
  82              	.LBE5:
  83              		.loc 1 1056 3 view .LVU14
1057:Core/Src/main.c ****   __HAL_RCC_GPIOA_CLK_ENABLE();
  84              		.loc 1 1057 3 view .LVU15
ARM GAS  C:\Users\kroko\AppData\Local\Temp\ccpAdhTr.s 			page 21


  85              	.LBB6:
  86              		.loc 1 1057 3 view .LVU16
  87 003c 0294     		str	r4, [sp, #8]
  88              		.loc 1 1057 3 view .LVU17
  89 003e 1A6B     		ldr	r2, [r3, #48]
  90 0040 42F00102 		orr	r2, r2, #1
  91 0044 1A63     		str	r2, [r3, #48]
  92              		.loc 1 1057 3 view .LVU18
  93 0046 1A6B     		ldr	r2, [r3, #48]
  94 0048 02F00102 		and	r2, r2, #1
  95 004c 0292     		str	r2, [sp, #8]
  96              		.loc 1 1057 3 view .LVU19
  97 004e 029A     		ldr	r2, [sp, #8]
  98              	.LBE6:
  99              		.loc 1 1057 3 view .LVU20
1058:Core/Src/main.c ****   __HAL_RCC_GPIOB_CLK_ENABLE();
 100              		.loc 1 1058 3 view .LVU21
 101              	.LBB7:
 102              		.loc 1 1058 3 view .LVU22
 103 0050 0394     		str	r4, [sp, #12]
 104              		.loc 1 1058 3 view .LVU23
 105 0052 1A6B     		ldr	r2, [r3, #48]
 106 0054 42F00202 		orr	r2, r2, #2
 107 0058 1A63     		str	r2, [r3, #48]
 108              		.loc 1 1058 3 view .LVU24
 109 005a 1A6B     		ldr	r2, [r3, #48]
 110 005c 02F00202 		and	r2, r2, #2
 111 0060 0392     		str	r2, [sp, #12]
 112              		.loc 1 1058 3 view .LVU25
 113 0062 039A     		ldr	r2, [sp, #12]
 114              	.LBE7:
 115              		.loc 1 1058 3 view .LVU26
1059:Core/Src/main.c ****   __HAL_RCC_GPIOD_CLK_ENABLE();
 116              		.loc 1 1059 3 view .LVU27
 117              	.LBB8:
 118              		.loc 1 1059 3 view .LVU28
 119 0064 0494     		str	r4, [sp, #16]
 120              		.loc 1 1059 3 view .LVU29
 121 0066 1A6B     		ldr	r2, [r3, #48]
 122 0068 42F00802 		orr	r2, r2, #8
 123 006c 1A63     		str	r2, [r3, #48]
 124              		.loc 1 1059 3 view .LVU30
 125 006e 1B6B     		ldr	r3, [r3, #48]
 126 0070 03F00803 		and	r3, r3, #8
 127 0074 0493     		str	r3, [sp, #16]
 128              		.loc 1 1059 3 view .LVU31
 129 0076 049B     		ldr	r3, [sp, #16]
 130              	.LBE8:
 131              		.loc 1 1059 3 view .LVU32
1060:Core/Src/main.c **** 
1061:Core/Src/main.c ****   /*Configure GPIO pin Output Level */
1062:Core/Src/main.c ****   HAL_GPIO_WritePin(GPIOC, GPIO_PIN_13|DEV0_RST_Pin|SPI2_CS_Pin|DC_Pin
 132              		.loc 1 1062 3 view .LVU33
 133 0078 DFF8C490 		ldr	r9, .L3+12
 134 007c 2246     		mov	r2, r4
 135 007e 42F21311 		movw	r1, #8467
 136 0082 4846     		mov	r0, r9
ARM GAS  C:\Users\kroko\AppData\Local\Temp\ccpAdhTr.s 			page 22


 137 0084 FFF7FEFF 		bl	HAL_GPIO_WritePin
 138              	.LVL0:
1063:Core/Src/main.c ****                           |BL_EN_Pin, GPIO_PIN_RESET);
1064:Core/Src/main.c **** 
1065:Core/Src/main.c ****   /*Configure GPIO pin Output Level */
1066:Core/Src/main.c ****   HAL_GPIO_WritePin(RST_GPIO_Port, RST_Pin, GPIO_PIN_RESET);
 139              		.loc 1 1066 3 view .LVU34
 140 0088 DFF8B880 		ldr	r8, .L3+16
 141 008c 2246     		mov	r2, r4
 142 008e 4021     		movs	r1, #64
 143 0090 4046     		mov	r0, r8
 144 0092 FFF7FEFF 		bl	HAL_GPIO_WritePin
 145              	.LVL1:
1067:Core/Src/main.c **** 
1068:Core/Src/main.c ****   /*Configure GPIO pin Output Level */
1069:Core/Src/main.c ****   HAL_GPIO_WritePin(GPIOB, DEV1_RST_Pin|DEV2_RST_Pin, GPIO_PIN_RESET);
 146              		.loc 1 1069 3 view .LVU35
 147 0096 284D     		ldr	r5, .L3+4
 148 0098 2246     		mov	r2, r4
 149 009a 0321     		movs	r1, #3
 150 009c 2846     		mov	r0, r5
 151 009e FFF7FEFF 		bl	HAL_GPIO_WritePin
 152              	.LVL2:
1070:Core/Src/main.c **** 
1071:Core/Src/main.c ****   /*Configure GPIO pin Output Level */
1072:Core/Src/main.c ****   HAL_GPIO_WritePin(DEV3_RST_GPIO_Port, DEV3_RST_Pin, GPIO_PIN_RESET);
 153              		.loc 1 1072 3 view .LVU36
 154 00a2 264F     		ldr	r7, .L3+8
 155 00a4 2246     		mov	r2, r4
 156 00a6 0421     		movs	r1, #4
 157 00a8 3846     		mov	r0, r7
 158 00aa FFF7FEFF 		bl	HAL_GPIO_WritePin
 159              	.LVL3:
1073:Core/Src/main.c **** 
1074:Core/Src/main.c ****   /*Configure GPIO pin Output Level */
1075:Core/Src/main.c ****   HAL_GPIO_WritePin(TP_RST_GPIO_Port, TP_RST_Pin, GPIO_PIN_SET);
 160              		.loc 1 1075 3 view .LVU37
 161 00ae 0122     		movs	r2, #1
 162 00b0 4FF48071 		mov	r1, #256
 163 00b4 2846     		mov	r0, r5
 164 00b6 FFF7FEFF 		bl	HAL_GPIO_WritePin
 165              	.LVL4:
1076:Core/Src/main.c **** 
1077:Core/Src/main.c ****   /*Configure GPIO pins : PC13 DEV0_RST_Pin SPI2_CS_Pin DC_Pin
1078:Core/Src/main.c ****                            BL_EN_Pin */
1079:Core/Src/main.c ****   GPIO_InitStruct.Pin = GPIO_PIN_13|DEV0_RST_Pin|SPI2_CS_Pin|DC_Pin
 166              		.loc 1 1079 3 view .LVU38
 167              		.loc 1 1079 23 is_stmt 0 view .LVU39
 168 00ba 42F21313 		movw	r3, #8467
 169 00be 0593     		str	r3, [sp, #20]
1080:Core/Src/main.c ****                           |BL_EN_Pin;
1081:Core/Src/main.c ****   GPIO_InitStruct.Mode = GPIO_MODE_OUTPUT_PP;
 170              		.loc 1 1081 3 is_stmt 1 view .LVU40
 171              		.loc 1 1081 24 is_stmt 0 view .LVU41
 172 00c0 0126     		movs	r6, #1
 173 00c2 0696     		str	r6, [sp, #24]
1082:Core/Src/main.c ****   GPIO_InitStruct.Pull = GPIO_NOPULL;
ARM GAS  C:\Users\kroko\AppData\Local\Temp\ccpAdhTr.s 			page 23


 174              		.loc 1 1082 3 is_stmt 1 view .LVU42
 175              		.loc 1 1082 24 is_stmt 0 view .LVU43
 176 00c4 0794     		str	r4, [sp, #28]
1083:Core/Src/main.c ****   GPIO_InitStruct.Speed = GPIO_SPEED_FREQ_LOW;
 177              		.loc 1 1083 3 is_stmt 1 view .LVU44
 178              		.loc 1 1083 25 is_stmt 0 view .LVU45
 179 00c6 0894     		str	r4, [sp, #32]
1084:Core/Src/main.c ****   HAL_GPIO_Init(GPIOC, &GPIO_InitStruct);
 180              		.loc 1 1084 3 is_stmt 1 view .LVU46
 181 00c8 05A9     		add	r1, sp, #20
 182 00ca 4846     		mov	r0, r9
 183 00cc FFF7FEFF 		bl	HAL_GPIO_Init
 184              	.LVL5:
1085:Core/Src/main.c **** 
1086:Core/Src/main.c ****   /*Configure GPIO pin : RST_Pin */
1087:Core/Src/main.c ****   GPIO_InitStruct.Pin = RST_Pin;
 185              		.loc 1 1087 3 view .LVU47
 186              		.loc 1 1087 23 is_stmt 0 view .LVU48
 187 00d0 4023     		movs	r3, #64
 188 00d2 0593     		str	r3, [sp, #20]
1088:Core/Src/main.c ****   GPIO_InitStruct.Mode = GPIO_MODE_OUTPUT_PP;
 189              		.loc 1 1088 3 is_stmt 1 view .LVU49
 190              		.loc 1 1088 24 is_stmt 0 view .LVU50
 191 00d4 0696     		str	r6, [sp, #24]
1089:Core/Src/main.c ****   GPIO_InitStruct.Pull = GPIO_NOPULL;
 192              		.loc 1 1089 3 is_stmt 1 view .LVU51
 193              		.loc 1 1089 24 is_stmt 0 view .LVU52
 194 00d6 0794     		str	r4, [sp, #28]
1090:Core/Src/main.c ****   GPIO_InitStruct.Speed = GPIO_SPEED_FREQ_LOW;
 195              		.loc 1 1090 3 is_stmt 1 view .LVU53
 196              		.loc 1 1090 25 is_stmt 0 view .LVU54
 197 00d8 0894     		str	r4, [sp, #32]
1091:Core/Src/main.c ****   HAL_GPIO_Init(RST_GPIO_Port, &GPIO_InitStruct);
 198              		.loc 1 1091 3 is_stmt 1 view .LVU55
 199 00da 05A9     		add	r1, sp, #20
 200 00dc 4046     		mov	r0, r8
 201 00de FFF7FEFF 		bl	HAL_GPIO_Init
 202              	.LVL6:
1092:Core/Src/main.c **** 
1093:Core/Src/main.c ****   /*Configure GPIO pins : DEV1_RST_Pin DEV2_RST_Pin TP_RST_Pin */
1094:Core/Src/main.c ****   GPIO_InitStruct.Pin = DEV1_RST_Pin|DEV2_RST_Pin|TP_RST_Pin;
 203              		.loc 1 1094 3 view .LVU56
 204              		.loc 1 1094 23 is_stmt 0 view .LVU57
 205 00e2 40F20313 		movw	r3, #259
 206 00e6 0593     		str	r3, [sp, #20]
1095:Core/Src/main.c ****   GPIO_InitStruct.Mode = GPIO_MODE_OUTPUT_PP;
 207              		.loc 1 1095 3 is_stmt 1 view .LVU58
 208              		.loc 1 1095 24 is_stmt 0 view .LVU59
 209 00e8 0696     		str	r6, [sp, #24]
1096:Core/Src/main.c ****   GPIO_InitStruct.Pull = GPIO_NOPULL;
 210              		.loc 1 1096 3 is_stmt 1 view .LVU60
 211              		.loc 1 1096 24 is_stmt 0 view .LVU61
 212 00ea 0794     		str	r4, [sp, #28]
1097:Core/Src/main.c ****   GPIO_InitStruct.Speed = GPIO_SPEED_FREQ_LOW;
 213              		.loc 1 1097 3 is_stmt 1 view .LVU62
 214              		.loc 1 1097 25 is_stmt 0 view .LVU63
 215 00ec 0894     		str	r4, [sp, #32]
ARM GAS  C:\Users\kroko\AppData\Local\Temp\ccpAdhTr.s 			page 24


1098:Core/Src/main.c ****   HAL_GPIO_Init(GPIOB, &GPIO_InitStruct);
 216              		.loc 1 1098 3 is_stmt 1 view .LVU64
 217 00ee 05A9     		add	r1, sp, #20
 218 00f0 2846     		mov	r0, r5
 219 00f2 FFF7FEFF 		bl	HAL_GPIO_Init
 220              	.LVL7:
1099:Core/Src/main.c **** 
1100:Core/Src/main.c ****   /*Configure GPIO pin : DEV3_RST_Pin */
1101:Core/Src/main.c ****   GPIO_InitStruct.Pin = DEV3_RST_Pin;
 221              		.loc 1 1101 3 view .LVU65
 222              		.loc 1 1101 23 is_stmt 0 view .LVU66
 223 00f6 0423     		movs	r3, #4
 224 00f8 0593     		str	r3, [sp, #20]
1102:Core/Src/main.c ****   GPIO_InitStruct.Mode = GPIO_MODE_OUTPUT_PP;
 225              		.loc 1 1102 3 is_stmt 1 view .LVU67
 226              		.loc 1 1102 24 is_stmt 0 view .LVU68
 227 00fa 0696     		str	r6, [sp, #24]
1103:Core/Src/main.c ****   GPIO_InitStruct.Pull = GPIO_NOPULL;
 228              		.loc 1 1103 3 is_stmt 1 view .LVU69
 229              		.loc 1 1103 24 is_stmt 0 view .LVU70
 230 00fc 0794     		str	r4, [sp, #28]
1104:Core/Src/main.c ****   GPIO_InitStruct.Speed = GPIO_SPEED_FREQ_LOW;
 231              		.loc 1 1104 3 is_stmt 1 view .LVU71
 232              		.loc 1 1104 25 is_stmt 0 view .LVU72
 233 00fe 0894     		str	r4, [sp, #32]
1105:Core/Src/main.c ****   HAL_GPIO_Init(DEV3_RST_GPIO_Port, &GPIO_InitStruct);
 234              		.loc 1 1105 3 is_stmt 1 view .LVU73
 235 0100 05A9     		add	r1, sp, #20
 236 0102 3846     		mov	r0, r7
 237 0104 FFF7FEFF 		bl	HAL_GPIO_Init
 238              	.LVL8:
1106:Core/Src/main.c **** 
1107:Core/Src/main.c ****   /*Configure GPIO pin : TP_INT_Pin */
1108:Core/Src/main.c ****   GPIO_InitStruct.Pin = TP_INT_Pin;
 239              		.loc 1 1108 3 view .LVU74
 240              		.loc 1 1108 23 is_stmt 0 view .LVU75
 241 0108 4FF40073 		mov	r3, #512
 242 010c 0593     		str	r3, [sp, #20]
1109:Core/Src/main.c ****   GPIO_InitStruct.Mode = GPIO_MODE_IT_RISING_FALLING;
 243              		.loc 1 1109 3 is_stmt 1 view .LVU76
 244              		.loc 1 1109 24 is_stmt 0 view .LVU77
 245 010e 4FF44413 		mov	r3, #3211264
 246 0112 0693     		str	r3, [sp, #24]
1110:Core/Src/main.c ****   GPIO_InitStruct.Pull = GPIO_NOPULL;
 247              		.loc 1 1110 3 is_stmt 1 view .LVU78
 248              		.loc 1 1110 24 is_stmt 0 view .LVU79
 249 0114 0794     		str	r4, [sp, #28]
1111:Core/Src/main.c ****   HAL_GPIO_Init(TP_INT_GPIO_Port, &GPIO_InitStruct);
 250              		.loc 1 1111 3 is_stmt 1 view .LVU80
 251 0116 05A9     		add	r1, sp, #20
 252 0118 2846     		mov	r0, r5
 253 011a FFF7FEFF 		bl	HAL_GPIO_Init
 254              	.LVL9:
1112:Core/Src/main.c **** 
1113:Core/Src/main.c ****   /* EXTI interrupt init*/
1114:Core/Src/main.c ****   HAL_NVIC_SetPriority(EXTI9_5_IRQn, 0, 0);
 255              		.loc 1 1114 3 view .LVU81
ARM GAS  C:\Users\kroko\AppData\Local\Temp\ccpAdhTr.s 			page 25


 256 011e 2246     		mov	r2, r4
 257 0120 2146     		mov	r1, r4
 258 0122 1720     		movs	r0, #23
 259 0124 FFF7FEFF 		bl	HAL_NVIC_SetPriority
 260              	.LVL10:
1115:Core/Src/main.c ****   HAL_NVIC_EnableIRQ(EXTI9_5_IRQn);
 261              		.loc 1 1115 3 view .LVU82
 262 0128 1720     		movs	r0, #23
 263 012a FFF7FEFF 		bl	HAL_NVIC_EnableIRQ
 264              	.LVL11:
1116:Core/Src/main.c **** 
1117:Core/Src/main.c **** /* USER CODE BEGIN MX_GPIO_Init_2 */
1118:Core/Src/main.c **** /* USER CODE END MX_GPIO_Init_2 */
1119:Core/Src/main.c **** }
 265              		.loc 1 1119 1 is_stmt 0 view .LVU83
 266 012e 0BB0     		add	sp, sp, #44
 267              		.cfi_def_cfa_offset 28
 268              		@ sp needed
 269 0130 BDE8F083 		pop	{r4, r5, r6, r7, r8, r9, pc}
 270              	.L4:
 271              		.align	2
 272              	.L3:
 273 0134 00380240 		.word	1073887232
 274 0138 00040240 		.word	1073873920
 275 013c 000C0240 		.word	1073875968
 276 0140 00080240 		.word	1073874944
 277 0144 00000240 		.word	1073872896
 278              		.cfi_endproc
 279              	.LFE150:
 281              		.section	.text.MX_DMA_Init,"ax",%progbits
 282              		.align	1
 283              		.syntax unified
 284              		.thumb
 285              		.thumb_func
 287              	MX_DMA_Init:
 288              	.LFB149:
1000:Core/Src/main.c **** 
 289              		.loc 1 1000 1 is_stmt 1 view -0
 290              		.cfi_startproc
 291              		@ args = 0, pretend = 0, frame = 8
 292              		@ frame_needed = 0, uses_anonymous_args = 0
 293 0000 10B5     		push	{r4, lr}
 294              		.cfi_def_cfa_offset 8
 295              		.cfi_offset 4, -8
 296              		.cfi_offset 14, -4
 297 0002 82B0     		sub	sp, sp, #8
 298              		.cfi_def_cfa_offset 16
1003:Core/Src/main.c ****   __HAL_RCC_DMA1_CLK_ENABLE();
 299              		.loc 1 1003 3 view .LVU85
 300              	.LBB9:
1003:Core/Src/main.c ****   __HAL_RCC_DMA1_CLK_ENABLE();
 301              		.loc 1 1003 3 view .LVU86
 302 0004 0024     		movs	r4, #0
 303 0006 0094     		str	r4, [sp]
1003:Core/Src/main.c ****   __HAL_RCC_DMA1_CLK_ENABLE();
 304              		.loc 1 1003 3 view .LVU87
 305 0008 364B     		ldr	r3, .L7
ARM GAS  C:\Users\kroko\AppData\Local\Temp\ccpAdhTr.s 			page 26


 306 000a 1A6B     		ldr	r2, [r3, #48]
 307 000c 42F48002 		orr	r2, r2, #4194304
 308 0010 1A63     		str	r2, [r3, #48]
1003:Core/Src/main.c ****   __HAL_RCC_DMA1_CLK_ENABLE();
 309              		.loc 1 1003 3 view .LVU88
 310 0012 1A6B     		ldr	r2, [r3, #48]
 311 0014 02F48002 		and	r2, r2, #4194304
 312 0018 0092     		str	r2, [sp]
1003:Core/Src/main.c ****   __HAL_RCC_DMA1_CLK_ENABLE();
 313              		.loc 1 1003 3 view .LVU89
 314 001a 009A     		ldr	r2, [sp]
 315              	.LBE9:
1003:Core/Src/main.c ****   __HAL_RCC_DMA1_CLK_ENABLE();
 316              		.loc 1 1003 3 view .LVU90
1004:Core/Src/main.c **** 
 317              		.loc 1 1004 3 view .LVU91
 318              	.LBB10:
1004:Core/Src/main.c **** 
 319              		.loc 1 1004 3 view .LVU92
 320 001c 0194     		str	r4, [sp, #4]
1004:Core/Src/main.c **** 
 321              		.loc 1 1004 3 view .LVU93
 322 001e 1A6B     		ldr	r2, [r3, #48]
 323 0020 42F40012 		orr	r2, r2, #2097152
 324 0024 1A63     		str	r2, [r3, #48]
1004:Core/Src/main.c **** 
 325              		.loc 1 1004 3 view .LVU94
 326 0026 1B6B     		ldr	r3, [r3, #48]
 327 0028 03F40013 		and	r3, r3, #2097152
 328 002c 0193     		str	r3, [sp, #4]
1004:Core/Src/main.c **** 
 329              		.loc 1 1004 3 view .LVU95
 330 002e 019B     		ldr	r3, [sp, #4]
 331              	.LBE10:
1004:Core/Src/main.c **** 
 332              		.loc 1 1004 3 view .LVU96
1008:Core/Src/main.c ****   HAL_NVIC_EnableIRQ(DMA1_Stream0_IRQn);
 333              		.loc 1 1008 3 view .LVU97
 334 0030 2246     		mov	r2, r4
 335 0032 2146     		mov	r1, r4
 336 0034 0B20     		movs	r0, #11
 337 0036 FFF7FEFF 		bl	HAL_NVIC_SetPriority
 338              	.LVL12:
1009:Core/Src/main.c ****   /* DMA1_Stream1_IRQn interrupt configuration */
 339              		.loc 1 1009 3 view .LVU98
 340 003a 0B20     		movs	r0, #11
 341 003c FFF7FEFF 		bl	HAL_NVIC_EnableIRQ
 342              	.LVL13:
1011:Core/Src/main.c ****   HAL_NVIC_EnableIRQ(DMA1_Stream1_IRQn);
 343              		.loc 1 1011 3 view .LVU99
 344 0040 2246     		mov	r2, r4
 345 0042 2146     		mov	r1, r4
 346 0044 0C20     		movs	r0, #12
 347 0046 FFF7FEFF 		bl	HAL_NVIC_SetPriority
 348              	.LVL14:
1012:Core/Src/main.c ****   /* DMA1_Stream2_IRQn interrupt configuration */
 349              		.loc 1 1012 3 view .LVU100
ARM GAS  C:\Users\kroko\AppData\Local\Temp\ccpAdhTr.s 			page 27


 350 004a 0C20     		movs	r0, #12
 351 004c FFF7FEFF 		bl	HAL_NVIC_EnableIRQ
 352              	.LVL15:
1014:Core/Src/main.c ****   HAL_NVIC_EnableIRQ(DMA1_Stream2_IRQn);
 353              		.loc 1 1014 3 view .LVU101
 354 0050 2246     		mov	r2, r4
 355 0052 2146     		mov	r1, r4
 356 0054 0D20     		movs	r0, #13
 357 0056 FFF7FEFF 		bl	HAL_NVIC_SetPriority
 358              	.LVL16:
1015:Core/Src/main.c ****   /* DMA1_Stream3_IRQn interrupt configuration */
 359              		.loc 1 1015 3 view .LVU102
 360 005a 0D20     		movs	r0, #13
 361 005c FFF7FEFF 		bl	HAL_NVIC_EnableIRQ
 362              	.LVL17:
1017:Core/Src/main.c ****   HAL_NVIC_EnableIRQ(DMA1_Stream3_IRQn);
 363              		.loc 1 1017 3 view .LVU103
 364 0060 2246     		mov	r2, r4
 365 0062 2146     		mov	r1, r4
 366 0064 0E20     		movs	r0, #14
 367 0066 FFF7FEFF 		bl	HAL_NVIC_SetPriority
 368              	.LVL18:
1018:Core/Src/main.c ****   /* DMA1_Stream4_IRQn interrupt configuration */
 369              		.loc 1 1018 3 view .LVU104
 370 006a 0E20     		movs	r0, #14
 371 006c FFF7FEFF 		bl	HAL_NVIC_EnableIRQ
 372              	.LVL19:
1020:Core/Src/main.c ****   HAL_NVIC_EnableIRQ(DMA1_Stream4_IRQn);
 373              		.loc 1 1020 3 view .LVU105
 374 0070 2246     		mov	r2, r4
 375 0072 2146     		mov	r1, r4
 376 0074 0F20     		movs	r0, #15
 377 0076 FFF7FEFF 		bl	HAL_NVIC_SetPriority
 378              	.LVL20:
1021:Core/Src/main.c ****   /* DMA1_Stream5_IRQn interrupt configuration */
 379              		.loc 1 1021 3 view .LVU106
 380 007a 0F20     		movs	r0, #15
 381 007c FFF7FEFF 		bl	HAL_NVIC_EnableIRQ
 382              	.LVL21:
1023:Core/Src/main.c ****   HAL_NVIC_EnableIRQ(DMA1_Stream5_IRQn);
 383              		.loc 1 1023 3 view .LVU107
 384 0080 2246     		mov	r2, r4
 385 0082 2146     		mov	r1, r4
 386 0084 1020     		movs	r0, #16
 387 0086 FFF7FEFF 		bl	HAL_NVIC_SetPriority
 388              	.LVL22:
1024:Core/Src/main.c ****   /* DMA1_Stream6_IRQn interrupt configuration */
 389              		.loc 1 1024 3 view .LVU108
 390 008a 1020     		movs	r0, #16
 391 008c FFF7FEFF 		bl	HAL_NVIC_EnableIRQ
 392              	.LVL23:
1026:Core/Src/main.c ****   HAL_NVIC_EnableIRQ(DMA1_Stream6_IRQn);
 393              		.loc 1 1026 3 view .LVU109
 394 0090 2246     		mov	r2, r4
 395 0092 2146     		mov	r1, r4
 396 0094 1120     		movs	r0, #17
 397 0096 FFF7FEFF 		bl	HAL_NVIC_SetPriority
ARM GAS  C:\Users\kroko\AppData\Local\Temp\ccpAdhTr.s 			page 28


 398              	.LVL24:
1027:Core/Src/main.c ****   /* DMA1_Stream7_IRQn interrupt configuration */
 399              		.loc 1 1027 3 view .LVU110
 400 009a 1120     		movs	r0, #17
 401 009c FFF7FEFF 		bl	HAL_NVIC_EnableIRQ
 402              	.LVL25:
1029:Core/Src/main.c ****   HAL_NVIC_EnableIRQ(DMA1_Stream7_IRQn);
 403              		.loc 1 1029 3 view .LVU111
 404 00a0 2246     		mov	r2, r4
 405 00a2 2146     		mov	r1, r4
 406 00a4 2F20     		movs	r0, #47
 407 00a6 FFF7FEFF 		bl	HAL_NVIC_SetPriority
 408              	.LVL26:
1030:Core/Src/main.c ****   /* DMA2_Stream1_IRQn interrupt configuration */
 409              		.loc 1 1030 3 view .LVU112
 410 00aa 2F20     		movs	r0, #47
 411 00ac FFF7FEFF 		bl	HAL_NVIC_EnableIRQ
 412              	.LVL27:
1032:Core/Src/main.c ****   HAL_NVIC_EnableIRQ(DMA2_Stream1_IRQn);
 413              		.loc 1 1032 3 view .LVU113
 414 00b0 2246     		mov	r2, r4
 415 00b2 2146     		mov	r1, r4
 416 00b4 3920     		movs	r0, #57
 417 00b6 FFF7FEFF 		bl	HAL_NVIC_SetPriority
 418              	.LVL28:
1033:Core/Src/main.c ****   /* DMA2_Stream2_IRQn interrupt configuration */
 419              		.loc 1 1033 3 view .LVU114
 420 00ba 3920     		movs	r0, #57
 421 00bc FFF7FEFF 		bl	HAL_NVIC_EnableIRQ
 422              	.LVL29:
1035:Core/Src/main.c ****   HAL_NVIC_EnableIRQ(DMA2_Stream2_IRQn);
 423              		.loc 1 1035 3 view .LVU115
 424 00c0 2246     		mov	r2, r4
 425 00c2 2146     		mov	r1, r4
 426 00c4 3A20     		movs	r0, #58
 427 00c6 FFF7FEFF 		bl	HAL_NVIC_SetPriority
 428              	.LVL30:
1036:Core/Src/main.c ****   /* DMA2_Stream6_IRQn interrupt configuration */
 429              		.loc 1 1036 3 view .LVU116
 430 00ca 3A20     		movs	r0, #58
 431 00cc FFF7FEFF 		bl	HAL_NVIC_EnableIRQ
 432              	.LVL31:
1038:Core/Src/main.c ****   HAL_NVIC_EnableIRQ(DMA2_Stream6_IRQn);
 433              		.loc 1 1038 3 view .LVU117
 434 00d0 2246     		mov	r2, r4
 435 00d2 2146     		mov	r1, r4
 436 00d4 4520     		movs	r0, #69
 437 00d6 FFF7FEFF 		bl	HAL_NVIC_SetPriority
 438              	.LVL32:
1039:Core/Src/main.c **** 
 439              		.loc 1 1039 3 view .LVU118
 440 00da 4520     		movs	r0, #69
 441 00dc FFF7FEFF 		bl	HAL_NVIC_EnableIRQ
 442              	.LVL33:
1041:Core/Src/main.c **** 
 443              		.loc 1 1041 1 is_stmt 0 view .LVU119
 444 00e0 02B0     		add	sp, sp, #8
ARM GAS  C:\Users\kroko\AppData\Local\Temp\ccpAdhTr.s 			page 29


 445              		.cfi_def_cfa_offset 8
 446              		@ sp needed
 447 00e2 10BD     		pop	{r4, pc}
 448              	.L8:
 449              		.align	2
 450              	.L7:
 451 00e4 00380240 		.word	1073887232
 452              		.cfi_endproc
 453              	.LFE149:
 455              		.section	.text.Set_Alarm,"ax",%progbits
 456              		.align	1
 457              		.global	Set_Alarm
 458              		.syntax unified
 459              		.thumb
 460              		.thumb_func
 462              	Set_Alarm:
 463              	.LVL34:
 464              	.LFB151:
1120:Core/Src/main.c **** 
1121:Core/Src/main.c **** /* USER CODE BEGIN 4 */
1122:Core/Src/main.c **** void Set_Alarm(uint8_t minutes)
1123:Core/Src/main.c **** {   
 465              		.loc 1 1123 1 is_stmt 1 view -0
 466              		.cfi_startproc
 467              		@ args = 0, pretend = 0, frame = 0
 468              		@ frame_needed = 0, uses_anonymous_args = 0
 469              		@ link register save eliminated.
1124:Core/Src/main.c ****   // RTC_DateTypeDef sDate;
1125:Core/Src/main.c ****   // RTC_TimeTypeDef sTime;
1126:Core/Src/main.c ****   // RTC_AlarmTypeDef sAlarm;
1127:Core/Src/main.c ****   // // Get the current RTC time and date
1128:Core/Src/main.c ****   // HAL_RTC_GetTime(&hrtc, &sTime, RTC_FORMAT_BIN);
1129:Core/Src/main.c ****   // HAL_RTC_GetDate(&hrtc, &sDate, RTC_FORMAT_BIN);
1130:Core/Src/main.c **** 
1131:Core/Src/main.c ****   // // Calculate the new alarm time
1132:Core/Src/main.c ****   // uint8_t newMinutes = (sTime.Minutes + minutes) % 60;
1133:Core/Src/main.c ****   // uint8_t minutesOverflow = (sTime.Minutes + minutes) / 60;
1134:Core/Src/main.c **** 
1135:Core/Src/main.c ****   // uint8_t newHours = (sTime.Hours + minutesOverflow) % 24;
1136:Core/Src/main.c ****   // uint8_t hoursOverflow = (sTime.Hours + minutesOverflow) / 24;
1137:Core/Src/main.c **** 
1138:Core/Src/main.c ****   // // Handle day, month, and year transitions
1139:Core/Src/main.c ****   // uint8_t newDay = sDate.Date + hoursOverflow;
1140:Core/Src/main.c ****   // uint8_t newMonth = sDate.Month;
1141:Core/Src/main.c ****   // uint16_t newYear = sDate.Year + 2000; // RTC returns year as offset from 2000
1142:Core/Src/main.c **** 
1143:Core/Src/main.c ****   // // Days in each month (account for leap year in February)
1144:Core/Src/main.c ****   // uint8_t daysInMonth[] = {31, (newYear % 4 == 0 && (newYear % 100 != 0 || newYear % 400 == 0)) 
1145:Core/Src/main.c **** 
1146:Core/Src/main.c ****   // // Adjust day and month
1147:Core/Src/main.c ****   // while (newDay > daysInMonth[newMonth - 1]) {
1148:Core/Src/main.c ****   //     newDay -= daysInMonth[newMonth - 1];
1149:Core/Src/main.c ****   //     newMonth++;
1150:Core/Src/main.c ****   //     if (newMonth > 12) {
1151:Core/Src/main.c ****   //         newMonth = 1;
1152:Core/Src/main.c ****   //         newYear++;
1153:Core/Src/main.c ****   //     }
ARM GAS  C:\Users\kroko\AppData\Local\Temp\ccpAdhTr.s 			page 30


1154:Core/Src/main.c ****   // }
1155:Core/Src/main.c **** 
1156:Core/Src/main.c ****   // // Set up the RTC alarm
1157:Core/Src/main.c ****   // sAlarm.AlarmTime.Hours = newHours;
1158:Core/Src/main.c ****   // sAlarm.AlarmTime.Minutes = newMinutes;
1159:Core/Src/main.c ****   // sAlarm.AlarmTime.Seconds = sTime.Seconds;
1160:Core/Src/main.c ****   // sAlarm.AlarmTime.TimeFormat = sTime.TimeFormat; // 24-hour format
1161:Core/Src/main.c **** 
1162:Core/Src/main.c ****   // sAlarm.AlarmDateWeekDay = newDay;
1163:Core/Src/main.c ****   // sAlarm.AlarmDateWeekDaySel = RTC_ALARMDATEWEEKDAYSEL_DATE; // Use specific date
1164:Core/Src/main.c ****   // sAlarm.AlarmMask = RTC_ALARMMASK_NONE; // Do not mask the date
1165:Core/Src/main.c ****   // sAlarm.Alarm = RTC_ALARM_A;
1166:Core/Src/main.c **** 
1167:Core/Src/main.c ****   // if (HAL_RTC_SetAlarm_IT(&hrtc, &sAlarm, RTC_FORMAT_BIN) != HAL_OK) {
1168:Core/Src/main.c ****   //     Error_Handler();
1169:Core/Src/main.c ****   // }
1170:Core/Src/main.c **** }
 470              		.loc 1 1170 1 view .LVU121
 471 0000 7047     		bx	lr
 472              		.cfi_endproc
 473              	.LFE151:
 475              		.section	.text.Set_RTC,"ax",%progbits
 476              		.align	1
 477              		.global	Set_RTC
 478              		.syntax unified
 479              		.thumb
 480              		.thumb_func
 482              	Set_RTC:
 483              	.LFB152:
1171:Core/Src/main.c **** 
1172:Core/Src/main.c **** void Set_RTC(){
 484              		.loc 1 1172 15 view -0
 485              		.cfi_startproc
 486              		@ args = 0, pretend = 0, frame = 0
 487              		@ frame_needed = 0, uses_anonymous_args = 0
 488              		@ link register save eliminated.
1173:Core/Src/main.c ****   // RTC_DateTypeDef gDate;
1174:Core/Src/main.c ****   // RTC_TimeTypeDef gTime;
1175:Core/Src/main.c ****   // while (1)
1176:Core/Src/main.c ****   // {
1177:Core/Src/main.c ****   //   Set_Time(&gDate, &gTime);
1178:Core/Src/main.c ****   //   // tick(&button);
1179:Core/Src/main.c ****   //   // if(isHold(&button)){return;}
1180:Core/Src/main.c ****   // }
1181:Core/Src/main.c **** }
 489              		.loc 1 1181 1 view .LVU123
 490 0000 7047     		bx	lr
 491              		.cfi_endproc
 492              	.LFE152:
 494              		.global	__aeabi_ddiv
 495              		.section	.text.HAL_UART_RxCpltCallback,"ax",%progbits
 496              		.align	1
 497              		.global	HAL_UART_RxCpltCallback
 498              		.syntax unified
 499              		.thumb
 500              		.thumb_func
 502              	HAL_UART_RxCpltCallback:
ARM GAS  C:\Users\kroko\AppData\Local\Temp\ccpAdhTr.s 			page 31


 503              	.LVL35:
 504              	.LFB153:
1182:Core/Src/main.c **** 
1183:Core/Src/main.c **** void HAL_UART_RxCpltCallback(UART_HandleTypeDef *huart)
1184:Core/Src/main.c **** {
 505              		.loc 1 1184 1 view -0
 506              		.cfi_startproc
 507              		@ args = 0, pretend = 0, frame = 16
 508              		@ frame_needed = 1, uses_anonymous_args = 0
 509              		.loc 1 1184 1 is_stmt 0 view .LVU125
 510 0000 2DE9F047 		push	{r4, r5, r6, r7, r8, r9, r10, lr}
 511              		.cfi_def_cfa_offset 32
 512              		.cfi_offset 4, -32
 513              		.cfi_offset 5, -28
 514              		.cfi_offset 6, -24
 515              		.cfi_offset 7, -20
 516              		.cfi_offset 8, -16
 517              		.cfi_offset 9, -12
 518              		.cfi_offset 10, -8
 519              		.cfi_offset 14, -4
 520 0004 84B0     		sub	sp, sp, #16
 521              		.cfi_def_cfa_offset 48
 522 0006 00AF     		add	r7, sp, #0
 523              		.cfi_def_cfa_register 7
1185:Core/Src/main.c ****   /*
1186:Core/Src/main.c ****   COMMUNICATION PROTOCOL
1187:Core/Src/main.c ****   Master    Slave
1188:Core/Src/main.c ****   T      -> palette(L/T), type(S/T/B), (value), X(value), (symbol) ... LB0X250Y%
1189:Core/Src/main.c ****   G      -> value ... 754
1190:Core/Src/main.c ****   val    -> OK
1191:Core/Src/main.c ****   ON     -> OK
1192:Core/Src/main.c ****   OFF    -> OK
1193:Core/Src/main.c ****   S      -> S(state(0/1)) ... S1
1194:Core/Src/main.c ****   */
1195:Core/Src/main.c ****   //uint8_t rx_buff[10];
1196:Core/Src/main.c ****  //(rx_buff, ""); 
1197:Core/Src/main.c ****   // HAL_UART_Receive_DMA(deviceList[dev_num].uart, rx_buff, 9);
1198:Core/Src/main.c ****   // if(trySIMInit){
1199:Core/Src/main.c ****   //     char rx_buff[10];
1200:Core/Src/main.c ****   // HAL_UART_Receive_DMA(deviceList[dev_num].uart, (uint8_t*)&rx_buff, 10);
1201:Core/Src/main.c ****   //   return;
1202:Core/Src/main.c ****   // }
1203:Core/Src/main.c **** 
1204:Core/Src/main.c ****   /* SIM COMMUNICATION */
1205:Core/Src/main.c ****   if (huart == SIM800_UART){
 524              		.loc 1 1205 3 is_stmt 1 view .LVU126
 525              		.loc 1 1205 6 is_stmt 0 view .LVU127
 526 0008 7F4B     		ldr	r3, .L43
 527 000a 8342     		cmp	r3, r0
 528 000c 1BD0     		beq	.L36
1206:Core/Src/main.c ****     SIMrxBuffer[RX_BUFFER_SIZE - 1] = '\0'; // Null-terminate the buffer for string operations
1207:Core/Src/main.c ****         // Restart the DMA reception
1208:Core/Src/main.c ****     HAL_UART_Receive_DMA(&huart6, SIMrxBuffer, RX_BUFFER_SIZE);
1209:Core/Src/main.c ****     return;
1210:Core/Src/main.c ****   }
1211:Core/Src/main.c **** 
1212:Core/Src/main.c **** 
ARM GAS  C:\Users\kroko\AppData\Local\Temp\ccpAdhTr.s 			page 32


1213:Core/Src/main.c ****   char rx_buff[10];
 529              		.loc 1 1213 3 is_stmt 1 view .LVU128
1214:Core/Src/main.c ****   HAL_UART_Receive_DMA(deviceList[dev_num].uart, (uint8_t*)&rx_buff, 10);
 530              		.loc 1 1214 3 view .LVU129
 531 000e 7F4B     		ldr	r3, .L43+4
 532 0010 1B78     		ldrb	r3, [r3]	@ zero_extendqisi2
 533 0012 03EBC303 		add	r3, r3, r3, lsl #3
 534 0016 0A22     		movs	r2, #10
 535 0018 391D     		adds	r1, r7, #4
 536 001a 7D48     		ldr	r0, .L43+8
 537              	.LVL36:
 538              		.loc 1 1214 3 is_stmt 0 view .LVU130
 539 001c 50F83300 		ldr	r0, [r0, r3, lsl #3]
 540 0020 FFF7FEFF 		bl	HAL_UART_Receive_DMA
 541              	.LVL37:
1215:Core/Src/main.c **** 
1216:Core/Src/main.c **** 
1217:Core/Src/main.c ****     // NEW CODE START
1218:Core/Src/main.c ****     // IF FIRST LETTER IS L OR T
1219:Core/Src/main.c ****   if(rx_buff[0] == 76 || rx_buff[0] == 84){
 542              		.loc 1 1219 3 is_stmt 1 view .LVU131
 543              		.loc 1 1219 13 is_stmt 0 view .LVU132
 544 0024 3B79     		ldrb	r3, [r7, #4]	@ zero_extendqisi2
 545              		.loc 1 1219 5 view .LVU133
 546 0026 4C2B     		cmp	r3, #76
 547 0028 17D0     		beq	.L14
 548              		.loc 1 1219 23 discriminator 1 view .LVU134
 549 002a 542B     		cmp	r3, #84
 550 002c 15D0     		beq	.L14
1220:Core/Src/main.c ****     // IF L
1221:Core/Src/main.c ****     if (rx_buff[0] == 76){
1222:Core/Src/main.c ****       deviceList[dev_num].paletteType = LIGHT_PALETTE;
1223:Core/Src/main.c ****     }else{
1224:Core/Src/main.c ****       deviceList[dev_num].paletteType = TEMP_PALETTE;
1225:Core/Src/main.c ****     }
1226:Core/Src/main.c ****     // ENDIF
1227:Core/Src/main.c **** 
1228:Core/Src/main.c ****     // DEVICE MODE
1229:Core/Src/main.c ****     switch (rx_buff[1])
1230:Core/Src/main.c ****     {
1231:Core/Src/main.c ****     case 83:
1232:Core/Src/main.c ****       deviceList[dev_num].deviceMode = TYPE_SET_ONLY;
1233:Core/Src/main.c ****       break;
1234:Core/Src/main.c ****     case 84:
1235:Core/Src/main.c ****       deviceList[dev_num].deviceMode = TYPE_TEL_ONLY;
1236:Core/Src/main.c ****       break;
1237:Core/Src/main.c ****     case 66:
1238:Core/Src/main.c ****       deviceList[dev_num].deviceMode = TYPE_SET_TEL;
1239:Core/Src/main.c ****       break;
1240:Core/Src/main.c ****     }
1241:Core/Src/main.c ****     // ENDIF
1242:Core/Src/main.c **** 
1243:Core/Src/main.c ****     //GET MIN, MAX VALUE & SYMBOL START
1244:Core/Src/main.c ****     uint8_t minValueEndIndex = 0;
1245:Core/Src/main.c ****     uint8_t maxValueEndIndex = 0;
1246:Core/Src/main.c **** 
1247:Core/Src/main.c ****     for (int i = 2; i<10; i++){
ARM GAS  C:\Users\kroko\AppData\Local\Temp\ccpAdhTr.s 			page 33


1248:Core/Src/main.c ****       if(rx_buff[i] == 88){
1249:Core/Src/main.c ****         minValueEndIndex = i-1;
1250:Core/Src/main.c ****       }
1251:Core/Src/main.c ****       if(rx_buff[i] == 89){
1252:Core/Src/main.c ****         maxValueEndIndex = i-1;
1253:Core/Src/main.c ****         break;
1254:Core/Src/main.c ****       }
1255:Core/Src/main.c ****     }
1256:Core/Src/main.c **** 
1257:Core/Src/main.c ****     char minValueArr[minValueEndIndex-1];
1258:Core/Src/main.c ****     char maxValueArr[maxValueEndIndex-minValueEndIndex-1];
1259:Core/Src/main.c **** 
1260:Core/Src/main.c ****     memcpy(minValueArr, &rx_buff[2], (minValueEndIndex-1) * sizeof(char));
1261:Core/Src/main.c **** 
1262:Core/Src/main.c ****     memcpy(maxValueArr, &rx_buff[minValueEndIndex+2], (maxValueEndIndex-minValueEndIndex) * sizeof(
1263:Core/Src/main.c **** 
1264:Core/Src/main.c ****     deviceList[dev_num].minValue = atof(minValueArr);
1265:Core/Src/main.c ****     deviceList[dev_num].maxValue = atof(maxValueArr);    
1266:Core/Src/main.c **** 
1267:Core/Src/main.c ****     deviceList[dev_num].symbol = rx_buff[maxValueEndIndex+2];
1268:Core/Src/main.c **** 
1269:Core/Src/main.c ****     deviceList[dev_num].tx_buff[0] = 71;
1270:Core/Src/main.c ****     // GET MIN, MAX VALUE & SYMBOL END
1271:Core/Src/main.c ****     if(state == STATE_INIT){
1272:Core/Src/main.c ****       deviceList[dev_num].initState = DEV_STATE_IN;
1273:Core/Src/main.c ****       allDeviceIsUnIn = false;
1274:Core/Src/main.c ****       act_dev_cnt++;
1275:Core/Src/main.c ****       for (uint8_t i = 0; i< 4; i++){
1276:Core/Src/main.c ****         if(act_dev_list[i] == -1){
1277:Core/Src/main.c ****           act_dev_list[i] = dev_num;
1278:Core/Src/main.c ****           break;
1279:Core/Src/main.c ****         }
1280:Core/Src/main.c ****       }
1281:Core/Src/main.c ****       dev_num++;
1282:Core/Src/main.c ****     }
1283:Core/Src/main.c ****   }
1284:Core/Src/main.c ****   // else if (rx_buff[0] == 83){
1285:Core/Src/main.c ****   //   if(atoi(rx_buff[1]) == 1){
1286:Core/Src/main.c ****   //     deviceList[dev_num].isDevOn = 1;
1287:Core/Src/main.c ****   //   }else{
1288:Core/Src/main.c ****   //     deviceList[dev_num].isDevOn = 0;
1289:Core/Src/main.c ****   //   }
1290:Core/Src/main.c ****   // }
1291:Core/Src/main.c ****   else if(rx_buff[0] == 79){
 551              		.loc 1 1291 8 is_stmt 1 view .LVU135
 552              		.loc 1 1291 10 is_stmt 0 view .LVU136
 553 002e 4F2B     		cmp	r3, #79
 554 0030 00F0CB80 		beq	.L37
1292:Core/Src/main.c ****     transmitMode = TRANSMIT_MODE_GET;
1293:Core/Src/main.c ****   }else{// ISSUE START
1294:Core/Src/main.c ****     if(!isDevPolledFirstTime){
 555              		.loc 1 1294 5 is_stmt 1 view .LVU137
 556              		.loc 1 1294 8 is_stmt 0 view .LVU138
 557 0034 774B     		ldr	r3, .L43+12
 558 0036 1B78     		ldrb	r3, [r3]	@ zero_extendqisi2
 559              		.loc 1 1294 7 view .LVU139
 560 0038 002B     		cmp	r3, #0
ARM GAS  C:\Users\kroko\AppData\Local\Temp\ccpAdhTr.s 			page 34


 561 003a 00F0CA80 		beq	.L38
1295:Core/Src/main.c ****       deviceList[dev_num].currentValue = atof(rx_buff);
1296:Core/Src/main.c ****       deviceList[dev_num].currentValue /= 10;
1297:Core/Src/main.c ****     }else{
1298:Core/Src/main.c ****       isDevPolledFirstTime = false;
 562              		.loc 1 1298 7 is_stmt 1 view .LVU140
 563              		.loc 1 1298 28 is_stmt 0 view .LVU141
 564 003e 754B     		ldr	r3, .L43+12
 565 0040 0022     		movs	r2, #0
 566 0042 1A70     		strb	r2, [r3]
 567 0044 BDE0     		b	.L11
 568              	.LVL38:
 569              	.L36:
1206:Core/Src/main.c ****         // Restart the DMA reception
 570              		.loc 1 1206 5 is_stmt 1 view .LVU142
1206:Core/Src/main.c ****         // Restart the DMA reception
 571              		.loc 1 1206 37 is_stmt 0 view .LVU143
 572 0046 7449     		ldr	r1, .L43+16
 573 0048 0023     		movs	r3, #0
 574 004a 81F8FF31 		strb	r3, [r1, #511]
1208:Core/Src/main.c ****     return;
 575              		.loc 1 1208 5 is_stmt 1 view .LVU144
 576 004e 4FF40072 		mov	r2, #512
 577 0052 6D48     		ldr	r0, .L43
 578              	.LVL39:
1208:Core/Src/main.c ****     return;
 579              		.loc 1 1208 5 is_stmt 0 view .LVU145
 580 0054 FFF7FEFF 		bl	HAL_UART_Receive_DMA
 581              	.LVL40:
1209:Core/Src/main.c ****   }
 582              		.loc 1 1209 5 is_stmt 1 view .LVU146
 583 0058 B3E0     		b	.L11
 584              	.L14:
 585              	.LBB11:
1221:Core/Src/main.c ****       deviceList[dev_num].paletteType = LIGHT_PALETTE;
 586              		.loc 1 1221 5 view .LVU147
1221:Core/Src/main.c ****       deviceList[dev_num].paletteType = LIGHT_PALETTE;
 587              		.loc 1 1221 8 is_stmt 0 view .LVU148
 588 005a 4C2B     		cmp	r3, #76
 589 005c 13D0     		beq	.L39
1224:Core/Src/main.c ****     }
 590              		.loc 1 1224 7 is_stmt 1 view .LVU149
1224:Core/Src/main.c ****     }
 591              		.loc 1 1224 26 is_stmt 0 view .LVU150
 592 005e 6B4B     		ldr	r3, .L43+4
 593 0060 1B78     		ldrb	r3, [r3]	@ zero_extendqisi2
1224:Core/Src/main.c ****     }
 594              		.loc 1 1224 39 view .LVU151
 595 0062 03EBC303 		add	r3, r3, r3, lsl #3
 596 0066 6A4A     		ldr	r2, .L43+8
 597 0068 02EBC303 		add	r3, r2, r3, lsl #3
 598 006c 0022     		movs	r2, #0
 599 006e 83F83220 		strb	r2, [r3, #50]
 600              	.L17:
1229:Core/Src/main.c ****     {
 601              		.loc 1 1229 5 is_stmt 1 view .LVU152
1229:Core/Src/main.c ****     {
ARM GAS  C:\Users\kroko\AppData\Local\Temp\ccpAdhTr.s 			page 35


 602              		.loc 1 1229 20 is_stmt 0 view .LVU153
 603 0072 7B79     		ldrb	r3, [r7, #5]	@ zero_extendqisi2
1229:Core/Src/main.c ****     {
 604              		.loc 1 1229 5 view .LVU154
 605 0074 532B     		cmp	r3, #83
 606 0076 11D0     		beq	.L18
 607 0078 542B     		cmp	r3, #84
 608 007a 19D0     		beq	.L19
 609 007c 422B     		cmp	r3, #66
 610 007e 21D0     		beq	.L20
 611              	.L21:
1244:Core/Src/main.c ****     uint8_t maxValueEndIndex = 0;
 612              		.loc 1 1244 5 is_stmt 1 view .LVU155
 613              	.LVL41:
1245:Core/Src/main.c **** 
 614              		.loc 1 1245 5 view .LVU156
1247:Core/Src/main.c ****       if(rx_buff[i] == 88){
 615              		.loc 1 1247 5 view .LVU157
 616              	.LBB12:
1247:Core/Src/main.c ****       if(rx_buff[i] == 88){
 617              		.loc 1 1247 10 view .LVU158
1247:Core/Src/main.c ****       if(rx_buff[i] == 88){
 618              		.loc 1 1247 14 is_stmt 0 view .LVU159
 619 0080 0223     		movs	r3, #2
 620              	.LBE12:
1244:Core/Src/main.c ****     uint8_t maxValueEndIndex = 0;
 621              		.loc 1 1244 13 view .LVU160
 622 0082 0025     		movs	r5, #0
 623              	.LBB13:
1247:Core/Src/main.c ****       if(rx_buff[i] == 88){
 624              		.loc 1 1247 5 view .LVU161
 625 0084 2BE0     		b	.L22
 626              	.LVL42:
 627              	.L39:
1247:Core/Src/main.c ****       if(rx_buff[i] == 88){
 628              		.loc 1 1247 5 view .LVU162
 629              	.LBE13:
1222:Core/Src/main.c ****     }else{
 630              		.loc 1 1222 7 is_stmt 1 view .LVU163
1222:Core/Src/main.c ****     }else{
 631              		.loc 1 1222 26 is_stmt 0 view .LVU164
 632 0086 614B     		ldr	r3, .L43+4
 633 0088 1B78     		ldrb	r3, [r3]	@ zero_extendqisi2
1222:Core/Src/main.c ****     }else{
 634              		.loc 1 1222 39 view .LVU165
 635 008a 03EBC303 		add	r3, r3, r3, lsl #3
 636 008e 604A     		ldr	r2, .L43+8
 637 0090 02EBC303 		add	r3, r2, r3, lsl #3
 638 0094 0122     		movs	r2, #1
 639 0096 83F83220 		strb	r2, [r3, #50]
 640 009a EAE7     		b	.L17
 641              	.L18:
1232:Core/Src/main.c ****       break;
 642              		.loc 1 1232 7 is_stmt 1 view .LVU166
1232:Core/Src/main.c ****       break;
 643              		.loc 1 1232 26 is_stmt 0 view .LVU167
 644 009c 5B4B     		ldr	r3, .L43+4
ARM GAS  C:\Users\kroko\AppData\Local\Temp\ccpAdhTr.s 			page 36


 645 009e 1B78     		ldrb	r3, [r3]	@ zero_extendqisi2
1232:Core/Src/main.c ****       break;
 646              		.loc 1 1232 38 view .LVU168
 647 00a0 03EBC303 		add	r3, r3, r3, lsl #3
 648 00a4 5A4A     		ldr	r2, .L43+8
 649 00a6 02EBC303 		add	r3, r2, r3, lsl #3
 650 00aa 0122     		movs	r2, #1
 651 00ac 5A71     		strb	r2, [r3, #5]
1233:Core/Src/main.c ****     case 84:
 652              		.loc 1 1233 7 is_stmt 1 view .LVU169
 653 00ae E7E7     		b	.L21
 654              	.L19:
1235:Core/Src/main.c ****       break;
 655              		.loc 1 1235 7 view .LVU170
1235:Core/Src/main.c ****       break;
 656              		.loc 1 1235 26 is_stmt 0 view .LVU171
 657 00b0 564B     		ldr	r3, .L43+4
 658 00b2 1B78     		ldrb	r3, [r3]	@ zero_extendqisi2
1235:Core/Src/main.c ****       break;
 659              		.loc 1 1235 38 view .LVU172
 660 00b4 03EBC303 		add	r3, r3, r3, lsl #3
 661 00b8 554A     		ldr	r2, .L43+8
 662 00ba 02EBC303 		add	r3, r2, r3, lsl #3
 663 00be 0222     		movs	r2, #2
 664 00c0 5A71     		strb	r2, [r3, #5]
1236:Core/Src/main.c ****     case 66:
 665              		.loc 1 1236 7 is_stmt 1 view .LVU173
 666 00c2 DDE7     		b	.L21
 667              	.L20:
1238:Core/Src/main.c ****       break;
 668              		.loc 1 1238 7 view .LVU174
1238:Core/Src/main.c ****       break;
 669              		.loc 1 1238 26 is_stmt 0 view .LVU175
 670 00c4 514B     		ldr	r3, .L43+4
 671 00c6 1B78     		ldrb	r3, [r3]	@ zero_extendqisi2
1238:Core/Src/main.c ****       break;
 672              		.loc 1 1238 38 view .LVU176
 673 00c8 03EBC303 		add	r3, r3, r3, lsl #3
 674 00cc 504A     		ldr	r2, .L43+8
 675 00ce 02EBC303 		add	r3, r2, r3, lsl #3
 676 00d2 0022     		movs	r2, #0
 677 00d4 5A71     		strb	r2, [r3, #5]
1239:Core/Src/main.c ****     }
 678              		.loc 1 1239 7 is_stmt 1 view .LVU177
 679 00d6 D3E7     		b	.L21
 680              	.LVL43:
 681              	.L23:
 682              	.LBB14:
1251:Core/Src/main.c ****         maxValueEndIndex = i-1;
 683              		.loc 1 1251 7 view .LVU178
1251:Core/Src/main.c ****         maxValueEndIndex = i-1;
 684              		.loc 1 1251 9 is_stmt 0 view .LVU179
 685 00d8 592A     		cmp	r2, #89
 686 00da 0DD0     		beq	.L40
1247:Core/Src/main.c ****       if(rx_buff[i] == 88){
 687              		.loc 1 1247 28 is_stmt 1 discriminator 2 view .LVU180
 688 00dc 0133     		adds	r3, r3, #1
ARM GAS  C:\Users\kroko\AppData\Local\Temp\ccpAdhTr.s 			page 37


 689              	.LVL44:
 690              	.L22:
1247:Core/Src/main.c ****       if(rx_buff[i] == 88){
 691              		.loc 1 1247 22 discriminator 1 view .LVU181
 692 00de 092B     		cmp	r3, #9
 693 00e0 0EDC     		bgt	.L41
1248:Core/Src/main.c ****         minValueEndIndex = i-1;
 694              		.loc 1 1248 7 view .LVU182
1248:Core/Src/main.c ****         minValueEndIndex = i-1;
 695              		.loc 1 1248 17 is_stmt 0 view .LVU183
 696 00e2 03F11002 		add	r2, r3, #16
 697 00e6 3A44     		add	r2, r2, r7
 698 00e8 12F80C2C 		ldrb	r2, [r2, #-12]	@ zero_extendqisi2
1248:Core/Src/main.c ****         minValueEndIndex = i-1;
 699              		.loc 1 1248 9 view .LVU184
 700 00ec 582A     		cmp	r2, #88
 701 00ee F3D1     		bne	.L23
1249:Core/Src/main.c ****       }
 702              		.loc 1 1249 9 is_stmt 1 view .LVU185
1249:Core/Src/main.c ****       }
 703              		.loc 1 1249 29 is_stmt 0 view .LVU186
 704 00f0 DDB2     		uxtb	r5, r3
 705              	.LVL45:
1249:Core/Src/main.c ****       }
 706              		.loc 1 1249 26 view .LVU187
 707 00f2 013D     		subs	r5, r5, #1
 708 00f4 EDB2     		uxtb	r5, r5
 709              	.LVL46:
1249:Core/Src/main.c ****       }
 710              		.loc 1 1249 26 view .LVU188
 711 00f6 EFE7     		b	.L23
 712              	.L40:
1252:Core/Src/main.c ****         break;
 713              		.loc 1 1252 9 is_stmt 1 view .LVU189
1252:Core/Src/main.c ****         break;
 714              		.loc 1 1252 29 is_stmt 0 view .LVU190
 715 00f8 DCB2     		uxtb	r4, r3
1252:Core/Src/main.c ****         break;
 716              		.loc 1 1252 26 view .LVU191
 717 00fa 013C     		subs	r4, r4, #1
 718 00fc E4B2     		uxtb	r4, r4
 719              	.LVL47:
1253:Core/Src/main.c ****       }
 720              		.loc 1 1253 9 is_stmt 1 view .LVU192
 721 00fe 00E0     		b	.L25
 722              	.LVL48:
 723              	.L41:
1253:Core/Src/main.c ****       }
 724              		.loc 1 1253 9 is_stmt 0 view .LVU193
 725              	.LBE14:
1245:Core/Src/main.c **** 
 726              		.loc 1 1245 13 view .LVU194
 727 0100 0024     		movs	r4, #0
 728              	.LVL49:
 729              	.L25:
1257:Core/Src/main.c ****     char maxValueArr[maxValueEndIndex-minValueEndIndex-1];
 730              		.loc 1 1257 5 is_stmt 1 view .LVU195
ARM GAS  C:\Users\kroko\AppData\Local\Temp\ccpAdhTr.s 			page 38


 731 0102 6E46     		mov	r6, sp
 732              	.LVL50:
1257:Core/Src/main.c ****     char maxValueArr[maxValueEndIndex-minValueEndIndex-1];
 733              		.loc 1 1257 10 is_stmt 0 discriminator 1 view .LVU196
 734 0104 AB1D     		adds	r3, r5, #6
 735              	.LVL51:
1257:Core/Src/main.c ****     char maxValueArr[maxValueEndIndex-minValueEndIndex-1];
 736              		.loc 1 1257 10 discriminator 1 view .LVU197
 737 0106 23F00703 		bic	r3, r3, #7
 738 010a ADEB030D 		sub	sp, sp, r3
 739 010e EA46     		mov	r10, sp
 740              	.LVL52:
1258:Core/Src/main.c **** 
 741              		.loc 1 1258 5 is_stmt 1 view .LVU198
1258:Core/Src/main.c **** 
 742              		.loc 1 1258 38 is_stmt 0 view .LVU199
 743 0110 A4EB0508 		sub	r8, r4, r5
 744              	.LVL53:
1258:Core/Src/main.c **** 
 745              		.loc 1 1258 10 view .LVU200
 746 0114 08F10603 		add	r3, r8, #6
 747 0118 23F00703 		bic	r3, r3, #7
 748 011c ADEB030D 		sub	sp, sp, r3
 749              	.LVL54:
1260:Core/Src/main.c **** 
 750              		.loc 1 1260 5 is_stmt 1 view .LVU201
 751 0120 6A1E     		subs	r2, r5, #1
 752 0122 B91D     		adds	r1, r7, #6
 753 0124 5046     		mov	r0, r10
 754 0126 FFF7FEFF 		bl	memcpy
 755              	.LVL55:
1262:Core/Src/main.c **** 
 756              		.loc 1 1262 5 view .LVU202
1262:Core/Src/main.c **** 
 757              		.loc 1 1262 50 is_stmt 0 view .LVU203
 758 012a A91C     		adds	r1, r5, #2
1262:Core/Src/main.c **** 
 759              		.loc 1 1262 5 view .LVU204
 760 012c 4246     		mov	r2, r8
 761 012e 3B1D     		adds	r3, r7, #4
 762 0130 1944     		add	r1, r1, r3
 763 0132 6846     		mov	r0, sp
 764 0134 FFF7FEFF 		bl	memcpy
 765              	.LVL56:
1264:Core/Src/main.c ****     deviceList[dev_num].maxValue = atof(maxValueArr);    
 766              		.loc 1 1264 5 is_stmt 1 view .LVU205
1264:Core/Src/main.c ****     deviceList[dev_num].maxValue = atof(maxValueArr);    
 767              		.loc 1 1264 24 is_stmt 0 view .LVU206
 768 0138 DFF8D090 		ldr	r9, .L43+4
 769 013c 99F80080 		ldrb	r8, [r9]	@ zero_extendqisi2
 770              	.LVL57:
1264:Core/Src/main.c ****     deviceList[dev_num].maxValue = atof(maxValueArr);    
 771              		.loc 1 1264 36 view .LVU207
 772 0140 5046     		mov	r0, r10
 773 0142 FFF7FEFF 		bl	atof
 774              	.LVL58:
1264:Core/Src/main.c ****     deviceList[dev_num].maxValue = atof(maxValueArr);    
ARM GAS  C:\Users\kroko\AppData\Local\Temp\ccpAdhTr.s 			page 39


 775              		.loc 1 1264 34 discriminator 1 view .LVU208
 776 0146 324D     		ldr	r5, .L43+8
 777              	.LVL59:
1264:Core/Src/main.c ****     deviceList[dev_num].maxValue = atof(maxValueArr);    
 778              		.loc 1 1264 34 discriminator 1 view .LVU209
 779 0148 08EBC808 		add	r8, r8, r8, lsl #3
 780 014c 05EBC808 		add	r8, r5, r8, lsl #3
 781 0150 88ED080B 		vstr.64	d0, [r8, #32]
1265:Core/Src/main.c **** 
 782              		.loc 1 1265 5 is_stmt 1 view .LVU210
1265:Core/Src/main.c **** 
 783              		.loc 1 1265 24 is_stmt 0 view .LVU211
 784 0154 99F80080 		ldrb	r8, [r9]	@ zero_extendqisi2
1265:Core/Src/main.c **** 
 785              		.loc 1 1265 36 view .LVU212
 786 0158 6846     		mov	r0, sp
 787 015a FFF7FEFF 		bl	atof
 788              	.LVL60:
1265:Core/Src/main.c **** 
 789              		.loc 1 1265 34 discriminator 1 view .LVU213
 790 015e 08EBC808 		add	r8, r8, r8, lsl #3
 791 0162 05EBC808 		add	r8, r5, r8, lsl #3
 792 0166 88ED0A0B 		vstr.64	d0, [r8, #40]
1267:Core/Src/main.c **** 
 793              		.loc 1 1267 5 is_stmt 1 view .LVU214
1267:Core/Src/main.c **** 
 794              		.loc 1 1267 24 is_stmt 0 view .LVU215
 795 016a 99F80010 		ldrb	r1, [r9]	@ zero_extendqisi2
1267:Core/Src/main.c **** 
 796              		.loc 1 1267 41 view .LVU216
 797 016e 04F11203 		add	r3, r4, #18
 798 0172 DC19     		adds	r4, r3, r7
 799              	.LVL61:
1267:Core/Src/main.c **** 
 800              		.loc 1 1267 41 view .LVU217
 801 0174 14F80C3C 		ldrb	r3, [r4, #-12]	@ zero_extendqisi2
 802              	.LVL62:
1267:Core/Src/main.c **** 
 803              		.loc 1 1267 32 view .LVU218
 804 0178 01EBC102 		add	r2, r1, r1, lsl #3
 805 017c 05EBC205 		add	r5, r5, r2, lsl #3
 806 0180 85F84730 		strb	r3, [r5, #71]
1269:Core/Src/main.c ****     // GET MIN, MAX VALUE & SYMBOL END
 807              		.loc 1 1269 5 is_stmt 1 view .LVU219
1269:Core/Src/main.c ****     // GET MIN, MAX VALUE & SYMBOL END
 808              		.loc 1 1269 36 is_stmt 0 view .LVU220
 809 0184 4723     		movs	r3, #71
 810 0186 85F83D30 		strb	r3, [r5, #61]
1271:Core/Src/main.c ****       deviceList[dev_num].initState = DEV_STATE_IN;
 811              		.loc 1 1271 5 is_stmt 1 view .LVU221
1271:Core/Src/main.c ****       deviceList[dev_num].initState = DEV_STATE_IN;
 812              		.loc 1 1271 14 is_stmt 0 view .LVU222
 813 018a 244B     		ldr	r3, .L43+20
 814 018c 1B78     		ldrb	r3, [r3]	@ zero_extendqisi2
1271:Core/Src/main.c ****       deviceList[dev_num].initState = DEV_STATE_IN;
 815              		.loc 1 1271 7 view .LVU223
 816 018e BBB9     		cbnz	r3, .L27
ARM GAS  C:\Users\kroko\AppData\Local\Temp\ccpAdhTr.s 			page 40


1272:Core/Src/main.c ****       allDeviceIsUnIn = false;
 817              		.loc 1 1272 7 is_stmt 1 view .LVU224
1272:Core/Src/main.c ****       allDeviceIsUnIn = false;
 818              		.loc 1 1272 37 is_stmt 0 view .LVU225
 819 0190 0120     		movs	r0, #1
 820 0192 2871     		strb	r0, [r5, #4]
1273:Core/Src/main.c ****       act_dev_cnt++;
 821              		.loc 1 1273 7 is_stmt 1 view .LVU226
1273:Core/Src/main.c ****       act_dev_cnt++;
 822              		.loc 1 1273 23 is_stmt 0 view .LVU227
 823 0194 224A     		ldr	r2, .L43+24
 824 0196 0020     		movs	r0, #0
 825 0198 1070     		strb	r0, [r2]
1274:Core/Src/main.c ****       for (uint8_t i = 0; i< 4; i++){
 826              		.loc 1 1274 7 is_stmt 1 view .LVU228
1274:Core/Src/main.c ****       for (uint8_t i = 0; i< 4; i++){
 827              		.loc 1 1274 18 is_stmt 0 view .LVU229
 828 019a 2248     		ldr	r0, .L43+28
 829 019c 0278     		ldrb	r2, [r0]	@ zero_extendqisi2
 830 019e 0132     		adds	r2, r2, #1
 831 01a0 0270     		strb	r2, [r0]
1275:Core/Src/main.c ****         if(act_dev_list[i] == -1){
 832              		.loc 1 1275 7 is_stmt 1 view .LVU230
 833              	.LBB15:
1275:Core/Src/main.c ****         if(act_dev_list[i] == -1){
 834              		.loc 1 1275 12 view .LVU231
 835              	.LVL63:
 836              	.L28:
1275:Core/Src/main.c ****         if(act_dev_list[i] == -1){
 837              		.loc 1 1275 28 discriminator 1 view .LVU232
 838 01a2 032B     		cmp	r3, #3
 839 01a4 09D8     		bhi	.L30
1276:Core/Src/main.c ****           act_dev_list[i] = dev_num;
 840              		.loc 1 1276 9 view .LVU233
1276:Core/Src/main.c ****           act_dev_list[i] = dev_num;
 841              		.loc 1 1276 24 is_stmt 0 view .LVU234
 842 01a6 204A     		ldr	r2, .L43+32
 843 01a8 D256     		ldrsb	r2, [r2, r3]
1276:Core/Src/main.c ****           act_dev_list[i] = dev_num;
 844              		.loc 1 1276 11 view .LVU235
 845 01aa B2F1FF3F 		cmp	r2, #-1
 846 01ae 02D0     		beq	.L42
1275:Core/Src/main.c ****         if(act_dev_list[i] == -1){
 847              		.loc 1 1275 34 is_stmt 1 discriminator 2 view .LVU236
 848 01b0 0133     		adds	r3, r3, #1
 849              	.LVL64:
1275:Core/Src/main.c ****         if(act_dev_list[i] == -1){
 850              		.loc 1 1275 34 is_stmt 0 discriminator 2 view .LVU237
 851 01b2 DBB2     		uxtb	r3, r3
 852              	.LVL65:
1275:Core/Src/main.c ****         if(act_dev_list[i] == -1){
 853              		.loc 1 1275 34 discriminator 2 view .LVU238
 854 01b4 F5E7     		b	.L28
 855              	.L42:
1277:Core/Src/main.c ****           break;
 856              		.loc 1 1277 11 is_stmt 1 view .LVU239
1277:Core/Src/main.c ****           break;
ARM GAS  C:\Users\kroko\AppData\Local\Temp\ccpAdhTr.s 			page 41


 857              		.loc 1 1277 27 is_stmt 0 view .LVU240
 858 01b6 1C4A     		ldr	r2, .L43+32
 859 01b8 D154     		strb	r1, [r2, r3]
1278:Core/Src/main.c ****         }
 860              		.loc 1 1278 11 is_stmt 1 view .LVU241
 861              	.L30:
 862              	.LBE15:
1281:Core/Src/main.c ****     }
 863              		.loc 1 1281 7 view .LVU242
1281:Core/Src/main.c ****     }
 864              		.loc 1 1281 14 is_stmt 0 view .LVU243
 865 01ba 4B1C     		adds	r3, r1, #1
 866              	.LVL66:
1281:Core/Src/main.c ****     }
 867              		.loc 1 1281 14 view .LVU244
 868 01bc 134A     		ldr	r2, .L43+4
 869 01be 1370     		strb	r3, [r2]
 870              	.LVL67:
 871              	.L27:
1281:Core/Src/main.c ****     }
 872              		.loc 1 1281 14 view .LVU245
 873 01c0 B546     		mov	sp, r6
 874              	.LVL68:
 875              	.L11:
1281:Core/Src/main.c ****     }
 876              		.loc 1 1281 14 view .LVU246
 877              	.LBE11:
1299:Core/Src/main.c ****     }
1300:Core/Src/main.c ****   }// ISSUE END
1301:Core/Src/main.c ****   // NEW CODE END
1302:Core/Src/main.c **** }
 878              		.loc 1 1302 1 view .LVU247
 879 01c2 1037     		adds	r7, r7, #16
 880              		.cfi_remember_state
 881              		.cfi_def_cfa_offset 32
 882 01c4 BD46     		mov	sp, r7
 883              		.cfi_def_cfa_register 13
 884              		@ sp needed
 885 01c6 BDE8F087 		pop	{r4, r5, r6, r7, r8, r9, r10, pc}
 886              	.L37:
 887              		.cfi_restore_state
1292:Core/Src/main.c ****   }else{// ISSUE START
 888              		.loc 1 1292 5 is_stmt 1 view .LVU248
1292:Core/Src/main.c ****   }else{// ISSUE START
 889              		.loc 1 1292 18 is_stmt 0 view .LVU249
 890 01ca 184B     		ldr	r3, .L43+36
 891 01cc 0022     		movs	r2, #0
 892 01ce 1A70     		strb	r2, [r3]
 893 01d0 F7E7     		b	.L11
 894              	.L38:
1295:Core/Src/main.c ****       deviceList[dev_num].currentValue /= 10;
 895              		.loc 1 1295 7 is_stmt 1 view .LVU250
1295:Core/Src/main.c ****       deviceList[dev_num].currentValue /= 10;
 896              		.loc 1 1295 26 is_stmt 0 view .LVU251
 897 01d2 0E4D     		ldr	r5, .L43+4
 898 01d4 2C78     		ldrb	r4, [r5]	@ zero_extendqisi2
1295:Core/Src/main.c ****       deviceList[dev_num].currentValue /= 10;
ARM GAS  C:\Users\kroko\AppData\Local\Temp\ccpAdhTr.s 			page 42


 899              		.loc 1 1295 42 view .LVU252
 900 01d6 381D     		adds	r0, r7, #4
 901 01d8 FFF7FEFF 		bl	atof
 902              	.LVL69:
1295:Core/Src/main.c ****       deviceList[dev_num].currentValue /= 10;
 903              		.loc 1 1295 40 discriminator 1 view .LVU253
 904 01dc 0C4A     		ldr	r2, .L43+8
 905 01de 04EBC404 		add	r4, r4, r4, lsl #3
 906 01e2 02EBC404 		add	r4, r2, r4, lsl #3
 907 01e6 84ED040B 		vstr.64	d0, [r4, #16]
1296:Core/Src/main.c ****     }else{
 908              		.loc 1 1296 7 is_stmt 1 view .LVU254
1296:Core/Src/main.c ****     }else{
 909              		.loc 1 1296 26 is_stmt 0 view .LVU255
 910 01ea 2B78     		ldrb	r3, [r5]	@ zero_extendqisi2
 911 01ec 03EBC301 		add	r1, r3, r3, lsl #3
 912 01f0 02EBC101 		add	r1, r2, r1, lsl #3
1296:Core/Src/main.c ****     }else{
 913              		.loc 1 1296 40 view .LVU256
 914 01f4 0C46     		mov	r4, r1
 915 01f6 0022     		movs	r2, #0
 916 01f8 0D4B     		ldr	r3, .L43+40
 917 01fa D1E90401 		ldrd	r0, [r1, #16]
 918 01fe FFF7FEFF 		bl	__aeabi_ddiv
 919              	.LVL70:
 920 0202 C4E90401 		strd	r0, [r4, #16]
 921 0206 DCE7     		b	.L11
 922              	.L44:
 923              		.align	2
 924              	.L43:
 925 0208 00000000 		.word	huart6
 926 020c 00000000 		.word	dev_num
 927 0210 00000000 		.word	deviceList
 928 0214 00000000 		.word	isDevPolledFirstTime
 929 0218 00000000 		.word	SIMrxBuffer
 930 021c 00000000 		.word	state
 931 0220 00000000 		.word	allDeviceIsUnIn
 932 0224 00000000 		.word	act_dev_cnt
 933 0228 00000000 		.word	act_dev_list
 934 022c 00000000 		.word	transmitMode
 935 0230 00002440 		.word	1076101120
 936              		.cfi_endproc
 937              	.LFE153:
 939              		.section	.text.HAL_GPIO_EXTI_Callback,"ax",%progbits
 940              		.align	1
 941              		.global	HAL_GPIO_EXTI_Callback
 942              		.syntax unified
 943              		.thumb
 944              		.thumb_func
 946              	HAL_GPIO_EXTI_Callback:
 947              	.LVL71:
 948              	.LFB154:
1303:Core/Src/main.c **** 
1304:Core/Src/main.c **** // void HAL_RTC_AlarmAEventCallback(RTC_HandleTypeDef *hrtc) 
1305:Core/Src/main.c **** // { 
1306:Core/Src/main.c **** //   // FATFS FatFs;
1307:Core/Src/main.c **** //   FRESULT FR_Status;
ARM GAS  C:\Users\kroko\AppData\Local\Temp\ccpAdhTr.s 			page 43


1308:Core/Src/main.c **** //   FIL Fil;
1309:Core/Src/main.c **** //   UINT bytesWrote;
1310:Core/Src/main.c **** 
1311:Core/Src/main.c **** //   /* RTC */
1312:Core/Src/main.c **** //   // GET RTC DATETIME
1313:Core/Src/main.c **** //   RTC_DateTypeDef gDate;
1314:Core/Src/main.c **** //   RTC_TimeTypeDef gTime;
1315:Core/Src/main.c **** 
1316:Core/Src/main.c **** //   /* Get the RTC current Time */
1317:Core/Src/main.c **** //   HAL_RTC_GetTime(hrtc, &gTime, RTC_FORMAT_BIN);
1318:Core/Src/main.c **** //   /* Get the RTC current Date */
1319:Core/Src/main.c **** //   HAL_RTC_GetDate(hrtc, &gDate, RTC_FORMAT_BIN);
1320:Core/Src/main.c **** 
1321:Core/Src/main.c **** //   char filename_buff[35];
1322:Core/Src/main.c **** //   uint8_t buf_len;
1323:Core/Src/main.c **** //   sprintf(filename_buff, "log_%02d-%02d-%02d_%02d-%02d-%2d.txt", gTime.Hours, gTime.Minutes, gTi
1324:Core/Src/main.c **** //   FR_Status = f_open(&Fil, filename_buff, FA_WRITE | FA_OPEN_ALWAYS | FA_CREATE_ALWAYS);
1325:Core/Src/main.c **** //   for (uint8_t i = 0; i < DEV_COUNT; i++){
1326:Core/Src/main.c **** //     char init_file_buf[75];
1327:Core/Src/main.c **** //     if(deviceList[i].initState == DEV_STATE_IN){
1328:Core/Src/main.c **** //       buf_len = sprintf(init_file_buf, "DEV: %d\nValue: %f\nSet value: %f\n", i, deviceList[i].c
1329:Core/Src/main.c **** //       FR_Status = f_write(&Fil, init_file_buf, buf_len, &bytesWrote);
1330:Core/Src/main.c **** //       if(FR_Status != 0){break;}
1331:Core/Src/main.c **** //     }
1332:Core/Src/main.c **** //   }
1333:Core/Src/main.c **** //   f_close(&Fil);
1334:Core/Src/main.c **** //   // SAVE CONFIG
1335:Core/Src/main.c **** //   Set_Alarm(alarm_timeout);
1336:Core/Src/main.c **** // }
1337:Core/Src/main.c **** 
1338:Core/Src/main.c **** void HAL_GPIO_EXTI_Callback(uint16_t GPIO_Pin)
1339:Core/Src/main.c **** {
 949              		.loc 1 1339 1 is_stmt 1 view -0
 950              		.cfi_startproc
 951              		@ args = 0, pretend = 0, frame = 0
 952              		@ frame_needed = 0, uses_anonymous_args = 0
 953              		@ link register save eliminated.
1340:Core/Src/main.c **** 	if(GPIO_Pin == GPIO_PIN_9){
 954              		.loc 1 1340 2 view .LVU258
 955              		.loc 1 1340 4 is_stmt 0 view .LVU259
 956 0000 B0F5007F 		cmp	r0, #512
 957 0004 01D0     		beq	.L48
1341:Core/Src/main.c ****     touchAvailable = true;
1342:Core/Src/main.c **** 	}else {
1343:Core/Src/main.c ****       __NOP();
 958              		.loc 1 1343 7 is_stmt 1 view .LVU260
 959              		.syntax unified
 960              	@ 1343 "Core/Src/main.c" 1
 961 0006 00BF     		nop
 962              	@ 0 "" 2
1344:Core/Src/main.c ****   }
1345:Core/Src/main.c **** }
 963              		.loc 1 1345 1 is_stmt 0 view .LVU261
 964              		.thumb
 965              		.syntax unified
 966 0008 7047     		bx	lr
 967              	.L48:
ARM GAS  C:\Users\kroko\AppData\Local\Temp\ccpAdhTr.s 			page 44


1341:Core/Src/main.c ****     touchAvailable = true;
 968              		.loc 1 1341 5 is_stmt 1 view .LVU262
1341:Core/Src/main.c ****     touchAvailable = true;
 969              		.loc 1 1341 20 is_stmt 0 view .LVU263
 970 000a 024B     		ldr	r3, .L49
 971 000c 0122     		movs	r2, #1
 972 000e 1A70     		strb	r2, [r3]
 973 0010 7047     		bx	lr
 974              	.L50:
 975 0012 00BF     		.align	2
 976              	.L49:
 977 0014 00000000 		.word	touchAvailable
 978              		.cfi_endproc
 979              	.LFE154:
 981              		.section	.text.findNextInDev,"ax",%progbits
 982              		.align	1
 983              		.global	findNextInDev
 984              		.syntax unified
 985              		.thumb
 986              		.thumb_func
 988              	findNextInDev:
 989              	.LVL72:
 990              	.LFB155:
1346:Core/Src/main.c **** 
1347:Core/Src/main.c **** void findNextInDev(bool dir){
 991              		.loc 1 1347 29 is_stmt 1 view -0
 992              		.cfi_startproc
 993              		@ args = 0, pretend = 0, frame = 0
 994              		@ frame_needed = 0, uses_anonymous_args = 0
 995              		@ link register save eliminated.
1348:Core/Src/main.c ****   if(!allDeviceIsUnIn){
 996              		.loc 1 1348 3 view .LVU265
 997              		.loc 1 1348 6 is_stmt 0 view .LVU266
 998 0000 184B     		ldr	r3, .L62
 999 0002 1B78     		ldrb	r3, [r3]	@ zero_extendqisi2
 1000              		.loc 1 1348 5 view .LVU267
 1001 0004 63BB     		cbnz	r3, .L51
1349:Core/Src/main.c ****     if(dir){
 1002              		.loc 1 1349 5 is_stmt 1 view .LVU268
 1003              		.loc 1 1349 7 is_stmt 0 view .LVU269
 1004 0006 00B3     		cbz	r0, .L53
 1005 0008 0BE0     		b	.L57
 1006              	.L60:
1350:Core/Src/main.c ****       do{
1351:Core/Src/main.c ****         if(dev_num < DEV_COUNT-1){
1352:Core/Src/main.c ****           dev_num++;
 1007              		.loc 1 1352 11 is_stmt 1 view .LVU270
 1008              		.loc 1 1352 18 is_stmt 0 view .LVU271
 1009 000a 0133     		adds	r3, r3, #1
 1010 000c 164A     		ldr	r2, .L62+4
 1011 000e 1370     		strb	r3, [r2]
 1012              	.L55:
1353:Core/Src/main.c ****         }else{
1354:Core/Src/main.c ****           dev_num=0;
1355:Core/Src/main.c ****         }
1356:Core/Src/main.c ****       }while (!deviceList[dev_num].initState);  
 1013              		.loc 1 1356 15 is_stmt 1 view .LVU272
ARM GAS  C:\Users\kroko\AppData\Local\Temp\ccpAdhTr.s 			page 45


 1014              		.loc 1 1356 35 is_stmt 0 view .LVU273
 1015 0010 154B     		ldr	r3, .L62+4
 1016 0012 1B78     		ldrb	r3, [r3]	@ zero_extendqisi2
 1017 0014 03EBC303 		add	r3, r3, r3, lsl #3
 1018 0018 144A     		ldr	r2, .L62+8
 1019 001a 02EBC303 		add	r3, r2, r3, lsl #3
 1020 001e 1B79     		ldrb	r3, [r3, #4]	@ zero_extendqisi2
 1021              		.loc 1 1356 15 view .LVU274
 1022 0020 DBB9     		cbnz	r3, .L56
 1023              	.L57:
1350:Core/Src/main.c ****       do{
 1024              		.loc 1 1350 7 is_stmt 1 view .LVU275
1351:Core/Src/main.c ****           dev_num++;
 1025              		.loc 1 1351 9 view .LVU276
1351:Core/Src/main.c ****           dev_num++;
 1026              		.loc 1 1351 20 is_stmt 0 view .LVU277
 1027 0022 114B     		ldr	r3, .L62+4
 1028 0024 1B78     		ldrb	r3, [r3]	@ zero_extendqisi2
1351:Core/Src/main.c ****           dev_num++;
 1029              		.loc 1 1351 11 view .LVU278
 1030 0026 022B     		cmp	r3, #2
 1031 0028 EFD9     		bls	.L60
1354:Core/Src/main.c ****         }
 1032              		.loc 1 1354 11 is_stmt 1 view .LVU279
1354:Core/Src/main.c ****         }
 1033              		.loc 1 1354 18 is_stmt 0 view .LVU280
 1034 002a 0F4B     		ldr	r3, .L62+4
 1035 002c 0022     		movs	r2, #0
 1036 002e 1A70     		strb	r2, [r3]
 1037 0030 EEE7     		b	.L55
 1038              	.L61:
1357:Core/Src/main.c ****     }else{
1358:Core/Src/main.c ****       do{
1359:Core/Src/main.c ****         if(dev_num > 0){
1360:Core/Src/main.c ****           dev_num--;
 1039              		.loc 1 1360 11 is_stmt 1 view .LVU281
 1040              		.loc 1 1360 18 is_stmt 0 view .LVU282
 1041 0032 013B     		subs	r3, r3, #1
 1042 0034 0C4A     		ldr	r2, .L62+4
 1043 0036 1370     		strb	r3, [r2]
 1044              	.L59:
1361:Core/Src/main.c ****         }else{
1362:Core/Src/main.c ****           dev_num=DEV_COUNT-1;
1363:Core/Src/main.c ****         }
1364:Core/Src/main.c ****       }while (!deviceList[dev_num].initState);  
 1045              		.loc 1 1364 15 is_stmt 1 view .LVU283
 1046              		.loc 1 1364 35 is_stmt 0 view .LVU284
 1047 0038 0B4B     		ldr	r3, .L62+4
 1048 003a 1B78     		ldrb	r3, [r3]	@ zero_extendqisi2
 1049 003c 03EBC303 		add	r3, r3, r3, lsl #3
 1050 0040 0A4A     		ldr	r2, .L62+8
 1051 0042 02EBC303 		add	r3, r2, r3, lsl #3
 1052 0046 1B79     		ldrb	r3, [r3, #4]	@ zero_extendqisi2
 1053              		.loc 1 1364 15 view .LVU285
 1054 0048 3BB9     		cbnz	r3, .L56
 1055              	.L53:
1358:Core/Src/main.c ****         if(dev_num > 0){
ARM GAS  C:\Users\kroko\AppData\Local\Temp\ccpAdhTr.s 			page 46


 1056              		.loc 1 1358 7 is_stmt 1 view .LVU286
1359:Core/Src/main.c ****           dev_num--;
 1057              		.loc 1 1359 9 view .LVU287
1359:Core/Src/main.c ****           dev_num--;
 1058              		.loc 1 1359 20 is_stmt 0 view .LVU288
 1059 004a 074B     		ldr	r3, .L62+4
 1060 004c 1B78     		ldrb	r3, [r3]	@ zero_extendqisi2
1359:Core/Src/main.c ****           dev_num--;
 1061              		.loc 1 1359 11 view .LVU289
 1062 004e 002B     		cmp	r3, #0
 1063 0050 EFD1     		bne	.L61
1362:Core/Src/main.c ****         }
 1064              		.loc 1 1362 11 is_stmt 1 view .LVU290
1362:Core/Src/main.c ****         }
 1065              		.loc 1 1362 18 is_stmt 0 view .LVU291
 1066 0052 054B     		ldr	r3, .L62+4
 1067 0054 0322     		movs	r2, #3
 1068 0056 1A70     		strb	r2, [r3]
 1069 0058 EEE7     		b	.L59
 1070              	.L56:
1365:Core/Src/main.c ****     }
1366:Core/Src/main.c ****     isDevPolledFirstTime = true;
 1071              		.loc 1 1366 5 is_stmt 1 view .LVU292
 1072              		.loc 1 1366 26 is_stmt 0 view .LVU293
 1073 005a 054B     		ldr	r3, .L62+12
 1074 005c 0122     		movs	r2, #1
 1075 005e 1A70     		strb	r2, [r3]
 1076              	.L51:
1367:Core/Src/main.c ****   }
1368:Core/Src/main.c **** }
 1077              		.loc 1 1368 1 view .LVU294
 1078 0060 7047     		bx	lr
 1079              	.L63:
 1080 0062 00BF     		.align	2
 1081              	.L62:
 1082 0064 00000000 		.word	allDeviceIsUnIn
 1083 0068 00000000 		.word	dev_num
 1084 006c 00000000 		.word	deviceList
 1085 0070 00000000 		.word	isDevPolledFirstTime
 1086              		.cfi_endproc
 1087              	.LFE155:
 1089              		.section	.text.map,"ax",%progbits
 1090              		.align	1
 1091              		.global	map
 1092              		.syntax unified
 1093              		.thumb
 1094              		.thumb_func
 1096              	map:
 1097              	.LVL73:
 1098              	.LFB156:
1369:Core/Src/main.c **** 
1370:Core/Src/main.c **** uint32_t map(uint32_t x, uint32_t in_min, uint32_t in_max, uint32_t out_min, uint32_t out_max){
 1099              		.loc 1 1370 95 is_stmt 1 view -0
 1100              		.cfi_startproc
 1101              		@ args = 4, pretend = 0, frame = 0
 1102              		@ frame_needed = 0, uses_anonymous_args = 0
 1103              		@ link register save eliminated.
ARM GAS  C:\Users\kroko\AppData\Local\Temp\ccpAdhTr.s 			page 47


1371:Core/Src/main.c ****   return (x - in_min) * (out_max - out_min) / (in_max - in_min) + out_min;
 1104              		.loc 1 1371 3 view .LVU296
 1105              		.loc 1 1371 13 is_stmt 0 view .LVU297
 1106 0000 A0EB010C 		sub	ip, r0, r1
 1107              		.loc 1 1371 34 view .LVU298
 1108 0004 0098     		ldr	r0, [sp]
 1109              	.LVL74:
 1110              		.loc 1 1371 34 view .LVU299
 1111 0006 C01A     		subs	r0, r0, r3
 1112              		.loc 1 1371 23 view .LVU300
 1113 0008 00FB0CFC 		mul	ip, r0, ip
 1114              		.loc 1 1371 55 view .LVU301
 1115 000c 521A     		subs	r2, r2, r1
 1116              	.LVL75:
 1117              		.loc 1 1371 45 view .LVU302
 1118 000e BCFBF2FC 		udiv	ip, ip, r2
1372:Core/Src/main.c **** }
 1119              		.loc 1 1372 1 view .LVU303
 1120 0012 0CEB0300 		add	r0, ip, r3
 1121 0016 7047     		bx	lr
 1122              		.cfi_endproc
 1123              	.LFE156:
 1125              		.section	.rodata.SIM_sendCommand.str1.4,"aMS",%progbits,1
 1126              		.align	2
 1127              	.LC0:
 1128 0000 25730D0A 		.ascii	"%s\015\012\000"
 1128      00
 1129              		.section	.text.SIM_sendCommand,"ax",%progbits
 1130              		.align	1
 1131              		.global	SIM_sendCommand
 1132              		.syntax unified
 1133              		.thumb
 1134              		.thumb_func
 1136              	SIM_sendCommand:
 1137              	.LVL76:
 1138              	.LFB157:
1373:Core/Src/main.c **** 
1374:Core/Src/main.c **** void SIM_sendCommand(const char *command){
 1139              		.loc 1 1374 42 is_stmt 1 view -0
 1140              		.cfi_startproc
 1141              		@ args = 0, pretend = 0, frame = 0
 1142              		@ frame_needed = 0, uses_anonymous_args = 0
 1143              		.loc 1 1374 42 is_stmt 0 view .LVU305
 1144 0000 70B5     		push	{r4, r5, r6, lr}
 1145              		.cfi_def_cfa_offset 16
 1146              		.cfi_offset 4, -16
 1147              		.cfi_offset 5, -12
 1148              		.cfi_offset 6, -8
 1149              		.cfi_offset 14, -4
 1150 0002 0546     		mov	r5, r0
1375:Core/Src/main.c ****     memset(SIMtxBuffer, 0, TX_BUFFER_SIZE);
 1151              		.loc 1 1375 5 is_stmt 1 view .LVU306
 1152 0004 0A4C     		ldr	r4, .L67
 1153 0006 8026     		movs	r6, #128
 1154 0008 3246     		mov	r2, r6
 1155 000a 0021     		movs	r1, #0
 1156 000c 2046     		mov	r0, r4
ARM GAS  C:\Users\kroko\AppData\Local\Temp\ccpAdhTr.s 			page 48


 1157              	.LVL77:
 1158              		.loc 1 1375 5 is_stmt 0 view .LVU307
 1159 000e FFF7FEFF 		bl	memset
 1160              	.LVL78:
1376:Core/Src/main.c ****     snprintf((char *)SIMtxBuffer, TX_BUFFER_SIZE, "%s\r\n", command);
 1161              		.loc 1 1376 5 is_stmt 1 view .LVU308
 1162 0012 2B46     		mov	r3, r5
 1163 0014 074A     		ldr	r2, .L67+4
 1164 0016 3146     		mov	r1, r6
 1165 0018 2046     		mov	r0, r4
 1166 001a FFF7FEFF 		bl	snprintf
 1167              	.LVL79:
1377:Core/Src/main.c ****     HAL_UART_Transmit_DMA(&huart6, SIMtxBuffer, strlen((char *)SIMtxBuffer));
 1168              		.loc 1 1377 5 view .LVU309
 1169              		.loc 1 1377 49 is_stmt 0 view .LVU310
 1170 001e 2046     		mov	r0, r4
 1171 0020 FFF7FEFF 		bl	strlen
 1172              	.LVL80:
 1173              		.loc 1 1377 5 discriminator 1 view .LVU311
 1174 0024 82B2     		uxth	r2, r0
 1175 0026 2146     		mov	r1, r4
 1176 0028 0348     		ldr	r0, .L67+8
 1177 002a FFF7FEFF 		bl	HAL_UART_Transmit_DMA
 1178              	.LVL81:
1378:Core/Src/main.c **** }
 1179              		.loc 1 1378 1 view .LVU312
 1180 002e 70BD     		pop	{r4, r5, r6, pc}
 1181              	.LVL82:
 1182              	.L68:
 1183              		.loc 1 1378 1 view .LVU313
 1184              		.align	2
 1185              	.L67:
 1186 0030 00000000 		.word	SIMtxBuffer
 1187 0034 00000000 		.word	.LC0
 1188 0038 00000000 		.word	huart6
 1189              		.cfi_endproc
 1190              	.LFE157:
 1192              		.section	.rodata.checkSIMStatus.str1.4,"aMS",%progbits,1
 1193              		.align	2
 1194              	.LC1:
 1195 0000 41542B43 		.ascii	"AT+CSMINS?\000"
 1195      534D494E 
 1195      533F00
 1196 000b 00       		.align	2
 1197              	.LC2:
 1198 000c 2B43534D 		.ascii	"+CSMINS: 0,1\000"
 1198      494E533A 
 1198      20302C31 
 1198      00
 1199              		.section	.text.checkSIMStatus,"ax",%progbits
 1200              		.align	1
 1201              		.global	checkSIMStatus
 1202              		.syntax unified
 1203              		.thumb
 1204              		.thumb_func
 1206              	checkSIMStatus:
 1207              	.LFB158:
ARM GAS  C:\Users\kroko\AppData\Local\Temp\ccpAdhTr.s 			page 49


1379:Core/Src/main.c **** 
1380:Core/Src/main.c **** bool checkSIMStatus(){
 1208              		.loc 1 1380 22 is_stmt 1 view -0
 1209              		.cfi_startproc
 1210              		@ args = 0, pretend = 0, frame = 0
 1211              		@ frame_needed = 0, uses_anonymous_args = 0
 1212 0000 08B5     		push	{r3, lr}
 1213              		.cfi_def_cfa_offset 8
 1214              		.cfi_offset 3, -8
 1215              		.cfi_offset 14, -4
1381:Core/Src/main.c ****     SIM_sendCommand("AT+CSMINS?");
 1216              		.loc 1 1381 5 view .LVU315
 1217 0002 0648     		ldr	r0, .L73
 1218 0004 FFF7FEFF 		bl	SIM_sendCommand
 1219              	.LVL83:
1382:Core/Src/main.c ****     HAL_Delay(100);
 1220              		.loc 1 1382 5 view .LVU316
 1221 0008 6420     		movs	r0, #100
 1222 000a FFF7FEFF 		bl	HAL_Delay
 1223              	.LVL84:
1383:Core/Src/main.c ****     if (strstr((char *)SIMrxBuffer, "+CSMINS: 0,1") != NULL) {
 1224              		.loc 1 1383 5 view .LVU317
 1225              		.loc 1 1383 9 is_stmt 0 view .LVU318
 1226 000e 0449     		ldr	r1, .L73+4
 1227 0010 0448     		ldr	r0, .L73+8
 1228 0012 FFF7FEFF 		bl	strstr
 1229              	.LVL85:
 1230              		.loc 1 1383 8 discriminator 1 view .LVU319
 1231 0016 00B1     		cbz	r0, .L70
1384:Core/Src/main.c ****         return true; // SIM installed
 1232              		.loc 1 1384 16 view .LVU320
 1233 0018 0120     		movs	r0, #1
 1234              	.L70:
1385:Core/Src/main.c ****     }
1386:Core/Src/main.c ****     return false; // SIM not installed
1387:Core/Src/main.c **** }
 1235              		.loc 1 1387 1 view .LVU321
 1236 001a 08BD     		pop	{r3, pc}
 1237              	.L74:
 1238              		.align	2
 1239              	.L73:
 1240 001c 00000000 		.word	.LC1
 1241 0020 0C000000 		.word	.LC2
 1242 0024 00000000 		.word	SIMrxBuffer
 1243              		.cfi_endproc
 1244              	.LFE158:
 1246              		.section	.rodata.checkInitStatus.str1.4,"aMS",%progbits,1
 1247              		.align	2
 1248              	.LC3:
 1249 0000 41542B43 		.ascii	"AT+CREG?\000"
 1249      5245473F 
 1249      00
 1250 0009 000000   		.align	2
 1251              	.LC4:
 1252 000c 2B435245 		.ascii	"+CREG: 0,1\000"
 1252      473A2030 
 1252      2C3100
ARM GAS  C:\Users\kroko\AppData\Local\Temp\ccpAdhTr.s 			page 50


 1253              		.section	.text.checkInitStatus,"ax",%progbits
 1254              		.align	1
 1255              		.global	checkInitStatus
 1256              		.syntax unified
 1257              		.thumb
 1258              		.thumb_func
 1260              	checkInitStatus:
 1261              	.LFB159:
1388:Core/Src/main.c **** 
1389:Core/Src/main.c **** bool checkInitStatus(){
 1262              		.loc 1 1389 23 is_stmt 1 view -0
 1263              		.cfi_startproc
 1264              		@ args = 0, pretend = 0, frame = 0
 1265              		@ frame_needed = 0, uses_anonymous_args = 0
 1266 0000 08B5     		push	{r3, lr}
 1267              		.cfi_def_cfa_offset 8
 1268              		.cfi_offset 3, -8
 1269              		.cfi_offset 14, -4
1390:Core/Src/main.c ****   SIM_sendCommand("AT+CREG?");
 1270              		.loc 1 1390 3 view .LVU323
 1271 0002 0548     		ldr	r0, .L79
 1272 0004 FFF7FEFF 		bl	SIM_sendCommand
 1273              	.LVL86:
1391:Core/Src/main.c ****   if (strstr((char *)SIMrxBuffer, "+CREG: 0,1") != NULL) {
 1274              		.loc 1 1391 3 view .LVU324
 1275              		.loc 1 1391 7 is_stmt 0 view .LVU325
 1276 0008 0449     		ldr	r1, .L79+4
 1277 000a 0548     		ldr	r0, .L79+8
 1278 000c FFF7FEFF 		bl	strstr
 1279              	.LVL87:
 1280              		.loc 1 1391 6 discriminator 1 view .LVU326
 1281 0010 00B1     		cbz	r0, .L76
1392:Core/Src/main.c ****     return true;
 1282              		.loc 1 1392 12 view .LVU327
 1283 0012 0120     		movs	r0, #1
 1284              	.L76:
1393:Core/Src/main.c ****   }
1394:Core/Src/main.c ****   return false;
1395:Core/Src/main.c **** }
 1285              		.loc 1 1395 1 view .LVU328
 1286 0014 08BD     		pop	{r3, pc}
 1287              	.L80:
 1288 0016 00BF     		.align	2
 1289              	.L79:
 1290 0018 00000000 		.word	.LC3
 1291 001c 0C000000 		.word	.LC4
 1292 0020 00000000 		.word	SIMrxBuffer
 1293              		.cfi_endproc
 1294              	.LFE159:
 1296              		.section	.rodata.sendSMS.str1.4,"aMS",%progbits,1
 1297              		.align	2
 1298              	.LC5:
 1299 0000 41542B43 		.ascii	"AT+CMGF=1\000"
 1299      4D47463D 
 1299      3100
 1300 000a 0000     		.align	2
 1301              	.LC6:
ARM GAS  C:\Users\kroko\AppData\Local\Temp\ccpAdhTr.s 			page 51


 1302 000c 41542B43 		.ascii	"AT+CMGS=\"+37122310302\"\000"
 1302      4D47533D 
 1302      222B3337 
 1302      31323233 
 1302      31303330 
 1303 0023 00       		.align	2
 1304              	.LC7:
 1305 0024 4552524F 		.ascii	"ERROR\000"
 1305      5200
 1306              		.section	.text.sendSMS,"ax",%progbits
 1307              		.align	1
 1308              		.global	sendSMS
 1309              		.syntax unified
 1310              		.thumb
 1311              		.thumb_func
 1313              	sendSMS:
 1314              	.LVL88:
 1315              	.LFB160:
1396:Core/Src/main.c **** 
1397:Core/Src/main.c **** bool sendSMS(char *message){
 1316              		.loc 1 1397 28 is_stmt 1 view -0
 1317              		.cfi_startproc
 1318              		@ args = 0, pretend = 0, frame = 8
 1319              		@ frame_needed = 0, uses_anonymous_args = 0
 1320              		.loc 1 1397 28 is_stmt 0 view .LVU330
 1321 0000 10B5     		push	{r4, lr}
 1322              		.cfi_def_cfa_offset 8
 1323              		.cfi_offset 4, -8
 1324              		.cfi_offset 14, -4
 1325 0002 82B0     		sub	sp, sp, #8
 1326              		.cfi_def_cfa_offset 16
 1327 0004 0446     		mov	r4, r0
1398:Core/Src/main.c ****   SIM_sendCommand("AT+CMGF=1");
 1328              		.loc 1 1398 3 is_stmt 1 view .LVU331
 1329 0006 1248     		ldr	r0, .L86
 1330              	.LVL89:
 1331              		.loc 1 1398 3 is_stmt 0 view .LVU332
 1332 0008 FFF7FEFF 		bl	SIM_sendCommand
 1333              	.LVL90:
1399:Core/Src/main.c ****   HAL_Delay(50);
 1334              		.loc 1 1399 3 is_stmt 1 view .LVU333
 1335 000c 3220     		movs	r0, #50
 1336 000e FFF7FEFF 		bl	HAL_Delay
 1337              	.LVL91:
1400:Core/Src/main.c ****   SIM_sendCommand("AT+CMGS=\"+37122310302\"");
 1338              		.loc 1 1400 3 view .LVU334
 1339 0012 1048     		ldr	r0, .L86+4
 1340 0014 FFF7FEFF 		bl	SIM_sendCommand
 1341              	.LVL92:
1401:Core/Src/main.c ****   HAL_Delay(50);
 1342              		.loc 1 1401 3 view .LVU335
 1343 0018 3220     		movs	r0, #50
 1344 001a FFF7FEFF 		bl	HAL_Delay
 1345              	.LVL93:
1402:Core/Src/main.c ****   SIM_sendCommand(message);
 1346              		.loc 1 1402 3 view .LVU336
 1347 001e 2046     		mov	r0, r4
ARM GAS  C:\Users\kroko\AppData\Local\Temp\ccpAdhTr.s 			page 52


 1348 0020 FFF7FEFF 		bl	SIM_sendCommand
 1349              	.LVL94:
1403:Core/Src/main.c ****   HAL_Delay(50);
 1350              		.loc 1 1403 3 view .LVU337
 1351 0024 3220     		movs	r0, #50
 1352 0026 FFF7FEFF 		bl	HAL_Delay
 1353              	.LVL95:
1404:Core/Src/main.c ****   uint8_t ctrlZ[] = {26};
 1354              		.loc 1 1404 3 view .LVU338
 1355              		.loc 1 1404 11 is_stmt 0 view .LVU339
 1356 002a 1A23     		movs	r3, #26
 1357 002c 8DF80430 		strb	r3, [sp, #4]
1405:Core/Src/main.c ****   HAL_UART_Transmit_DMA(&huart6, ctrlZ, 1);
 1358              		.loc 1 1405 3 is_stmt 1 view .LVU340
 1359 0030 0122     		movs	r2, #1
 1360 0032 01A9     		add	r1, sp, #4
 1361 0034 0848     		ldr	r0, .L86+8
 1362 0036 FFF7FEFF 		bl	HAL_UART_Transmit_DMA
 1363              	.LVL96:
1406:Core/Src/main.c ****   if (strstr((char *)SIMrxBuffer, "ERROR") != NULL) {
 1364              		.loc 1 1406 3 view .LVU341
 1365              		.loc 1 1406 7 is_stmt 0 view .LVU342
 1366 003a 0849     		ldr	r1, .L86+12
 1367 003c 0848     		ldr	r0, .L86+16
 1368 003e FFF7FEFF 		bl	strstr
 1369              	.LVL97:
 1370              		.loc 1 1406 6 discriminator 1 view .LVU343
 1371 0042 10B1     		cbz	r0, .L85
1407:Core/Src/main.c ****     return false;
 1372              		.loc 1 1407 12 view .LVU344
 1373 0044 0020     		movs	r0, #0
 1374              	.L82:
1408:Core/Src/main.c ****   }
1409:Core/Src/main.c ****   return true;
1410:Core/Src/main.c **** }
 1375              		.loc 1 1410 1 view .LVU345
 1376 0046 02B0     		add	sp, sp, #8
 1377              		.cfi_remember_state
 1378              		.cfi_def_cfa_offset 8
 1379              		@ sp needed
 1380 0048 10BD     		pop	{r4, pc}
 1381              	.LVL98:
 1382              	.L85:
 1383              		.cfi_restore_state
1409:Core/Src/main.c **** }
 1384              		.loc 1 1409 10 view .LVU346
 1385 004a 0120     		movs	r0, #1
 1386 004c FBE7     		b	.L82
 1387              	.L87:
 1388 004e 00BF     		.align	2
 1389              	.L86:
 1390 0050 00000000 		.word	.LC5
 1391 0054 0C000000 		.word	.LC6
 1392 0058 00000000 		.word	huart6
 1393 005c 24000000 		.word	.LC7
 1394 0060 00000000 		.word	SIMrxBuffer
 1395              		.cfi_endproc
ARM GAS  C:\Users\kroko\AppData\Local\Temp\ccpAdhTr.s 			page 53


 1396              	.LFE160:
 1398              		.section	.rodata.resetModule.str1.4,"aMS",%progbits,1
 1399              		.align	2
 1400              	.LC8:
 1401 0000 41542B43 		.ascii	"AT+CFUN=1,1\000"
 1401      46554E3D 
 1401      312C3100 
 1402              		.section	.text.resetModule,"ax",%progbits
 1403              		.align	1
 1404              		.global	resetModule
 1405              		.syntax unified
 1406              		.thumb
 1407              		.thumb_func
 1409              	resetModule:
 1410              	.LFB161:
1411:Core/Src/main.c **** 
1412:Core/Src/main.c **** void resetModule(){
 1411              		.loc 1 1412 19 is_stmt 1 view -0
 1412              		.cfi_startproc
 1413              		@ args = 0, pretend = 0, frame = 0
 1414              		@ frame_needed = 0, uses_anonymous_args = 0
 1415 0000 08B5     		push	{r3, lr}
 1416              		.cfi_def_cfa_offset 8
 1417              		.cfi_offset 3, -8
 1418              		.cfi_offset 14, -4
1413:Core/Src/main.c ****   SIM_sendCommand("AT+CFUN=1,1");
 1419              		.loc 1 1413 3 view .LVU348
 1420 0002 0348     		ldr	r0, .L90
 1421 0004 FFF7FEFF 		bl	SIM_sendCommand
 1422              	.LVL99:
1414:Core/Src/main.c ****   HAL_Delay(50);
 1423              		.loc 1 1414 3 view .LVU349
 1424 0008 3220     		movs	r0, #50
 1425 000a FFF7FEFF 		bl	HAL_Delay
 1426              	.LVL100:
1415:Core/Src/main.c **** }
 1427              		.loc 1 1415 1 is_stmt 0 view .LVU350
 1428 000e 08BD     		pop	{r3, pc}
 1429              	.L91:
 1430              		.align	2
 1431              	.L90:
 1432 0010 00000000 		.word	.LC8
 1433              		.cfi_endproc
 1434              	.LFE161:
 1436              		.section	.rodata.syncTime.str1.4,"aMS",%progbits,1
 1437              		.align	2
 1438              	.LC9:
 1439 0000 41542B43 		.ascii	"AT+CLTS=1\000"
 1439      4C54533D 
 1439      3100
 1440 000a 0000     		.align	2
 1441              	.LC10:
 1442 000c 41542657 		.ascii	"AT&W\000"
 1442      00
 1443              		.section	.text.syncTime,"ax",%progbits
 1444              		.align	1
 1445              		.global	syncTime
ARM GAS  C:\Users\kroko\AppData\Local\Temp\ccpAdhTr.s 			page 54


 1446              		.syntax unified
 1447              		.thumb
 1448              		.thumb_func
 1450              	syncTime:
 1451              	.LFB162:
1416:Core/Src/main.c **** 
1417:Core/Src/main.c **** void syncTime(){
 1452              		.loc 1 1417 16 is_stmt 1 view -0
 1453              		.cfi_startproc
 1454              		@ args = 0, pretend = 0, frame = 0
 1455              		@ frame_needed = 0, uses_anonymous_args = 0
 1456 0000 08B5     		push	{r3, lr}
 1457              		.cfi_def_cfa_offset 8
 1458              		.cfi_offset 3, -8
 1459              		.cfi_offset 14, -4
1418:Core/Src/main.c ****   SIM_sendCommand("AT+CLTS=1");
 1460              		.loc 1 1418 3 view .LVU352
 1461 0002 0648     		ldr	r0, .L94
 1462 0004 FFF7FEFF 		bl	SIM_sendCommand
 1463              	.LVL101:
1419:Core/Src/main.c ****   HAL_Delay(50);
 1464              		.loc 1 1419 3 view .LVU353
 1465 0008 3220     		movs	r0, #50
 1466 000a FFF7FEFF 		bl	HAL_Delay
 1467              	.LVL102:
1420:Core/Src/main.c ****   SIM_sendCommand("AT&W");
 1468              		.loc 1 1420 3 view .LVU354
 1469 000e 0448     		ldr	r0, .L94+4
 1470 0010 FFF7FEFF 		bl	SIM_sendCommand
 1471              	.LVL103:
1421:Core/Src/main.c ****   HAL_Delay(50);
 1472              		.loc 1 1421 3 view .LVU355
 1473 0014 3220     		movs	r0, #50
 1474 0016 FFF7FEFF 		bl	HAL_Delay
 1475              	.LVL104:
1422:Core/Src/main.c **** 
1423:Core/Src/main.c **** }
 1476              		.loc 1 1423 1 is_stmt 0 view .LVU356
 1477 001a 08BD     		pop	{r3, pc}
 1478              	.L95:
 1479              		.align	2
 1480              	.L94:
 1481 001c 00000000 		.word	.LC9
 1482 0020 0C000000 		.word	.LC10
 1483              		.cfi_endproc
 1484              	.LFE162:
 1486              		.section	.rodata.enableGPRS.str1.4,"aMS",%progbits,1
 1487              		.align	2
 1488              	.LC11:
 1489 0000 41542B53 		.ascii	"AT+SAPBR=3,1,\"CONTYPE\",\"GPRS\"\000"
 1489      41504252 
 1489      3D332C31 
 1489      2C22434F 
 1489      4E545950 
 1490 001e 0000     		.align	2
 1491              	.LC12:
 1492 0020 41542B53 		.ascii	"AT+SAPBR=3,1,\"APN\",\"internet\"\000"
ARM GAS  C:\Users\kroko\AppData\Local\Temp\ccpAdhTr.s 			page 55


 1492      41504252 
 1492      3D332C31 
 1492      2C224150 
 1492      4E222C22 
 1493 003e 0000     		.align	2
 1494              	.LC13:
 1495 0040 41542B53 		.ascii	"AT+SAPBR=1,1\000"
 1495      41504252 
 1495      3D312C31 
 1495      00
 1496              		.section	.text.enableGPRS,"ax",%progbits
 1497              		.align	1
 1498              		.global	enableGPRS
 1499              		.syntax unified
 1500              		.thumb
 1501              		.thumb_func
 1503              	enableGPRS:
 1504              	.LFB164:
1424:Core/Src/main.c **** 
1425:Core/Src/main.c **** void getTime(){
1426:Core/Src/main.c ****   char time[30];
1427:Core/Src/main.c **** 
1428:Core/Src/main.c ****   SIM_sendCommand("AT+CCLK?");
1429:Core/Src/main.c ****   HAL_Delay(50);
1430:Core/Src/main.c **** 
1431:Core/Src/main.c ****   int i, j, k;
1432:Core/Src/main.c ****   char *cclk = "+CCLK";
1433:Core/Src/main.c ****   for(i=0; SIMrxBuffer[i]!='\0'; i++) {
1434:Core/Src/main.c ****     for(j=i, k=0; cclk[k]!='\0' && SIMrxBuffer[j]==cclk[k]; j++, k++)
1435:Core/Src/main.c ****         ;
1436:Core/Src/main.c ****     if(k>0 && cclk[k]=='\0')
1437:Core/Src/main.c ****     {
1438:Core/Src/main.c ****         for (uint8_t l = 0; l < 30; l++){
1439:Core/Src/main.c ****           time[l] = SIMrxBuffer[i+l];
1440:Core/Src/main.c ****         }
1441:Core/Src/main.c ****         break;
1442:Core/Src/main.c ****     }
1443:Core/Src/main.c ****   }
1444:Core/Src/main.c ****   time[29] ='\0';
1445:Core/Src/main.c ****   //Show_Message(time, 1000);
1446:Core/Src/main.c **** 
1447:Core/Src/main.c ****   RTC_DateTypeDef nDate;
1448:Core/Src/main.c ****   RTC_TimeTypeDef nTime;
1449:Core/Src/main.c ****   // BUG!!!!!!
1450:Core/Src/main.c **** // Separate the date and time from the input string
1451:Core/Src/main.c ****   char date_part[9];  // For "23/12/31"
1452:Core/Src/main.c ****   char time_part[9];   // For "14:45:30"
1453:Core/Src/main.c ****   char offset_part[4]; // For "+05"
1454:Core/Src/main.c ****   
1455:Core/Src/main.c ****   // Use sscanf to extract date, time, and offset parts
1456:Core/Src/main.c ****   int result = sscanf(time, "+CCLK: \"%8s,%8s%3s\"", date_part, time_part, offset_part);
1457:Core/Src/main.c **** 
1458:Core/Src/main.c ****   if (result == 3) {
1459:Core/Src/main.c ****     // Now parse the date part (e.g., "23/12/31")
1460:Core/Src/main.c ****     uint8_t day, month, year;
1461:Core/Src/main.c ****     sscanf(date_part, "%2d/%2d/%2d", &year, &month, &day);
1462:Core/Src/main.c **** 
ARM GAS  C:\Users\kroko\AppData\Local\Temp\ccpAdhTr.s 			page 56


1463:Core/Src/main.c ****     // Fill the RTC_DateTypeDef structure
1464:Core/Src/main.c ****     nDate.Year = year;
1465:Core/Src/main.c ****     nDate.Month = month;
1466:Core/Src/main.c ****     nDate.Date = day;
1467:Core/Src/main.c ****     nDate.WeekDay = 5;
1468:Core/Src/main.c **** 
1469:Core/Src/main.c ****     if (HAL_RTC_SetDate(&hrtc, &nDate, RTC_FORMAT_BIN) != HAL_OK)
1470:Core/Src/main.c ****     {
1471:Core/Src/main.c ****       Error_Handler();
1472:Core/Src/main.c ****     }
1473:Core/Src/main.c **** 
1474:Core/Src/main.c ****       // Parse the time part (e.g., "14:45:30")
1475:Core/Src/main.c ****     uint8_t hours, minutes, seconds;
1476:Core/Src/main.c ****     sscanf(time_part, "%2d:%2d:%2d", &hours, &minutes, &seconds);
1477:Core/Src/main.c **** 
1478:Core/Src/main.c ****     // Fill the RTC_TimeTypeDef structure
1479:Core/Src/main.c ****     nTime.Hours = hours;
1480:Core/Src/main.c ****     nTime.Minutes = minutes;
1481:Core/Src/main.c ****     nTime.Seconds = seconds;
1482:Core/Src/main.c ****     nTime.DayLightSaving = RTC_DAYLIGHTSAVING_NONE;
1483:Core/Src/main.c ****     nTime.StoreOperation = RTC_STOREOPERATION_RESET;
1484:Core/Src/main.c **** 
1485:Core/Src/main.c ****     if (HAL_RTC_SetTime(&hrtc, &nTime, RTC_FORMAT_BIN) != HAL_OK)
1486:Core/Src/main.c ****     {
1487:Core/Src/main.c ****       Error_Handler();
1488:Core/Src/main.c ****     }
1489:Core/Src/main.c ****     HAL_RTCEx_BKUPWrite(&hrtc, RTC_BKP_DR1, RTC_BKP_CONSTANT);
1490:Core/Src/main.c ****   }
1491:Core/Src/main.c **** }
1492:Core/Src/main.c **** 
1493:Core/Src/main.c **** bool enableGPRS(){
 1505              		.loc 1 1493 18 is_stmt 1 view -0
 1506              		.cfi_startproc
 1507              		@ args = 0, pretend = 0, frame = 0
 1508              		@ frame_needed = 0, uses_anonymous_args = 0
 1509 0000 08B5     		push	{r3, lr}
 1510              		.cfi_def_cfa_offset 8
 1511              		.cfi_offset 3, -8
 1512              		.cfi_offset 14, -4
1494:Core/Src/main.c ****   //char apn[50];
1495:Core/Src/main.c ****   SIM_sendCommand("AT+SAPBR=3,1,\"CONTYPE\",\"GPRS\"");
 1513              		.loc 1 1495 3 view .LVU358
 1514 0002 0D48     		ldr	r0, .L101
 1515 0004 FFF7FEFF 		bl	SIM_sendCommand
 1516              	.LVL105:
1496:Core/Src/main.c ****   HAL_Delay(50);
 1517              		.loc 1 1496 3 view .LVU359
 1518 0008 3220     		movs	r0, #50
 1519 000a FFF7FEFF 		bl	HAL_Delay
 1520              	.LVL106:
1497:Core/Src/main.c ****   //sprintf(apn, "AT+SAPBR=3,1,\"APN\",\"%c\"", bite_apn);
1498:Core/Src/main.c ****   SIM_sendCommand("AT+SAPBR=3,1,\"APN\",\"internet\"");
 1521              		.loc 1 1498 3 view .LVU360
 1522 000e 0B48     		ldr	r0, .L101+4
 1523 0010 FFF7FEFF 		bl	SIM_sendCommand
 1524              	.LVL107:
1499:Core/Src/main.c ****   HAL_Delay(50);
ARM GAS  C:\Users\kroko\AppData\Local\Temp\ccpAdhTr.s 			page 57


 1525              		.loc 1 1499 3 view .LVU361
 1526 0014 3220     		movs	r0, #50
 1527 0016 FFF7FEFF 		bl	HAL_Delay
 1528              	.LVL108:
1500:Core/Src/main.c ****   SIM_sendCommand("AT+SAPBR=1,1");
 1529              		.loc 1 1500 3 view .LVU362
 1530 001a 0948     		ldr	r0, .L101+8
 1531 001c FFF7FEFF 		bl	SIM_sendCommand
 1532              	.LVL109:
1501:Core/Src/main.c ****   HAL_Delay(50);
 1533              		.loc 1 1501 3 view .LVU363
 1534 0020 3220     		movs	r0, #50
 1535 0022 FFF7FEFF 		bl	HAL_Delay
 1536              	.LVL110:
1502:Core/Src/main.c ****   if (strstr((char *)SIMrxBuffer, "ERROR") != NULL) {
 1537              		.loc 1 1502 3 view .LVU364
 1538              		.loc 1 1502 7 is_stmt 0 view .LVU365
 1539 0026 0749     		ldr	r1, .L101+12
 1540 0028 0748     		ldr	r0, .L101+16
 1541 002a FFF7FEFF 		bl	strstr
 1542              	.LVL111:
 1543              		.loc 1 1502 6 discriminator 1 view .LVU366
 1544 002e 08B1     		cbz	r0, .L100
1503:Core/Src/main.c ****     return false;
 1545              		.loc 1 1503 12 view .LVU367
 1546 0030 0020     		movs	r0, #0
 1547              	.L97:
1504:Core/Src/main.c ****   }
1505:Core/Src/main.c ****   return true;
1506:Core/Src/main.c **** }
 1548              		.loc 1 1506 1 view .LVU368
 1549 0032 08BD     		pop	{r3, pc}
 1550              	.L100:
1505:Core/Src/main.c **** }
 1551              		.loc 1 1505 10 view .LVU369
 1552 0034 0120     		movs	r0, #1
 1553 0036 FCE7     		b	.L97
 1554              	.L102:
 1555              		.align	2
 1556              	.L101:
 1557 0038 00000000 		.word	.LC11
 1558 003c 20000000 		.word	.LC12
 1559 0040 40000000 		.word	.LC13
 1560 0044 24000000 		.word	.LC7
 1561 0048 00000000 		.word	SIMrxBuffer
 1562              		.cfi_endproc
 1563              	.LFE164:
 1565              		.section	.text.Error_Handler,"ax",%progbits
 1566              		.align	1
 1567              		.global	Error_Handler
 1568              		.syntax unified
 1569              		.thumb
 1570              		.thumb_func
 1572              	Error_Handler:
 1573              	.LFB165:
1507:Core/Src/main.c **** /* USER CODE END 4 */
1508:Core/Src/main.c **** 
ARM GAS  C:\Users\kroko\AppData\Local\Temp\ccpAdhTr.s 			page 58


1509:Core/Src/main.c **** /**
1510:Core/Src/main.c ****   * @brief  This function is executed in case of error occurrence.
1511:Core/Src/main.c ****   * @retval None
1512:Core/Src/main.c ****   */
1513:Core/Src/main.c **** void Error_Handler(void)
1514:Core/Src/main.c **** {
 1574              		.loc 1 1514 1 is_stmt 1 view -0
 1575              		.cfi_startproc
 1576              		@ args = 0, pretend = 0, frame = 0
 1577              		@ frame_needed = 0, uses_anonymous_args = 0
 1578 0000 08B5     		push	{r3, lr}
 1579              		.cfi_def_cfa_offset 8
 1580              		.cfi_offset 3, -8
 1581              		.cfi_offset 14, -4
1515:Core/Src/main.c ****   /* USER CODE BEGIN Error_Handler_Debug */
1516:Core/Src/main.c ****   /* User can add his own implementation to report the HAL error return state */
1517:Core/Src/main.c ****   __disable_irq();
 1582              		.loc 1 1517 3 view .LVU371
 1583              	.LBB16:
 1584              	.LBI16:
 1585              		.file 2 "Drivers/CMSIS/Include/cmsis_gcc.h"
   1:Drivers/CMSIS/Include/cmsis_gcc.h **** /**************************************************************************//**
   2:Drivers/CMSIS/Include/cmsis_gcc.h ****  * @file     cmsis_gcc.h
   3:Drivers/CMSIS/Include/cmsis_gcc.h ****  * @brief    CMSIS compiler GCC header file
   4:Drivers/CMSIS/Include/cmsis_gcc.h ****  * @version  V5.4.1
   5:Drivers/CMSIS/Include/cmsis_gcc.h ****  * @date     27. May 2021
   6:Drivers/CMSIS/Include/cmsis_gcc.h ****  ******************************************************************************/
   7:Drivers/CMSIS/Include/cmsis_gcc.h **** /*
   8:Drivers/CMSIS/Include/cmsis_gcc.h ****  * Copyright (c) 2009-2021 Arm Limited. All rights reserved.
   9:Drivers/CMSIS/Include/cmsis_gcc.h ****  *
  10:Drivers/CMSIS/Include/cmsis_gcc.h ****  * SPDX-License-Identifier: Apache-2.0
  11:Drivers/CMSIS/Include/cmsis_gcc.h ****  *
  12:Drivers/CMSIS/Include/cmsis_gcc.h ****  * Licensed under the Apache License, Version 2.0 (the License); you may
  13:Drivers/CMSIS/Include/cmsis_gcc.h ****  * not use this file except in compliance with the License.
  14:Drivers/CMSIS/Include/cmsis_gcc.h ****  * You may obtain a copy of the License at
  15:Drivers/CMSIS/Include/cmsis_gcc.h ****  *
  16:Drivers/CMSIS/Include/cmsis_gcc.h ****  * www.apache.org/licenses/LICENSE-2.0
  17:Drivers/CMSIS/Include/cmsis_gcc.h ****  *
  18:Drivers/CMSIS/Include/cmsis_gcc.h ****  * Unless required by applicable law or agreed to in writing, software
  19:Drivers/CMSIS/Include/cmsis_gcc.h ****  * distributed under the License is distributed on an AS IS BASIS, WITHOUT
  20:Drivers/CMSIS/Include/cmsis_gcc.h ****  * WARRANTIES OR CONDITIONS OF ANY KIND, either express or implied.
  21:Drivers/CMSIS/Include/cmsis_gcc.h ****  * See the License for the specific language governing permissions and
  22:Drivers/CMSIS/Include/cmsis_gcc.h ****  * limitations under the License.
  23:Drivers/CMSIS/Include/cmsis_gcc.h ****  */
  24:Drivers/CMSIS/Include/cmsis_gcc.h **** 
  25:Drivers/CMSIS/Include/cmsis_gcc.h **** #ifndef __CMSIS_GCC_H
  26:Drivers/CMSIS/Include/cmsis_gcc.h **** #define __CMSIS_GCC_H
  27:Drivers/CMSIS/Include/cmsis_gcc.h **** 
  28:Drivers/CMSIS/Include/cmsis_gcc.h **** /* ignore some GCC warnings */
  29:Drivers/CMSIS/Include/cmsis_gcc.h **** #pragma GCC diagnostic push
  30:Drivers/CMSIS/Include/cmsis_gcc.h **** #pragma GCC diagnostic ignored "-Wsign-conversion"
  31:Drivers/CMSIS/Include/cmsis_gcc.h **** #pragma GCC diagnostic ignored "-Wconversion"
  32:Drivers/CMSIS/Include/cmsis_gcc.h **** #pragma GCC diagnostic ignored "-Wunused-parameter"
  33:Drivers/CMSIS/Include/cmsis_gcc.h **** 
  34:Drivers/CMSIS/Include/cmsis_gcc.h **** /* Fallback for __has_builtin */
  35:Drivers/CMSIS/Include/cmsis_gcc.h **** #ifndef __has_builtin
  36:Drivers/CMSIS/Include/cmsis_gcc.h ****   #define __has_builtin(x) (0)
ARM GAS  C:\Users\kroko\AppData\Local\Temp\ccpAdhTr.s 			page 59


  37:Drivers/CMSIS/Include/cmsis_gcc.h **** #endif
  38:Drivers/CMSIS/Include/cmsis_gcc.h **** 
  39:Drivers/CMSIS/Include/cmsis_gcc.h **** /* CMSIS compiler specific defines */
  40:Drivers/CMSIS/Include/cmsis_gcc.h **** #ifndef   __ASM
  41:Drivers/CMSIS/Include/cmsis_gcc.h ****   #define __ASM                                  __asm
  42:Drivers/CMSIS/Include/cmsis_gcc.h **** #endif
  43:Drivers/CMSIS/Include/cmsis_gcc.h **** #ifndef   __INLINE
  44:Drivers/CMSIS/Include/cmsis_gcc.h ****   #define __INLINE                               inline
  45:Drivers/CMSIS/Include/cmsis_gcc.h **** #endif
  46:Drivers/CMSIS/Include/cmsis_gcc.h **** #ifndef   __STATIC_INLINE
  47:Drivers/CMSIS/Include/cmsis_gcc.h ****   #define __STATIC_INLINE                        static inline
  48:Drivers/CMSIS/Include/cmsis_gcc.h **** #endif
  49:Drivers/CMSIS/Include/cmsis_gcc.h **** #ifndef   __STATIC_FORCEINLINE
  50:Drivers/CMSIS/Include/cmsis_gcc.h ****   #define __STATIC_FORCEINLINE                   __attribute__((always_inline)) static inline
  51:Drivers/CMSIS/Include/cmsis_gcc.h **** #endif
  52:Drivers/CMSIS/Include/cmsis_gcc.h **** #ifndef   __NO_RETURN
  53:Drivers/CMSIS/Include/cmsis_gcc.h ****   #define __NO_RETURN                            __attribute__((__noreturn__))
  54:Drivers/CMSIS/Include/cmsis_gcc.h **** #endif
  55:Drivers/CMSIS/Include/cmsis_gcc.h **** #ifndef   __USED
  56:Drivers/CMSIS/Include/cmsis_gcc.h ****   #define __USED                                 __attribute__((used))
  57:Drivers/CMSIS/Include/cmsis_gcc.h **** #endif
  58:Drivers/CMSIS/Include/cmsis_gcc.h **** #ifndef   __WEAK
  59:Drivers/CMSIS/Include/cmsis_gcc.h ****   #define __WEAK                                 __attribute__((weak))
  60:Drivers/CMSIS/Include/cmsis_gcc.h **** #endif
  61:Drivers/CMSIS/Include/cmsis_gcc.h **** #ifndef   __PACKED
  62:Drivers/CMSIS/Include/cmsis_gcc.h ****   #define __PACKED                               __attribute__((packed, aligned(1)))
  63:Drivers/CMSIS/Include/cmsis_gcc.h **** #endif
  64:Drivers/CMSIS/Include/cmsis_gcc.h **** #ifndef   __PACKED_STRUCT
  65:Drivers/CMSIS/Include/cmsis_gcc.h ****   #define __PACKED_STRUCT                        struct __attribute__((packed, aligned(1)))
  66:Drivers/CMSIS/Include/cmsis_gcc.h **** #endif
  67:Drivers/CMSIS/Include/cmsis_gcc.h **** #ifndef   __PACKED_UNION
  68:Drivers/CMSIS/Include/cmsis_gcc.h ****   #define __PACKED_UNION                         union __attribute__((packed, aligned(1)))
  69:Drivers/CMSIS/Include/cmsis_gcc.h **** #endif
  70:Drivers/CMSIS/Include/cmsis_gcc.h **** #ifndef   __UNALIGNED_UINT32        /* deprecated */
  71:Drivers/CMSIS/Include/cmsis_gcc.h ****   #pragma GCC diagnostic push
  72:Drivers/CMSIS/Include/cmsis_gcc.h ****   #pragma GCC diagnostic ignored "-Wpacked"
  73:Drivers/CMSIS/Include/cmsis_gcc.h ****   #pragma GCC diagnostic ignored "-Wattributes"
  74:Drivers/CMSIS/Include/cmsis_gcc.h ****   struct __attribute__((packed)) T_UINT32 { uint32_t v; };
  75:Drivers/CMSIS/Include/cmsis_gcc.h ****   #pragma GCC diagnostic pop
  76:Drivers/CMSIS/Include/cmsis_gcc.h ****   #define __UNALIGNED_UINT32(x)                  (((struct T_UINT32 *)(x))->v)
  77:Drivers/CMSIS/Include/cmsis_gcc.h **** #endif
  78:Drivers/CMSIS/Include/cmsis_gcc.h **** #ifndef   __UNALIGNED_UINT16_WRITE
  79:Drivers/CMSIS/Include/cmsis_gcc.h ****   #pragma GCC diagnostic push
  80:Drivers/CMSIS/Include/cmsis_gcc.h ****   #pragma GCC diagnostic ignored "-Wpacked"
  81:Drivers/CMSIS/Include/cmsis_gcc.h ****   #pragma GCC diagnostic ignored "-Wattributes"
  82:Drivers/CMSIS/Include/cmsis_gcc.h ****   __PACKED_STRUCT T_UINT16_WRITE { uint16_t v; };
  83:Drivers/CMSIS/Include/cmsis_gcc.h ****   #pragma GCC diagnostic pop
  84:Drivers/CMSIS/Include/cmsis_gcc.h ****   #define __UNALIGNED_UINT16_WRITE(addr, val)    (void)((((struct T_UINT16_WRITE *)(void *)(addr))-
  85:Drivers/CMSIS/Include/cmsis_gcc.h **** #endif
  86:Drivers/CMSIS/Include/cmsis_gcc.h **** #ifndef   __UNALIGNED_UINT16_READ
  87:Drivers/CMSIS/Include/cmsis_gcc.h ****   #pragma GCC diagnostic push
  88:Drivers/CMSIS/Include/cmsis_gcc.h ****   #pragma GCC diagnostic ignored "-Wpacked"
  89:Drivers/CMSIS/Include/cmsis_gcc.h ****   #pragma GCC diagnostic ignored "-Wattributes"
  90:Drivers/CMSIS/Include/cmsis_gcc.h ****   __PACKED_STRUCT T_UINT16_READ { uint16_t v; };
  91:Drivers/CMSIS/Include/cmsis_gcc.h ****   #pragma GCC diagnostic pop
  92:Drivers/CMSIS/Include/cmsis_gcc.h ****   #define __UNALIGNED_UINT16_READ(addr)          (((const struct T_UINT16_READ *)(const void *)(add
  93:Drivers/CMSIS/Include/cmsis_gcc.h **** #endif
ARM GAS  C:\Users\kroko\AppData\Local\Temp\ccpAdhTr.s 			page 60


  94:Drivers/CMSIS/Include/cmsis_gcc.h **** #ifndef   __UNALIGNED_UINT32_WRITE
  95:Drivers/CMSIS/Include/cmsis_gcc.h ****   #pragma GCC diagnostic push
  96:Drivers/CMSIS/Include/cmsis_gcc.h ****   #pragma GCC diagnostic ignored "-Wpacked"
  97:Drivers/CMSIS/Include/cmsis_gcc.h ****   #pragma GCC diagnostic ignored "-Wattributes"
  98:Drivers/CMSIS/Include/cmsis_gcc.h ****   __PACKED_STRUCT T_UINT32_WRITE { uint32_t v; };
  99:Drivers/CMSIS/Include/cmsis_gcc.h ****   #pragma GCC diagnostic pop
 100:Drivers/CMSIS/Include/cmsis_gcc.h ****   #define __UNALIGNED_UINT32_WRITE(addr, val)    (void)((((struct T_UINT32_WRITE *)(void *)(addr))-
 101:Drivers/CMSIS/Include/cmsis_gcc.h **** #endif
 102:Drivers/CMSIS/Include/cmsis_gcc.h **** #ifndef   __UNALIGNED_UINT32_READ
 103:Drivers/CMSIS/Include/cmsis_gcc.h ****   #pragma GCC diagnostic push
 104:Drivers/CMSIS/Include/cmsis_gcc.h ****   #pragma GCC diagnostic ignored "-Wpacked"
 105:Drivers/CMSIS/Include/cmsis_gcc.h ****   #pragma GCC diagnostic ignored "-Wattributes"
 106:Drivers/CMSIS/Include/cmsis_gcc.h ****   __PACKED_STRUCT T_UINT32_READ { uint32_t v; };
 107:Drivers/CMSIS/Include/cmsis_gcc.h ****   #pragma GCC diagnostic pop
 108:Drivers/CMSIS/Include/cmsis_gcc.h ****   #define __UNALIGNED_UINT32_READ(addr)          (((const struct T_UINT32_READ *)(const void *)(add
 109:Drivers/CMSIS/Include/cmsis_gcc.h **** #endif
 110:Drivers/CMSIS/Include/cmsis_gcc.h **** #ifndef   __ALIGNED
 111:Drivers/CMSIS/Include/cmsis_gcc.h ****   #define __ALIGNED(x)                           __attribute__((aligned(x)))
 112:Drivers/CMSIS/Include/cmsis_gcc.h **** #endif
 113:Drivers/CMSIS/Include/cmsis_gcc.h **** #ifndef   __RESTRICT
 114:Drivers/CMSIS/Include/cmsis_gcc.h ****   #define __RESTRICT                             __restrict
 115:Drivers/CMSIS/Include/cmsis_gcc.h **** #endif
 116:Drivers/CMSIS/Include/cmsis_gcc.h **** #ifndef   __COMPILER_BARRIER
 117:Drivers/CMSIS/Include/cmsis_gcc.h ****   #define __COMPILER_BARRIER()                   __ASM volatile("":::"memory")
 118:Drivers/CMSIS/Include/cmsis_gcc.h **** #endif
 119:Drivers/CMSIS/Include/cmsis_gcc.h **** 
 120:Drivers/CMSIS/Include/cmsis_gcc.h **** /* #########################  Startup and Lowlevel Init  ######################## */
 121:Drivers/CMSIS/Include/cmsis_gcc.h **** 
 122:Drivers/CMSIS/Include/cmsis_gcc.h **** #ifndef __PROGRAM_START
 123:Drivers/CMSIS/Include/cmsis_gcc.h **** 
 124:Drivers/CMSIS/Include/cmsis_gcc.h **** /**
 125:Drivers/CMSIS/Include/cmsis_gcc.h ****   \brief   Initializes data and bss sections
 126:Drivers/CMSIS/Include/cmsis_gcc.h ****   \details This default implementations initialized all data and additional bss
 127:Drivers/CMSIS/Include/cmsis_gcc.h ****            sections relying on .copy.table and .zero.table specified properly
 128:Drivers/CMSIS/Include/cmsis_gcc.h ****            in the used linker script.
 129:Drivers/CMSIS/Include/cmsis_gcc.h **** 
 130:Drivers/CMSIS/Include/cmsis_gcc.h ****  */
 131:Drivers/CMSIS/Include/cmsis_gcc.h **** __STATIC_FORCEINLINE __NO_RETURN void __cmsis_start(void)
 132:Drivers/CMSIS/Include/cmsis_gcc.h **** {
 133:Drivers/CMSIS/Include/cmsis_gcc.h ****   extern void _start(void) __NO_RETURN;
 134:Drivers/CMSIS/Include/cmsis_gcc.h **** 
 135:Drivers/CMSIS/Include/cmsis_gcc.h ****   typedef struct {
 136:Drivers/CMSIS/Include/cmsis_gcc.h ****     uint32_t const* src;
 137:Drivers/CMSIS/Include/cmsis_gcc.h ****     uint32_t* dest;
 138:Drivers/CMSIS/Include/cmsis_gcc.h ****     uint32_t  wlen;
 139:Drivers/CMSIS/Include/cmsis_gcc.h ****   } __copy_table_t;
 140:Drivers/CMSIS/Include/cmsis_gcc.h **** 
 141:Drivers/CMSIS/Include/cmsis_gcc.h ****   typedef struct {
 142:Drivers/CMSIS/Include/cmsis_gcc.h ****     uint32_t* dest;
 143:Drivers/CMSIS/Include/cmsis_gcc.h ****     uint32_t  wlen;
 144:Drivers/CMSIS/Include/cmsis_gcc.h ****   } __zero_table_t;
 145:Drivers/CMSIS/Include/cmsis_gcc.h **** 
 146:Drivers/CMSIS/Include/cmsis_gcc.h ****   extern const __copy_table_t __copy_table_start__;
 147:Drivers/CMSIS/Include/cmsis_gcc.h ****   extern const __copy_table_t __copy_table_end__;
 148:Drivers/CMSIS/Include/cmsis_gcc.h ****   extern const __zero_table_t __zero_table_start__;
 149:Drivers/CMSIS/Include/cmsis_gcc.h ****   extern const __zero_table_t __zero_table_end__;
 150:Drivers/CMSIS/Include/cmsis_gcc.h **** 
ARM GAS  C:\Users\kroko\AppData\Local\Temp\ccpAdhTr.s 			page 61


 151:Drivers/CMSIS/Include/cmsis_gcc.h ****   for (__copy_table_t const* pTable = &__copy_table_start__; pTable < &__copy_table_end__; ++pTable
 152:Drivers/CMSIS/Include/cmsis_gcc.h ****     for(uint32_t i=0u; i<pTable->wlen; ++i) {
 153:Drivers/CMSIS/Include/cmsis_gcc.h ****       pTable->dest[i] = pTable->src[i];
 154:Drivers/CMSIS/Include/cmsis_gcc.h ****     }
 155:Drivers/CMSIS/Include/cmsis_gcc.h ****   }
 156:Drivers/CMSIS/Include/cmsis_gcc.h **** 
 157:Drivers/CMSIS/Include/cmsis_gcc.h ****   for (__zero_table_t const* pTable = &__zero_table_start__; pTable < &__zero_table_end__; ++pTable
 158:Drivers/CMSIS/Include/cmsis_gcc.h ****     for(uint32_t i=0u; i<pTable->wlen; ++i) {
 159:Drivers/CMSIS/Include/cmsis_gcc.h ****       pTable->dest[i] = 0u;
 160:Drivers/CMSIS/Include/cmsis_gcc.h ****     }
 161:Drivers/CMSIS/Include/cmsis_gcc.h ****   }
 162:Drivers/CMSIS/Include/cmsis_gcc.h **** 
 163:Drivers/CMSIS/Include/cmsis_gcc.h ****   _start();
 164:Drivers/CMSIS/Include/cmsis_gcc.h **** }
 165:Drivers/CMSIS/Include/cmsis_gcc.h **** 
 166:Drivers/CMSIS/Include/cmsis_gcc.h **** #define __PROGRAM_START           __cmsis_start
 167:Drivers/CMSIS/Include/cmsis_gcc.h **** #endif
 168:Drivers/CMSIS/Include/cmsis_gcc.h **** 
 169:Drivers/CMSIS/Include/cmsis_gcc.h **** #ifndef __INITIAL_SP
 170:Drivers/CMSIS/Include/cmsis_gcc.h **** #define __INITIAL_SP              __StackTop
 171:Drivers/CMSIS/Include/cmsis_gcc.h **** #endif
 172:Drivers/CMSIS/Include/cmsis_gcc.h **** 
 173:Drivers/CMSIS/Include/cmsis_gcc.h **** #ifndef __STACK_LIMIT
 174:Drivers/CMSIS/Include/cmsis_gcc.h **** #define __STACK_LIMIT             __StackLimit
 175:Drivers/CMSIS/Include/cmsis_gcc.h **** #endif
 176:Drivers/CMSIS/Include/cmsis_gcc.h **** 
 177:Drivers/CMSIS/Include/cmsis_gcc.h **** #ifndef __VECTOR_TABLE
 178:Drivers/CMSIS/Include/cmsis_gcc.h **** #define __VECTOR_TABLE            __Vectors
 179:Drivers/CMSIS/Include/cmsis_gcc.h **** #endif
 180:Drivers/CMSIS/Include/cmsis_gcc.h **** 
 181:Drivers/CMSIS/Include/cmsis_gcc.h **** #ifndef __VECTOR_TABLE_ATTRIBUTE
 182:Drivers/CMSIS/Include/cmsis_gcc.h **** #define __VECTOR_TABLE_ATTRIBUTE  __attribute__((used, section(".vectors")))
 183:Drivers/CMSIS/Include/cmsis_gcc.h **** #endif
 184:Drivers/CMSIS/Include/cmsis_gcc.h **** 
 185:Drivers/CMSIS/Include/cmsis_gcc.h **** #if defined (__ARM_FEATURE_CMSE) && (__ARM_FEATURE_CMSE == 3U)
 186:Drivers/CMSIS/Include/cmsis_gcc.h **** #ifndef __STACK_SEAL
 187:Drivers/CMSIS/Include/cmsis_gcc.h **** #define __STACK_SEAL              __StackSeal
 188:Drivers/CMSIS/Include/cmsis_gcc.h **** #endif
 189:Drivers/CMSIS/Include/cmsis_gcc.h **** 
 190:Drivers/CMSIS/Include/cmsis_gcc.h **** #ifndef __TZ_STACK_SEAL_SIZE
 191:Drivers/CMSIS/Include/cmsis_gcc.h **** #define __TZ_STACK_SEAL_SIZE      8U
 192:Drivers/CMSIS/Include/cmsis_gcc.h **** #endif
 193:Drivers/CMSIS/Include/cmsis_gcc.h **** 
 194:Drivers/CMSIS/Include/cmsis_gcc.h **** #ifndef __TZ_STACK_SEAL_VALUE
 195:Drivers/CMSIS/Include/cmsis_gcc.h **** #define __TZ_STACK_SEAL_VALUE     0xFEF5EDA5FEF5EDA5ULL
 196:Drivers/CMSIS/Include/cmsis_gcc.h **** #endif
 197:Drivers/CMSIS/Include/cmsis_gcc.h **** 
 198:Drivers/CMSIS/Include/cmsis_gcc.h **** 
 199:Drivers/CMSIS/Include/cmsis_gcc.h **** __STATIC_FORCEINLINE void __TZ_set_STACKSEAL_S (uint32_t* stackTop) {
 200:Drivers/CMSIS/Include/cmsis_gcc.h ****   *((uint64_t *)stackTop) = __TZ_STACK_SEAL_VALUE;
 201:Drivers/CMSIS/Include/cmsis_gcc.h **** }
 202:Drivers/CMSIS/Include/cmsis_gcc.h **** #endif
 203:Drivers/CMSIS/Include/cmsis_gcc.h **** 
 204:Drivers/CMSIS/Include/cmsis_gcc.h **** 
 205:Drivers/CMSIS/Include/cmsis_gcc.h **** /* ##########################  Core Instruction Access  ######################### */
 206:Drivers/CMSIS/Include/cmsis_gcc.h **** /** \defgroup CMSIS_Core_InstructionInterface CMSIS Core Instruction Interface
 207:Drivers/CMSIS/Include/cmsis_gcc.h ****   Access to dedicated instructions
ARM GAS  C:\Users\kroko\AppData\Local\Temp\ccpAdhTr.s 			page 62


 208:Drivers/CMSIS/Include/cmsis_gcc.h ****   @{
 209:Drivers/CMSIS/Include/cmsis_gcc.h **** */
 210:Drivers/CMSIS/Include/cmsis_gcc.h **** 
 211:Drivers/CMSIS/Include/cmsis_gcc.h **** /* Define macros for porting to both thumb1 and thumb2.
 212:Drivers/CMSIS/Include/cmsis_gcc.h ****  * For thumb1, use low register (r0-r7), specified by constraint "l"
 213:Drivers/CMSIS/Include/cmsis_gcc.h ****  * Otherwise, use general registers, specified by constraint "r" */
 214:Drivers/CMSIS/Include/cmsis_gcc.h **** #if defined (__thumb__) && !defined (__thumb2__)
 215:Drivers/CMSIS/Include/cmsis_gcc.h **** #define __CMSIS_GCC_OUT_REG(r) "=l" (r)
 216:Drivers/CMSIS/Include/cmsis_gcc.h **** #define __CMSIS_GCC_RW_REG(r) "+l" (r)
 217:Drivers/CMSIS/Include/cmsis_gcc.h **** #define __CMSIS_GCC_USE_REG(r) "l" (r)
 218:Drivers/CMSIS/Include/cmsis_gcc.h **** #else
 219:Drivers/CMSIS/Include/cmsis_gcc.h **** #define __CMSIS_GCC_OUT_REG(r) "=r" (r)
 220:Drivers/CMSIS/Include/cmsis_gcc.h **** #define __CMSIS_GCC_RW_REG(r) "+r" (r)
 221:Drivers/CMSIS/Include/cmsis_gcc.h **** #define __CMSIS_GCC_USE_REG(r) "r" (r)
 222:Drivers/CMSIS/Include/cmsis_gcc.h **** #endif
 223:Drivers/CMSIS/Include/cmsis_gcc.h **** 
 224:Drivers/CMSIS/Include/cmsis_gcc.h **** /**
 225:Drivers/CMSIS/Include/cmsis_gcc.h ****   \brief   No Operation
 226:Drivers/CMSIS/Include/cmsis_gcc.h ****   \details No Operation does nothing. This instruction can be used for code alignment purposes.
 227:Drivers/CMSIS/Include/cmsis_gcc.h ****  */
 228:Drivers/CMSIS/Include/cmsis_gcc.h **** #define __NOP()                             __ASM volatile ("nop")
 229:Drivers/CMSIS/Include/cmsis_gcc.h **** 
 230:Drivers/CMSIS/Include/cmsis_gcc.h **** /**
 231:Drivers/CMSIS/Include/cmsis_gcc.h ****   \brief   Wait For Interrupt
 232:Drivers/CMSIS/Include/cmsis_gcc.h ****   \details Wait For Interrupt is a hint instruction that suspends execution until one of a number o
 233:Drivers/CMSIS/Include/cmsis_gcc.h ****  */
 234:Drivers/CMSIS/Include/cmsis_gcc.h **** #define __WFI()                             __ASM volatile ("wfi":::"memory")
 235:Drivers/CMSIS/Include/cmsis_gcc.h **** 
 236:Drivers/CMSIS/Include/cmsis_gcc.h **** 
 237:Drivers/CMSIS/Include/cmsis_gcc.h **** /**
 238:Drivers/CMSIS/Include/cmsis_gcc.h ****   \brief   Wait For Event
 239:Drivers/CMSIS/Include/cmsis_gcc.h ****   \details Wait For Event is a hint instruction that permits the processor to enter
 240:Drivers/CMSIS/Include/cmsis_gcc.h ****            a low-power state until one of a number of events occurs.
 241:Drivers/CMSIS/Include/cmsis_gcc.h ****  */
 242:Drivers/CMSIS/Include/cmsis_gcc.h **** #define __WFE()                             __ASM volatile ("wfe":::"memory")
 243:Drivers/CMSIS/Include/cmsis_gcc.h **** 
 244:Drivers/CMSIS/Include/cmsis_gcc.h **** 
 245:Drivers/CMSIS/Include/cmsis_gcc.h **** /**
 246:Drivers/CMSIS/Include/cmsis_gcc.h ****   \brief   Send Event
 247:Drivers/CMSIS/Include/cmsis_gcc.h ****   \details Send Event is a hint instruction. It causes an event to be signaled to the CPU.
 248:Drivers/CMSIS/Include/cmsis_gcc.h ****  */
 249:Drivers/CMSIS/Include/cmsis_gcc.h **** #define __SEV()                             __ASM volatile ("sev")
 250:Drivers/CMSIS/Include/cmsis_gcc.h **** 
 251:Drivers/CMSIS/Include/cmsis_gcc.h **** 
 252:Drivers/CMSIS/Include/cmsis_gcc.h **** /**
 253:Drivers/CMSIS/Include/cmsis_gcc.h ****   \brief   Instruction Synchronization Barrier
 254:Drivers/CMSIS/Include/cmsis_gcc.h ****   \details Instruction Synchronization Barrier flushes the pipeline in the processor,
 255:Drivers/CMSIS/Include/cmsis_gcc.h ****            so that all instructions following the ISB are fetched from cache or memory,
 256:Drivers/CMSIS/Include/cmsis_gcc.h ****            after the instruction has been completed.
 257:Drivers/CMSIS/Include/cmsis_gcc.h ****  */
 258:Drivers/CMSIS/Include/cmsis_gcc.h **** __STATIC_FORCEINLINE void __ISB(void)
 259:Drivers/CMSIS/Include/cmsis_gcc.h **** {
 260:Drivers/CMSIS/Include/cmsis_gcc.h ****   __ASM volatile ("isb 0xF":::"memory");
 261:Drivers/CMSIS/Include/cmsis_gcc.h **** }
 262:Drivers/CMSIS/Include/cmsis_gcc.h **** 
 263:Drivers/CMSIS/Include/cmsis_gcc.h **** 
 264:Drivers/CMSIS/Include/cmsis_gcc.h **** /**
ARM GAS  C:\Users\kroko\AppData\Local\Temp\ccpAdhTr.s 			page 63


 265:Drivers/CMSIS/Include/cmsis_gcc.h ****   \brief   Data Synchronization Barrier
 266:Drivers/CMSIS/Include/cmsis_gcc.h ****   \details Acts as a special kind of Data Memory Barrier.
 267:Drivers/CMSIS/Include/cmsis_gcc.h ****            It completes when all explicit memory accesses before this instruction complete.
 268:Drivers/CMSIS/Include/cmsis_gcc.h ****  */
 269:Drivers/CMSIS/Include/cmsis_gcc.h **** __STATIC_FORCEINLINE void __DSB(void)
 270:Drivers/CMSIS/Include/cmsis_gcc.h **** {
 271:Drivers/CMSIS/Include/cmsis_gcc.h ****   __ASM volatile ("dsb 0xF":::"memory");
 272:Drivers/CMSIS/Include/cmsis_gcc.h **** }
 273:Drivers/CMSIS/Include/cmsis_gcc.h **** 
 274:Drivers/CMSIS/Include/cmsis_gcc.h **** 
 275:Drivers/CMSIS/Include/cmsis_gcc.h **** /**
 276:Drivers/CMSIS/Include/cmsis_gcc.h ****   \brief   Data Memory Barrier
 277:Drivers/CMSIS/Include/cmsis_gcc.h ****   \details Ensures the apparent order of the explicit memory operations before
 278:Drivers/CMSIS/Include/cmsis_gcc.h ****            and after the instruction, without ensuring their completion.
 279:Drivers/CMSIS/Include/cmsis_gcc.h ****  */
 280:Drivers/CMSIS/Include/cmsis_gcc.h **** __STATIC_FORCEINLINE void __DMB(void)
 281:Drivers/CMSIS/Include/cmsis_gcc.h **** {
 282:Drivers/CMSIS/Include/cmsis_gcc.h ****   __ASM volatile ("dmb 0xF":::"memory");
 283:Drivers/CMSIS/Include/cmsis_gcc.h **** }
 284:Drivers/CMSIS/Include/cmsis_gcc.h **** 
 285:Drivers/CMSIS/Include/cmsis_gcc.h **** 
 286:Drivers/CMSIS/Include/cmsis_gcc.h **** /**
 287:Drivers/CMSIS/Include/cmsis_gcc.h ****   \brief   Reverse byte order (32 bit)
 288:Drivers/CMSIS/Include/cmsis_gcc.h ****   \details Reverses the byte order in unsigned integer value. For example, 0x12345678 becomes 0x785
 289:Drivers/CMSIS/Include/cmsis_gcc.h ****   \param [in]    value  Value to reverse
 290:Drivers/CMSIS/Include/cmsis_gcc.h ****   \return               Reversed value
 291:Drivers/CMSIS/Include/cmsis_gcc.h ****  */
 292:Drivers/CMSIS/Include/cmsis_gcc.h **** __STATIC_FORCEINLINE uint32_t __REV(uint32_t value)
 293:Drivers/CMSIS/Include/cmsis_gcc.h **** {
 294:Drivers/CMSIS/Include/cmsis_gcc.h **** #if (__GNUC__ > 4) || (__GNUC__ == 4 && __GNUC_MINOR__ >= 5)
 295:Drivers/CMSIS/Include/cmsis_gcc.h ****   return __builtin_bswap32(value);
 296:Drivers/CMSIS/Include/cmsis_gcc.h **** #else
 297:Drivers/CMSIS/Include/cmsis_gcc.h ****   uint32_t result;
 298:Drivers/CMSIS/Include/cmsis_gcc.h **** 
 299:Drivers/CMSIS/Include/cmsis_gcc.h ****   __ASM ("rev %0, %1" : __CMSIS_GCC_OUT_REG (result) : __CMSIS_GCC_USE_REG (value) );
 300:Drivers/CMSIS/Include/cmsis_gcc.h ****   return result;
 301:Drivers/CMSIS/Include/cmsis_gcc.h **** #endif
 302:Drivers/CMSIS/Include/cmsis_gcc.h **** }
 303:Drivers/CMSIS/Include/cmsis_gcc.h **** 
 304:Drivers/CMSIS/Include/cmsis_gcc.h **** 
 305:Drivers/CMSIS/Include/cmsis_gcc.h **** /**
 306:Drivers/CMSIS/Include/cmsis_gcc.h ****   \brief   Reverse byte order (16 bit)
 307:Drivers/CMSIS/Include/cmsis_gcc.h ****   \details Reverses the byte order within each halfword of a word. For example, 0x12345678 becomes 
 308:Drivers/CMSIS/Include/cmsis_gcc.h ****   \param [in]    value  Value to reverse
 309:Drivers/CMSIS/Include/cmsis_gcc.h ****   \return               Reversed value
 310:Drivers/CMSIS/Include/cmsis_gcc.h ****  */
 311:Drivers/CMSIS/Include/cmsis_gcc.h **** __STATIC_FORCEINLINE uint32_t __REV16(uint32_t value)
 312:Drivers/CMSIS/Include/cmsis_gcc.h **** {
 313:Drivers/CMSIS/Include/cmsis_gcc.h ****   uint32_t result;
 314:Drivers/CMSIS/Include/cmsis_gcc.h **** 
 315:Drivers/CMSIS/Include/cmsis_gcc.h ****   __ASM ("rev16 %0, %1" : __CMSIS_GCC_OUT_REG (result) : __CMSIS_GCC_USE_REG (value) );
 316:Drivers/CMSIS/Include/cmsis_gcc.h ****   return result;
 317:Drivers/CMSIS/Include/cmsis_gcc.h **** }
 318:Drivers/CMSIS/Include/cmsis_gcc.h **** 
 319:Drivers/CMSIS/Include/cmsis_gcc.h **** 
 320:Drivers/CMSIS/Include/cmsis_gcc.h **** /**
 321:Drivers/CMSIS/Include/cmsis_gcc.h ****   \brief   Reverse byte order (16 bit)
ARM GAS  C:\Users\kroko\AppData\Local\Temp\ccpAdhTr.s 			page 64


 322:Drivers/CMSIS/Include/cmsis_gcc.h ****   \details Reverses the byte order in a 16-bit value and returns the signed 16-bit result. For exam
 323:Drivers/CMSIS/Include/cmsis_gcc.h ****   \param [in]    value  Value to reverse
 324:Drivers/CMSIS/Include/cmsis_gcc.h ****   \return               Reversed value
 325:Drivers/CMSIS/Include/cmsis_gcc.h ****  */
 326:Drivers/CMSIS/Include/cmsis_gcc.h **** __STATIC_FORCEINLINE int16_t __REVSH(int16_t value)
 327:Drivers/CMSIS/Include/cmsis_gcc.h **** {
 328:Drivers/CMSIS/Include/cmsis_gcc.h **** #if (__GNUC__ > 4) || (__GNUC__ == 4 && __GNUC_MINOR__ >= 8)
 329:Drivers/CMSIS/Include/cmsis_gcc.h ****   return (int16_t)__builtin_bswap16(value);
 330:Drivers/CMSIS/Include/cmsis_gcc.h **** #else
 331:Drivers/CMSIS/Include/cmsis_gcc.h ****   int16_t result;
 332:Drivers/CMSIS/Include/cmsis_gcc.h **** 
 333:Drivers/CMSIS/Include/cmsis_gcc.h ****   __ASM ("revsh %0, %1" : __CMSIS_GCC_OUT_REG (result) : __CMSIS_GCC_USE_REG (value) );
 334:Drivers/CMSIS/Include/cmsis_gcc.h ****   return result;
 335:Drivers/CMSIS/Include/cmsis_gcc.h **** #endif
 336:Drivers/CMSIS/Include/cmsis_gcc.h **** }
 337:Drivers/CMSIS/Include/cmsis_gcc.h **** 
 338:Drivers/CMSIS/Include/cmsis_gcc.h **** 
 339:Drivers/CMSIS/Include/cmsis_gcc.h **** /**
 340:Drivers/CMSIS/Include/cmsis_gcc.h ****   \brief   Rotate Right in unsigned value (32 bit)
 341:Drivers/CMSIS/Include/cmsis_gcc.h ****   \details Rotate Right (immediate) provides the value of the contents of a register rotated by a v
 342:Drivers/CMSIS/Include/cmsis_gcc.h ****   \param [in]    op1  Value to rotate
 343:Drivers/CMSIS/Include/cmsis_gcc.h ****   \param [in]    op2  Number of Bits to rotate
 344:Drivers/CMSIS/Include/cmsis_gcc.h ****   \return               Rotated value
 345:Drivers/CMSIS/Include/cmsis_gcc.h ****  */
 346:Drivers/CMSIS/Include/cmsis_gcc.h **** __STATIC_FORCEINLINE uint32_t __ROR(uint32_t op1, uint32_t op2)
 347:Drivers/CMSIS/Include/cmsis_gcc.h **** {
 348:Drivers/CMSIS/Include/cmsis_gcc.h ****   op2 %= 32U;
 349:Drivers/CMSIS/Include/cmsis_gcc.h ****   if (op2 == 0U)
 350:Drivers/CMSIS/Include/cmsis_gcc.h ****   {
 351:Drivers/CMSIS/Include/cmsis_gcc.h ****     return op1;
 352:Drivers/CMSIS/Include/cmsis_gcc.h ****   }
 353:Drivers/CMSIS/Include/cmsis_gcc.h ****   return (op1 >> op2) | (op1 << (32U - op2));
 354:Drivers/CMSIS/Include/cmsis_gcc.h **** }
 355:Drivers/CMSIS/Include/cmsis_gcc.h **** 
 356:Drivers/CMSIS/Include/cmsis_gcc.h **** 
 357:Drivers/CMSIS/Include/cmsis_gcc.h **** /**
 358:Drivers/CMSIS/Include/cmsis_gcc.h ****   \brief   Breakpoint
 359:Drivers/CMSIS/Include/cmsis_gcc.h ****   \details Causes the processor to enter Debug state.
 360:Drivers/CMSIS/Include/cmsis_gcc.h ****            Debug tools can use this to investigate system state when the instruction at a particula
 361:Drivers/CMSIS/Include/cmsis_gcc.h ****   \param [in]    value  is ignored by the processor.
 362:Drivers/CMSIS/Include/cmsis_gcc.h ****                  If required, a debugger can use it to store additional information about the break
 363:Drivers/CMSIS/Include/cmsis_gcc.h ****  */
 364:Drivers/CMSIS/Include/cmsis_gcc.h **** #define __BKPT(value)                       __ASM volatile ("bkpt "#value)
 365:Drivers/CMSIS/Include/cmsis_gcc.h **** 
 366:Drivers/CMSIS/Include/cmsis_gcc.h **** 
 367:Drivers/CMSIS/Include/cmsis_gcc.h **** /**
 368:Drivers/CMSIS/Include/cmsis_gcc.h ****   \brief   Reverse bit order of value
 369:Drivers/CMSIS/Include/cmsis_gcc.h ****   \details Reverses the bit order of the given value.
 370:Drivers/CMSIS/Include/cmsis_gcc.h ****   \param [in]    value  Value to reverse
 371:Drivers/CMSIS/Include/cmsis_gcc.h ****   \return               Reversed value
 372:Drivers/CMSIS/Include/cmsis_gcc.h ****  */
 373:Drivers/CMSIS/Include/cmsis_gcc.h **** __STATIC_FORCEINLINE uint32_t __RBIT(uint32_t value)
 374:Drivers/CMSIS/Include/cmsis_gcc.h **** {
 375:Drivers/CMSIS/Include/cmsis_gcc.h ****   uint32_t result;
 376:Drivers/CMSIS/Include/cmsis_gcc.h **** 
 377:Drivers/CMSIS/Include/cmsis_gcc.h **** #if ((defined (__ARM_ARCH_7M__      ) && (__ARM_ARCH_7M__      == 1)) || \
 378:Drivers/CMSIS/Include/cmsis_gcc.h ****      (defined (__ARM_ARCH_7EM__     ) && (__ARM_ARCH_7EM__     == 1)) || \
ARM GAS  C:\Users\kroko\AppData\Local\Temp\ccpAdhTr.s 			page 65


 379:Drivers/CMSIS/Include/cmsis_gcc.h ****      (defined (__ARM_ARCH_8M_MAIN__ ) && (__ARM_ARCH_8M_MAIN__ == 1))    )
 380:Drivers/CMSIS/Include/cmsis_gcc.h ****    __ASM ("rbit %0, %1" : "=r" (result) : "r" (value) );
 381:Drivers/CMSIS/Include/cmsis_gcc.h **** #else
 382:Drivers/CMSIS/Include/cmsis_gcc.h ****   uint32_t s = (4U /*sizeof(v)*/ * 8U) - 1U; /* extra shift needed at end */
 383:Drivers/CMSIS/Include/cmsis_gcc.h **** 
 384:Drivers/CMSIS/Include/cmsis_gcc.h ****   result = value;                      /* r will be reversed bits of v; first get LSB of v */
 385:Drivers/CMSIS/Include/cmsis_gcc.h ****   for (value >>= 1U; value != 0U; value >>= 1U)
 386:Drivers/CMSIS/Include/cmsis_gcc.h ****   {
 387:Drivers/CMSIS/Include/cmsis_gcc.h ****     result <<= 1U;
 388:Drivers/CMSIS/Include/cmsis_gcc.h ****     result |= value & 1U;
 389:Drivers/CMSIS/Include/cmsis_gcc.h ****     s--;
 390:Drivers/CMSIS/Include/cmsis_gcc.h ****   }
 391:Drivers/CMSIS/Include/cmsis_gcc.h ****   result <<= s;                        /* shift when v's highest bits are zero */
 392:Drivers/CMSIS/Include/cmsis_gcc.h **** #endif
 393:Drivers/CMSIS/Include/cmsis_gcc.h ****   return result;
 394:Drivers/CMSIS/Include/cmsis_gcc.h **** }
 395:Drivers/CMSIS/Include/cmsis_gcc.h **** 
 396:Drivers/CMSIS/Include/cmsis_gcc.h **** 
 397:Drivers/CMSIS/Include/cmsis_gcc.h **** /**
 398:Drivers/CMSIS/Include/cmsis_gcc.h ****   \brief   Count leading zeros
 399:Drivers/CMSIS/Include/cmsis_gcc.h ****   \details Counts the number of leading zeros of a data value.
 400:Drivers/CMSIS/Include/cmsis_gcc.h ****   \param [in]  value  Value to count the leading zeros
 401:Drivers/CMSIS/Include/cmsis_gcc.h ****   \return             number of leading zeros in value
 402:Drivers/CMSIS/Include/cmsis_gcc.h ****  */
 403:Drivers/CMSIS/Include/cmsis_gcc.h **** __STATIC_FORCEINLINE uint8_t __CLZ(uint32_t value)
 404:Drivers/CMSIS/Include/cmsis_gcc.h **** {
 405:Drivers/CMSIS/Include/cmsis_gcc.h ****   /* Even though __builtin_clz produces a CLZ instruction on ARM, formally
 406:Drivers/CMSIS/Include/cmsis_gcc.h ****      __builtin_clz(0) is undefined behaviour, so handle this case specially.
 407:Drivers/CMSIS/Include/cmsis_gcc.h ****      This guarantees ARM-compatible results if happening to compile on a non-ARM
 408:Drivers/CMSIS/Include/cmsis_gcc.h ****      target, and ensures the compiler doesn't decide to activate any
 409:Drivers/CMSIS/Include/cmsis_gcc.h ****      optimisations using the logic "value was passed to __builtin_clz, so it
 410:Drivers/CMSIS/Include/cmsis_gcc.h ****      is non-zero".
 411:Drivers/CMSIS/Include/cmsis_gcc.h ****      ARM GCC 7.3 and possibly earlier will optimise this test away, leaving a
 412:Drivers/CMSIS/Include/cmsis_gcc.h ****      single CLZ instruction.
 413:Drivers/CMSIS/Include/cmsis_gcc.h ****    */
 414:Drivers/CMSIS/Include/cmsis_gcc.h ****   if (value == 0U)
 415:Drivers/CMSIS/Include/cmsis_gcc.h ****   {
 416:Drivers/CMSIS/Include/cmsis_gcc.h ****     return 32U;
 417:Drivers/CMSIS/Include/cmsis_gcc.h ****   }
 418:Drivers/CMSIS/Include/cmsis_gcc.h ****   return __builtin_clz(value);
 419:Drivers/CMSIS/Include/cmsis_gcc.h **** }
 420:Drivers/CMSIS/Include/cmsis_gcc.h **** 
 421:Drivers/CMSIS/Include/cmsis_gcc.h **** 
 422:Drivers/CMSIS/Include/cmsis_gcc.h **** #if ((defined (__ARM_ARCH_7M__      ) && (__ARM_ARCH_7M__      == 1)) || \
 423:Drivers/CMSIS/Include/cmsis_gcc.h ****      (defined (__ARM_ARCH_7EM__     ) && (__ARM_ARCH_7EM__     == 1)) || \
 424:Drivers/CMSIS/Include/cmsis_gcc.h ****      (defined (__ARM_ARCH_8M_MAIN__ ) && (__ARM_ARCH_8M_MAIN__ == 1)) || \
 425:Drivers/CMSIS/Include/cmsis_gcc.h ****      (defined (__ARM_ARCH_8M_BASE__ ) && (__ARM_ARCH_8M_BASE__ == 1))    )
 426:Drivers/CMSIS/Include/cmsis_gcc.h **** /**
 427:Drivers/CMSIS/Include/cmsis_gcc.h ****   \brief   LDR Exclusive (8 bit)
 428:Drivers/CMSIS/Include/cmsis_gcc.h ****   \details Executes a exclusive LDR instruction for 8 bit value.
 429:Drivers/CMSIS/Include/cmsis_gcc.h ****   \param [in]    ptr  Pointer to data
 430:Drivers/CMSIS/Include/cmsis_gcc.h ****   \return             value of type uint8_t at (*ptr)
 431:Drivers/CMSIS/Include/cmsis_gcc.h ****  */
 432:Drivers/CMSIS/Include/cmsis_gcc.h **** __STATIC_FORCEINLINE uint8_t __LDREXB(volatile uint8_t *addr)
 433:Drivers/CMSIS/Include/cmsis_gcc.h **** {
 434:Drivers/CMSIS/Include/cmsis_gcc.h ****     uint32_t result;
 435:Drivers/CMSIS/Include/cmsis_gcc.h **** 
ARM GAS  C:\Users\kroko\AppData\Local\Temp\ccpAdhTr.s 			page 66


 436:Drivers/CMSIS/Include/cmsis_gcc.h **** #if (__GNUC__ > 4) || (__GNUC__ == 4 && __GNUC_MINOR__ >= 8)
 437:Drivers/CMSIS/Include/cmsis_gcc.h ****    __ASM volatile ("ldrexb %0, %1" : "=r" (result) : "Q" (*addr) );
 438:Drivers/CMSIS/Include/cmsis_gcc.h **** #else
 439:Drivers/CMSIS/Include/cmsis_gcc.h ****     /* Prior to GCC 4.8, "Q" will be expanded to [rx, #0] which is not
 440:Drivers/CMSIS/Include/cmsis_gcc.h ****        accepted by assembler. So has to use following less efficient pattern.
 441:Drivers/CMSIS/Include/cmsis_gcc.h ****     */
 442:Drivers/CMSIS/Include/cmsis_gcc.h ****    __ASM volatile ("ldrexb %0, [%1]" : "=r" (result) : "r" (addr) : "memory" );
 443:Drivers/CMSIS/Include/cmsis_gcc.h **** #endif
 444:Drivers/CMSIS/Include/cmsis_gcc.h ****    return ((uint8_t) result);    /* Add explicit type cast here */
 445:Drivers/CMSIS/Include/cmsis_gcc.h **** }
 446:Drivers/CMSIS/Include/cmsis_gcc.h **** 
 447:Drivers/CMSIS/Include/cmsis_gcc.h **** 
 448:Drivers/CMSIS/Include/cmsis_gcc.h **** /**
 449:Drivers/CMSIS/Include/cmsis_gcc.h ****   \brief   LDR Exclusive (16 bit)
 450:Drivers/CMSIS/Include/cmsis_gcc.h ****   \details Executes a exclusive LDR instruction for 16 bit values.
 451:Drivers/CMSIS/Include/cmsis_gcc.h ****   \param [in]    ptr  Pointer to data
 452:Drivers/CMSIS/Include/cmsis_gcc.h ****   \return        value of type uint16_t at (*ptr)
 453:Drivers/CMSIS/Include/cmsis_gcc.h ****  */
 454:Drivers/CMSIS/Include/cmsis_gcc.h **** __STATIC_FORCEINLINE uint16_t __LDREXH(volatile uint16_t *addr)
 455:Drivers/CMSIS/Include/cmsis_gcc.h **** {
 456:Drivers/CMSIS/Include/cmsis_gcc.h ****     uint32_t result;
 457:Drivers/CMSIS/Include/cmsis_gcc.h **** 
 458:Drivers/CMSIS/Include/cmsis_gcc.h **** #if (__GNUC__ > 4) || (__GNUC__ == 4 && __GNUC_MINOR__ >= 8)
 459:Drivers/CMSIS/Include/cmsis_gcc.h ****    __ASM volatile ("ldrexh %0, %1" : "=r" (result) : "Q" (*addr) );
 460:Drivers/CMSIS/Include/cmsis_gcc.h **** #else
 461:Drivers/CMSIS/Include/cmsis_gcc.h ****     /* Prior to GCC 4.8, "Q" will be expanded to [rx, #0] which is not
 462:Drivers/CMSIS/Include/cmsis_gcc.h ****        accepted by assembler. So has to use following less efficient pattern.
 463:Drivers/CMSIS/Include/cmsis_gcc.h ****     */
 464:Drivers/CMSIS/Include/cmsis_gcc.h ****    __ASM volatile ("ldrexh %0, [%1]" : "=r" (result) : "r" (addr) : "memory" );
 465:Drivers/CMSIS/Include/cmsis_gcc.h **** #endif
 466:Drivers/CMSIS/Include/cmsis_gcc.h ****    return ((uint16_t) result);    /* Add explicit type cast here */
 467:Drivers/CMSIS/Include/cmsis_gcc.h **** }
 468:Drivers/CMSIS/Include/cmsis_gcc.h **** 
 469:Drivers/CMSIS/Include/cmsis_gcc.h **** 
 470:Drivers/CMSIS/Include/cmsis_gcc.h **** /**
 471:Drivers/CMSIS/Include/cmsis_gcc.h ****   \brief   LDR Exclusive (32 bit)
 472:Drivers/CMSIS/Include/cmsis_gcc.h ****   \details Executes a exclusive LDR instruction for 32 bit values.
 473:Drivers/CMSIS/Include/cmsis_gcc.h ****   \param [in]    ptr  Pointer to data
 474:Drivers/CMSIS/Include/cmsis_gcc.h ****   \return        value of type uint32_t at (*ptr)
 475:Drivers/CMSIS/Include/cmsis_gcc.h ****  */
 476:Drivers/CMSIS/Include/cmsis_gcc.h **** __STATIC_FORCEINLINE uint32_t __LDREXW(volatile uint32_t *addr)
 477:Drivers/CMSIS/Include/cmsis_gcc.h **** {
 478:Drivers/CMSIS/Include/cmsis_gcc.h ****     uint32_t result;
 479:Drivers/CMSIS/Include/cmsis_gcc.h **** 
 480:Drivers/CMSIS/Include/cmsis_gcc.h ****    __ASM volatile ("ldrex %0, %1" : "=r" (result) : "Q" (*addr) );
 481:Drivers/CMSIS/Include/cmsis_gcc.h ****    return(result);
 482:Drivers/CMSIS/Include/cmsis_gcc.h **** }
 483:Drivers/CMSIS/Include/cmsis_gcc.h **** 
 484:Drivers/CMSIS/Include/cmsis_gcc.h **** 
 485:Drivers/CMSIS/Include/cmsis_gcc.h **** /**
 486:Drivers/CMSIS/Include/cmsis_gcc.h ****   \brief   STR Exclusive (8 bit)
 487:Drivers/CMSIS/Include/cmsis_gcc.h ****   \details Executes a exclusive STR instruction for 8 bit values.
 488:Drivers/CMSIS/Include/cmsis_gcc.h ****   \param [in]  value  Value to store
 489:Drivers/CMSIS/Include/cmsis_gcc.h ****   \param [in]    ptr  Pointer to location
 490:Drivers/CMSIS/Include/cmsis_gcc.h ****   \return          0  Function succeeded
 491:Drivers/CMSIS/Include/cmsis_gcc.h ****   \return          1  Function failed
 492:Drivers/CMSIS/Include/cmsis_gcc.h ****  */
ARM GAS  C:\Users\kroko\AppData\Local\Temp\ccpAdhTr.s 			page 67


 493:Drivers/CMSIS/Include/cmsis_gcc.h **** __STATIC_FORCEINLINE uint32_t __STREXB(uint8_t value, volatile uint8_t *addr)
 494:Drivers/CMSIS/Include/cmsis_gcc.h **** {
 495:Drivers/CMSIS/Include/cmsis_gcc.h ****    uint32_t result;
 496:Drivers/CMSIS/Include/cmsis_gcc.h **** 
 497:Drivers/CMSIS/Include/cmsis_gcc.h ****    __ASM volatile ("strexb %0, %2, %1" : "=&r" (result), "=Q" (*addr) : "r" ((uint32_t)value) );
 498:Drivers/CMSIS/Include/cmsis_gcc.h ****    return(result);
 499:Drivers/CMSIS/Include/cmsis_gcc.h **** }
 500:Drivers/CMSIS/Include/cmsis_gcc.h **** 
 501:Drivers/CMSIS/Include/cmsis_gcc.h **** 
 502:Drivers/CMSIS/Include/cmsis_gcc.h **** /**
 503:Drivers/CMSIS/Include/cmsis_gcc.h ****   \brief   STR Exclusive (16 bit)
 504:Drivers/CMSIS/Include/cmsis_gcc.h ****   \details Executes a exclusive STR instruction for 16 bit values.
 505:Drivers/CMSIS/Include/cmsis_gcc.h ****   \param [in]  value  Value to store
 506:Drivers/CMSIS/Include/cmsis_gcc.h ****   \param [in]    ptr  Pointer to location
 507:Drivers/CMSIS/Include/cmsis_gcc.h ****   \return          0  Function succeeded
 508:Drivers/CMSIS/Include/cmsis_gcc.h ****   \return          1  Function failed
 509:Drivers/CMSIS/Include/cmsis_gcc.h ****  */
 510:Drivers/CMSIS/Include/cmsis_gcc.h **** __STATIC_FORCEINLINE uint32_t __STREXH(uint16_t value, volatile uint16_t *addr)
 511:Drivers/CMSIS/Include/cmsis_gcc.h **** {
 512:Drivers/CMSIS/Include/cmsis_gcc.h ****    uint32_t result;
 513:Drivers/CMSIS/Include/cmsis_gcc.h **** 
 514:Drivers/CMSIS/Include/cmsis_gcc.h ****    __ASM volatile ("strexh %0, %2, %1" : "=&r" (result), "=Q" (*addr) : "r" ((uint32_t)value) );
 515:Drivers/CMSIS/Include/cmsis_gcc.h ****    return(result);
 516:Drivers/CMSIS/Include/cmsis_gcc.h **** }
 517:Drivers/CMSIS/Include/cmsis_gcc.h **** 
 518:Drivers/CMSIS/Include/cmsis_gcc.h **** 
 519:Drivers/CMSIS/Include/cmsis_gcc.h **** /**
 520:Drivers/CMSIS/Include/cmsis_gcc.h ****   \brief   STR Exclusive (32 bit)
 521:Drivers/CMSIS/Include/cmsis_gcc.h ****   \details Executes a exclusive STR instruction for 32 bit values.
 522:Drivers/CMSIS/Include/cmsis_gcc.h ****   \param [in]  value  Value to store
 523:Drivers/CMSIS/Include/cmsis_gcc.h ****   \param [in]    ptr  Pointer to location
 524:Drivers/CMSIS/Include/cmsis_gcc.h ****   \return          0  Function succeeded
 525:Drivers/CMSIS/Include/cmsis_gcc.h ****   \return          1  Function failed
 526:Drivers/CMSIS/Include/cmsis_gcc.h ****  */
 527:Drivers/CMSIS/Include/cmsis_gcc.h **** __STATIC_FORCEINLINE uint32_t __STREXW(uint32_t value, volatile uint32_t *addr)
 528:Drivers/CMSIS/Include/cmsis_gcc.h **** {
 529:Drivers/CMSIS/Include/cmsis_gcc.h ****    uint32_t result;
 530:Drivers/CMSIS/Include/cmsis_gcc.h **** 
 531:Drivers/CMSIS/Include/cmsis_gcc.h ****    __ASM volatile ("strex %0, %2, %1" : "=&r" (result), "=Q" (*addr) : "r" (value) );
 532:Drivers/CMSIS/Include/cmsis_gcc.h ****    return(result);
 533:Drivers/CMSIS/Include/cmsis_gcc.h **** }
 534:Drivers/CMSIS/Include/cmsis_gcc.h **** 
 535:Drivers/CMSIS/Include/cmsis_gcc.h **** 
 536:Drivers/CMSIS/Include/cmsis_gcc.h **** /**
 537:Drivers/CMSIS/Include/cmsis_gcc.h ****   \brief   Remove the exclusive lock
 538:Drivers/CMSIS/Include/cmsis_gcc.h ****   \details Removes the exclusive lock which is created by LDREX.
 539:Drivers/CMSIS/Include/cmsis_gcc.h ****  */
 540:Drivers/CMSIS/Include/cmsis_gcc.h **** __STATIC_FORCEINLINE void __CLREX(void)
 541:Drivers/CMSIS/Include/cmsis_gcc.h **** {
 542:Drivers/CMSIS/Include/cmsis_gcc.h ****   __ASM volatile ("clrex" ::: "memory");
 543:Drivers/CMSIS/Include/cmsis_gcc.h **** }
 544:Drivers/CMSIS/Include/cmsis_gcc.h **** 
 545:Drivers/CMSIS/Include/cmsis_gcc.h **** #endif /* ((defined (__ARM_ARCH_7M__      ) && (__ARM_ARCH_7M__      == 1)) || \
 546:Drivers/CMSIS/Include/cmsis_gcc.h ****            (defined (__ARM_ARCH_7EM__     ) && (__ARM_ARCH_7EM__     == 1)) || \
 547:Drivers/CMSIS/Include/cmsis_gcc.h ****            (defined (__ARM_ARCH_8M_MAIN__ ) && (__ARM_ARCH_8M_MAIN__ == 1)) || \
 548:Drivers/CMSIS/Include/cmsis_gcc.h ****            (defined (__ARM_ARCH_8M_BASE__ ) && (__ARM_ARCH_8M_BASE__ == 1))    ) */
 549:Drivers/CMSIS/Include/cmsis_gcc.h **** 
ARM GAS  C:\Users\kroko\AppData\Local\Temp\ccpAdhTr.s 			page 68


 550:Drivers/CMSIS/Include/cmsis_gcc.h **** 
 551:Drivers/CMSIS/Include/cmsis_gcc.h **** #if ((defined (__ARM_ARCH_7M__      ) && (__ARM_ARCH_7M__      == 1)) || \
 552:Drivers/CMSIS/Include/cmsis_gcc.h ****      (defined (__ARM_ARCH_7EM__     ) && (__ARM_ARCH_7EM__     == 1)) || \
 553:Drivers/CMSIS/Include/cmsis_gcc.h ****      (defined (__ARM_ARCH_8M_MAIN__ ) && (__ARM_ARCH_8M_MAIN__ == 1))    )
 554:Drivers/CMSIS/Include/cmsis_gcc.h **** /**
 555:Drivers/CMSIS/Include/cmsis_gcc.h ****   \brief   Signed Saturate
 556:Drivers/CMSIS/Include/cmsis_gcc.h ****   \details Saturates a signed value.
 557:Drivers/CMSIS/Include/cmsis_gcc.h ****   \param [in]  ARG1  Value to be saturated
 558:Drivers/CMSIS/Include/cmsis_gcc.h ****   \param [in]  ARG2  Bit position to saturate to (1..32)
 559:Drivers/CMSIS/Include/cmsis_gcc.h ****   \return             Saturated value
 560:Drivers/CMSIS/Include/cmsis_gcc.h ****  */
 561:Drivers/CMSIS/Include/cmsis_gcc.h **** #define __SSAT(ARG1, ARG2) \
 562:Drivers/CMSIS/Include/cmsis_gcc.h **** __extension__ \
 563:Drivers/CMSIS/Include/cmsis_gcc.h **** ({                          \
 564:Drivers/CMSIS/Include/cmsis_gcc.h ****   int32_t __RES, __ARG1 = (ARG1); \
 565:Drivers/CMSIS/Include/cmsis_gcc.h ****   __ASM volatile ("ssat %0, %1, %2" : "=r" (__RES) :  "I" (ARG2), "r" (__ARG1) : "cc" ); \
 566:Drivers/CMSIS/Include/cmsis_gcc.h ****   __RES; \
 567:Drivers/CMSIS/Include/cmsis_gcc.h ****  })
 568:Drivers/CMSIS/Include/cmsis_gcc.h **** 
 569:Drivers/CMSIS/Include/cmsis_gcc.h **** 
 570:Drivers/CMSIS/Include/cmsis_gcc.h **** /**
 571:Drivers/CMSIS/Include/cmsis_gcc.h ****   \brief   Unsigned Saturate
 572:Drivers/CMSIS/Include/cmsis_gcc.h ****   \details Saturates an unsigned value.
 573:Drivers/CMSIS/Include/cmsis_gcc.h ****   \param [in]  ARG1  Value to be saturated
 574:Drivers/CMSIS/Include/cmsis_gcc.h ****   \param [in]  ARG2  Bit position to saturate to (0..31)
 575:Drivers/CMSIS/Include/cmsis_gcc.h ****   \return             Saturated value
 576:Drivers/CMSIS/Include/cmsis_gcc.h ****  */
 577:Drivers/CMSIS/Include/cmsis_gcc.h **** #define __USAT(ARG1, ARG2) \
 578:Drivers/CMSIS/Include/cmsis_gcc.h **** __extension__ \
 579:Drivers/CMSIS/Include/cmsis_gcc.h **** ({                          \
 580:Drivers/CMSIS/Include/cmsis_gcc.h ****   uint32_t __RES, __ARG1 = (ARG1); \
 581:Drivers/CMSIS/Include/cmsis_gcc.h ****   __ASM volatile ("usat %0, %1, %2" : "=r" (__RES) :  "I" (ARG2), "r" (__ARG1) : "cc" ); \
 582:Drivers/CMSIS/Include/cmsis_gcc.h ****   __RES; \
 583:Drivers/CMSIS/Include/cmsis_gcc.h ****  })
 584:Drivers/CMSIS/Include/cmsis_gcc.h **** 
 585:Drivers/CMSIS/Include/cmsis_gcc.h **** 
 586:Drivers/CMSIS/Include/cmsis_gcc.h **** /**
 587:Drivers/CMSIS/Include/cmsis_gcc.h ****   \brief   Rotate Right with Extend (32 bit)
 588:Drivers/CMSIS/Include/cmsis_gcc.h ****   \details Moves each bit of a bitstring right by one bit.
 589:Drivers/CMSIS/Include/cmsis_gcc.h ****            The carry input is shifted in at the left end of the bitstring.
 590:Drivers/CMSIS/Include/cmsis_gcc.h ****   \param [in]    value  Value to rotate
 591:Drivers/CMSIS/Include/cmsis_gcc.h ****   \return               Rotated value
 592:Drivers/CMSIS/Include/cmsis_gcc.h ****  */
 593:Drivers/CMSIS/Include/cmsis_gcc.h **** __STATIC_FORCEINLINE uint32_t __RRX(uint32_t value)
 594:Drivers/CMSIS/Include/cmsis_gcc.h **** {
 595:Drivers/CMSIS/Include/cmsis_gcc.h ****   uint32_t result;
 596:Drivers/CMSIS/Include/cmsis_gcc.h **** 
 597:Drivers/CMSIS/Include/cmsis_gcc.h ****   __ASM volatile ("rrx %0, %1" : __CMSIS_GCC_OUT_REG (result) : __CMSIS_GCC_USE_REG (value) );
 598:Drivers/CMSIS/Include/cmsis_gcc.h ****   return(result);
 599:Drivers/CMSIS/Include/cmsis_gcc.h **** }
 600:Drivers/CMSIS/Include/cmsis_gcc.h **** 
 601:Drivers/CMSIS/Include/cmsis_gcc.h **** 
 602:Drivers/CMSIS/Include/cmsis_gcc.h **** /**
 603:Drivers/CMSIS/Include/cmsis_gcc.h ****   \brief   LDRT Unprivileged (8 bit)
 604:Drivers/CMSIS/Include/cmsis_gcc.h ****   \details Executes a Unprivileged LDRT instruction for 8 bit value.
 605:Drivers/CMSIS/Include/cmsis_gcc.h ****   \param [in]    ptr  Pointer to data
 606:Drivers/CMSIS/Include/cmsis_gcc.h ****   \return             value of type uint8_t at (*ptr)
ARM GAS  C:\Users\kroko\AppData\Local\Temp\ccpAdhTr.s 			page 69


 607:Drivers/CMSIS/Include/cmsis_gcc.h ****  */
 608:Drivers/CMSIS/Include/cmsis_gcc.h **** __STATIC_FORCEINLINE uint8_t __LDRBT(volatile uint8_t *ptr)
 609:Drivers/CMSIS/Include/cmsis_gcc.h **** {
 610:Drivers/CMSIS/Include/cmsis_gcc.h ****     uint32_t result;
 611:Drivers/CMSIS/Include/cmsis_gcc.h **** 
 612:Drivers/CMSIS/Include/cmsis_gcc.h **** #if (__GNUC__ > 4) || (__GNUC__ == 4 && __GNUC_MINOR__ >= 8)
 613:Drivers/CMSIS/Include/cmsis_gcc.h ****    __ASM volatile ("ldrbt %0, %1" : "=r" (result) : "Q" (*ptr) );
 614:Drivers/CMSIS/Include/cmsis_gcc.h **** #else
 615:Drivers/CMSIS/Include/cmsis_gcc.h ****     /* Prior to GCC 4.8, "Q" will be expanded to [rx, #0] which is not
 616:Drivers/CMSIS/Include/cmsis_gcc.h ****        accepted by assembler. So has to use following less efficient pattern.
 617:Drivers/CMSIS/Include/cmsis_gcc.h ****     */
 618:Drivers/CMSIS/Include/cmsis_gcc.h ****    __ASM volatile ("ldrbt %0, [%1]" : "=r" (result) : "r" (ptr) : "memory" );
 619:Drivers/CMSIS/Include/cmsis_gcc.h **** #endif
 620:Drivers/CMSIS/Include/cmsis_gcc.h ****    return ((uint8_t) result);    /* Add explicit type cast here */
 621:Drivers/CMSIS/Include/cmsis_gcc.h **** }
 622:Drivers/CMSIS/Include/cmsis_gcc.h **** 
 623:Drivers/CMSIS/Include/cmsis_gcc.h **** 
 624:Drivers/CMSIS/Include/cmsis_gcc.h **** /**
 625:Drivers/CMSIS/Include/cmsis_gcc.h ****   \brief   LDRT Unprivileged (16 bit)
 626:Drivers/CMSIS/Include/cmsis_gcc.h ****   \details Executes a Unprivileged LDRT instruction for 16 bit values.
 627:Drivers/CMSIS/Include/cmsis_gcc.h ****   \param [in]    ptr  Pointer to data
 628:Drivers/CMSIS/Include/cmsis_gcc.h ****   \return        value of type uint16_t at (*ptr)
 629:Drivers/CMSIS/Include/cmsis_gcc.h ****  */
 630:Drivers/CMSIS/Include/cmsis_gcc.h **** __STATIC_FORCEINLINE uint16_t __LDRHT(volatile uint16_t *ptr)
 631:Drivers/CMSIS/Include/cmsis_gcc.h **** {
 632:Drivers/CMSIS/Include/cmsis_gcc.h ****     uint32_t result;
 633:Drivers/CMSIS/Include/cmsis_gcc.h **** 
 634:Drivers/CMSIS/Include/cmsis_gcc.h **** #if (__GNUC__ > 4) || (__GNUC__ == 4 && __GNUC_MINOR__ >= 8)
 635:Drivers/CMSIS/Include/cmsis_gcc.h ****    __ASM volatile ("ldrht %0, %1" : "=r" (result) : "Q" (*ptr) );
 636:Drivers/CMSIS/Include/cmsis_gcc.h **** #else
 637:Drivers/CMSIS/Include/cmsis_gcc.h ****     /* Prior to GCC 4.8, "Q" will be expanded to [rx, #0] which is not
 638:Drivers/CMSIS/Include/cmsis_gcc.h ****        accepted by assembler. So has to use following less efficient pattern.
 639:Drivers/CMSIS/Include/cmsis_gcc.h ****     */
 640:Drivers/CMSIS/Include/cmsis_gcc.h ****    __ASM volatile ("ldrht %0, [%1]" : "=r" (result) : "r" (ptr) : "memory" );
 641:Drivers/CMSIS/Include/cmsis_gcc.h **** #endif
 642:Drivers/CMSIS/Include/cmsis_gcc.h ****    return ((uint16_t) result);    /* Add explicit type cast here */
 643:Drivers/CMSIS/Include/cmsis_gcc.h **** }
 644:Drivers/CMSIS/Include/cmsis_gcc.h **** 
 645:Drivers/CMSIS/Include/cmsis_gcc.h **** 
 646:Drivers/CMSIS/Include/cmsis_gcc.h **** /**
 647:Drivers/CMSIS/Include/cmsis_gcc.h ****   \brief   LDRT Unprivileged (32 bit)
 648:Drivers/CMSIS/Include/cmsis_gcc.h ****   \details Executes a Unprivileged LDRT instruction for 32 bit values.
 649:Drivers/CMSIS/Include/cmsis_gcc.h ****   \param [in]    ptr  Pointer to data
 650:Drivers/CMSIS/Include/cmsis_gcc.h ****   \return        value of type uint32_t at (*ptr)
 651:Drivers/CMSIS/Include/cmsis_gcc.h ****  */
 652:Drivers/CMSIS/Include/cmsis_gcc.h **** __STATIC_FORCEINLINE uint32_t __LDRT(volatile uint32_t *ptr)
 653:Drivers/CMSIS/Include/cmsis_gcc.h **** {
 654:Drivers/CMSIS/Include/cmsis_gcc.h ****     uint32_t result;
 655:Drivers/CMSIS/Include/cmsis_gcc.h **** 
 656:Drivers/CMSIS/Include/cmsis_gcc.h ****    __ASM volatile ("ldrt %0, %1" : "=r" (result) : "Q" (*ptr) );
 657:Drivers/CMSIS/Include/cmsis_gcc.h ****    return(result);
 658:Drivers/CMSIS/Include/cmsis_gcc.h **** }
 659:Drivers/CMSIS/Include/cmsis_gcc.h **** 
 660:Drivers/CMSIS/Include/cmsis_gcc.h **** 
 661:Drivers/CMSIS/Include/cmsis_gcc.h **** /**
 662:Drivers/CMSIS/Include/cmsis_gcc.h ****   \brief   STRT Unprivileged (8 bit)
 663:Drivers/CMSIS/Include/cmsis_gcc.h ****   \details Executes a Unprivileged STRT instruction for 8 bit values.
ARM GAS  C:\Users\kroko\AppData\Local\Temp\ccpAdhTr.s 			page 70


 664:Drivers/CMSIS/Include/cmsis_gcc.h ****   \param [in]  value  Value to store
 665:Drivers/CMSIS/Include/cmsis_gcc.h ****   \param [in]    ptr  Pointer to location
 666:Drivers/CMSIS/Include/cmsis_gcc.h ****  */
 667:Drivers/CMSIS/Include/cmsis_gcc.h **** __STATIC_FORCEINLINE void __STRBT(uint8_t value, volatile uint8_t *ptr)
 668:Drivers/CMSIS/Include/cmsis_gcc.h **** {
 669:Drivers/CMSIS/Include/cmsis_gcc.h ****    __ASM volatile ("strbt %1, %0" : "=Q" (*ptr) : "r" ((uint32_t)value) );
 670:Drivers/CMSIS/Include/cmsis_gcc.h **** }
 671:Drivers/CMSIS/Include/cmsis_gcc.h **** 
 672:Drivers/CMSIS/Include/cmsis_gcc.h **** 
 673:Drivers/CMSIS/Include/cmsis_gcc.h **** /**
 674:Drivers/CMSIS/Include/cmsis_gcc.h ****   \brief   STRT Unprivileged (16 bit)
 675:Drivers/CMSIS/Include/cmsis_gcc.h ****   \details Executes a Unprivileged STRT instruction for 16 bit values.
 676:Drivers/CMSIS/Include/cmsis_gcc.h ****   \param [in]  value  Value to store
 677:Drivers/CMSIS/Include/cmsis_gcc.h ****   \param [in]    ptr  Pointer to location
 678:Drivers/CMSIS/Include/cmsis_gcc.h ****  */
 679:Drivers/CMSIS/Include/cmsis_gcc.h **** __STATIC_FORCEINLINE void __STRHT(uint16_t value, volatile uint16_t *ptr)
 680:Drivers/CMSIS/Include/cmsis_gcc.h **** {
 681:Drivers/CMSIS/Include/cmsis_gcc.h ****    __ASM volatile ("strht %1, %0" : "=Q" (*ptr) : "r" ((uint32_t)value) );
 682:Drivers/CMSIS/Include/cmsis_gcc.h **** }
 683:Drivers/CMSIS/Include/cmsis_gcc.h **** 
 684:Drivers/CMSIS/Include/cmsis_gcc.h **** 
 685:Drivers/CMSIS/Include/cmsis_gcc.h **** /**
 686:Drivers/CMSIS/Include/cmsis_gcc.h ****   \brief   STRT Unprivileged (32 bit)
 687:Drivers/CMSIS/Include/cmsis_gcc.h ****   \details Executes a Unprivileged STRT instruction for 32 bit values.
 688:Drivers/CMSIS/Include/cmsis_gcc.h ****   \param [in]  value  Value to store
 689:Drivers/CMSIS/Include/cmsis_gcc.h ****   \param [in]    ptr  Pointer to location
 690:Drivers/CMSIS/Include/cmsis_gcc.h ****  */
 691:Drivers/CMSIS/Include/cmsis_gcc.h **** __STATIC_FORCEINLINE void __STRT(uint32_t value, volatile uint32_t *ptr)
 692:Drivers/CMSIS/Include/cmsis_gcc.h **** {
 693:Drivers/CMSIS/Include/cmsis_gcc.h ****    __ASM volatile ("strt %1, %0" : "=Q" (*ptr) : "r" (value) );
 694:Drivers/CMSIS/Include/cmsis_gcc.h **** }
 695:Drivers/CMSIS/Include/cmsis_gcc.h **** 
 696:Drivers/CMSIS/Include/cmsis_gcc.h **** #else  /* ((defined (__ARM_ARCH_7M__      ) && (__ARM_ARCH_7M__      == 1)) || \
 697:Drivers/CMSIS/Include/cmsis_gcc.h ****            (defined (__ARM_ARCH_7EM__     ) && (__ARM_ARCH_7EM__     == 1)) || \
 698:Drivers/CMSIS/Include/cmsis_gcc.h ****            (defined (__ARM_ARCH_8M_MAIN__ ) && (__ARM_ARCH_8M_MAIN__ == 1))    ) */
 699:Drivers/CMSIS/Include/cmsis_gcc.h **** 
 700:Drivers/CMSIS/Include/cmsis_gcc.h **** /**
 701:Drivers/CMSIS/Include/cmsis_gcc.h ****   \brief   Signed Saturate
 702:Drivers/CMSIS/Include/cmsis_gcc.h ****   \details Saturates a signed value.
 703:Drivers/CMSIS/Include/cmsis_gcc.h ****   \param [in]  value  Value to be saturated
 704:Drivers/CMSIS/Include/cmsis_gcc.h ****   \param [in]    sat  Bit position to saturate to (1..32)
 705:Drivers/CMSIS/Include/cmsis_gcc.h ****   \return             Saturated value
 706:Drivers/CMSIS/Include/cmsis_gcc.h ****  */
 707:Drivers/CMSIS/Include/cmsis_gcc.h **** __STATIC_FORCEINLINE int32_t __SSAT(int32_t val, uint32_t sat)
 708:Drivers/CMSIS/Include/cmsis_gcc.h **** {
 709:Drivers/CMSIS/Include/cmsis_gcc.h ****   if ((sat >= 1U) && (sat <= 32U))
 710:Drivers/CMSIS/Include/cmsis_gcc.h ****   {
 711:Drivers/CMSIS/Include/cmsis_gcc.h ****     const int32_t max = (int32_t)((1U << (sat - 1U)) - 1U);
 712:Drivers/CMSIS/Include/cmsis_gcc.h ****     const int32_t min = -1 - max ;
 713:Drivers/CMSIS/Include/cmsis_gcc.h ****     if (val > max)
 714:Drivers/CMSIS/Include/cmsis_gcc.h ****     {
 715:Drivers/CMSIS/Include/cmsis_gcc.h ****       return max;
 716:Drivers/CMSIS/Include/cmsis_gcc.h ****     }
 717:Drivers/CMSIS/Include/cmsis_gcc.h ****     else if (val < min)
 718:Drivers/CMSIS/Include/cmsis_gcc.h ****     {
 719:Drivers/CMSIS/Include/cmsis_gcc.h ****       return min;
 720:Drivers/CMSIS/Include/cmsis_gcc.h ****     }
ARM GAS  C:\Users\kroko\AppData\Local\Temp\ccpAdhTr.s 			page 71


 721:Drivers/CMSIS/Include/cmsis_gcc.h ****   }
 722:Drivers/CMSIS/Include/cmsis_gcc.h ****   return val;
 723:Drivers/CMSIS/Include/cmsis_gcc.h **** }
 724:Drivers/CMSIS/Include/cmsis_gcc.h **** 
 725:Drivers/CMSIS/Include/cmsis_gcc.h **** /**
 726:Drivers/CMSIS/Include/cmsis_gcc.h ****   \brief   Unsigned Saturate
 727:Drivers/CMSIS/Include/cmsis_gcc.h ****   \details Saturates an unsigned value.
 728:Drivers/CMSIS/Include/cmsis_gcc.h ****   \param [in]  value  Value to be saturated
 729:Drivers/CMSIS/Include/cmsis_gcc.h ****   \param [in]    sat  Bit position to saturate to (0..31)
 730:Drivers/CMSIS/Include/cmsis_gcc.h ****   \return             Saturated value
 731:Drivers/CMSIS/Include/cmsis_gcc.h ****  */
 732:Drivers/CMSIS/Include/cmsis_gcc.h **** __STATIC_FORCEINLINE uint32_t __USAT(int32_t val, uint32_t sat)
 733:Drivers/CMSIS/Include/cmsis_gcc.h **** {
 734:Drivers/CMSIS/Include/cmsis_gcc.h ****   if (sat <= 31U)
 735:Drivers/CMSIS/Include/cmsis_gcc.h ****   {
 736:Drivers/CMSIS/Include/cmsis_gcc.h ****     const uint32_t max = ((1U << sat) - 1U);
 737:Drivers/CMSIS/Include/cmsis_gcc.h ****     if (val > (int32_t)max)
 738:Drivers/CMSIS/Include/cmsis_gcc.h ****     {
 739:Drivers/CMSIS/Include/cmsis_gcc.h ****       return max;
 740:Drivers/CMSIS/Include/cmsis_gcc.h ****     }
 741:Drivers/CMSIS/Include/cmsis_gcc.h ****     else if (val < 0)
 742:Drivers/CMSIS/Include/cmsis_gcc.h ****     {
 743:Drivers/CMSIS/Include/cmsis_gcc.h ****       return 0U;
 744:Drivers/CMSIS/Include/cmsis_gcc.h ****     }
 745:Drivers/CMSIS/Include/cmsis_gcc.h ****   }
 746:Drivers/CMSIS/Include/cmsis_gcc.h ****   return (uint32_t)val;
 747:Drivers/CMSIS/Include/cmsis_gcc.h **** }
 748:Drivers/CMSIS/Include/cmsis_gcc.h **** 
 749:Drivers/CMSIS/Include/cmsis_gcc.h **** #endif /* ((defined (__ARM_ARCH_7M__      ) && (__ARM_ARCH_7M__      == 1)) || \
 750:Drivers/CMSIS/Include/cmsis_gcc.h ****            (defined (__ARM_ARCH_7EM__     ) && (__ARM_ARCH_7EM__     == 1)) || \
 751:Drivers/CMSIS/Include/cmsis_gcc.h ****            (defined (__ARM_ARCH_8M_MAIN__ ) && (__ARM_ARCH_8M_MAIN__ == 1))    ) */
 752:Drivers/CMSIS/Include/cmsis_gcc.h **** 
 753:Drivers/CMSIS/Include/cmsis_gcc.h **** 
 754:Drivers/CMSIS/Include/cmsis_gcc.h **** #if ((defined (__ARM_ARCH_8M_MAIN__ ) && (__ARM_ARCH_8M_MAIN__ == 1)) || \
 755:Drivers/CMSIS/Include/cmsis_gcc.h ****      (defined (__ARM_ARCH_8M_BASE__ ) && (__ARM_ARCH_8M_BASE__ == 1))    )
 756:Drivers/CMSIS/Include/cmsis_gcc.h **** /**
 757:Drivers/CMSIS/Include/cmsis_gcc.h ****   \brief   Load-Acquire (8 bit)
 758:Drivers/CMSIS/Include/cmsis_gcc.h ****   \details Executes a LDAB instruction for 8 bit value.
 759:Drivers/CMSIS/Include/cmsis_gcc.h ****   \param [in]    ptr  Pointer to data
 760:Drivers/CMSIS/Include/cmsis_gcc.h ****   \return             value of type uint8_t at (*ptr)
 761:Drivers/CMSIS/Include/cmsis_gcc.h ****  */
 762:Drivers/CMSIS/Include/cmsis_gcc.h **** __STATIC_FORCEINLINE uint8_t __LDAB(volatile uint8_t *ptr)
 763:Drivers/CMSIS/Include/cmsis_gcc.h **** {
 764:Drivers/CMSIS/Include/cmsis_gcc.h ****     uint32_t result;
 765:Drivers/CMSIS/Include/cmsis_gcc.h **** 
 766:Drivers/CMSIS/Include/cmsis_gcc.h ****    __ASM volatile ("ldab %0, %1" : "=r" (result) : "Q" (*ptr) : "memory" );
 767:Drivers/CMSIS/Include/cmsis_gcc.h ****    return ((uint8_t) result);
 768:Drivers/CMSIS/Include/cmsis_gcc.h **** }
 769:Drivers/CMSIS/Include/cmsis_gcc.h **** 
 770:Drivers/CMSIS/Include/cmsis_gcc.h **** 
 771:Drivers/CMSIS/Include/cmsis_gcc.h **** /**
 772:Drivers/CMSIS/Include/cmsis_gcc.h ****   \brief   Load-Acquire (16 bit)
 773:Drivers/CMSIS/Include/cmsis_gcc.h ****   \details Executes a LDAH instruction for 16 bit values.
 774:Drivers/CMSIS/Include/cmsis_gcc.h ****   \param [in]    ptr  Pointer to data
 775:Drivers/CMSIS/Include/cmsis_gcc.h ****   \return        value of type uint16_t at (*ptr)
 776:Drivers/CMSIS/Include/cmsis_gcc.h ****  */
 777:Drivers/CMSIS/Include/cmsis_gcc.h **** __STATIC_FORCEINLINE uint16_t __LDAH(volatile uint16_t *ptr)
ARM GAS  C:\Users\kroko\AppData\Local\Temp\ccpAdhTr.s 			page 72


 778:Drivers/CMSIS/Include/cmsis_gcc.h **** {
 779:Drivers/CMSIS/Include/cmsis_gcc.h ****     uint32_t result;
 780:Drivers/CMSIS/Include/cmsis_gcc.h **** 
 781:Drivers/CMSIS/Include/cmsis_gcc.h ****    __ASM volatile ("ldah %0, %1" : "=r" (result) : "Q" (*ptr) : "memory" );
 782:Drivers/CMSIS/Include/cmsis_gcc.h ****    return ((uint16_t) result);
 783:Drivers/CMSIS/Include/cmsis_gcc.h **** }
 784:Drivers/CMSIS/Include/cmsis_gcc.h **** 
 785:Drivers/CMSIS/Include/cmsis_gcc.h **** 
 786:Drivers/CMSIS/Include/cmsis_gcc.h **** /**
 787:Drivers/CMSIS/Include/cmsis_gcc.h ****   \brief   Load-Acquire (32 bit)
 788:Drivers/CMSIS/Include/cmsis_gcc.h ****   \details Executes a LDA instruction for 32 bit values.
 789:Drivers/CMSIS/Include/cmsis_gcc.h ****   \param [in]    ptr  Pointer to data
 790:Drivers/CMSIS/Include/cmsis_gcc.h ****   \return        value of type uint32_t at (*ptr)
 791:Drivers/CMSIS/Include/cmsis_gcc.h ****  */
 792:Drivers/CMSIS/Include/cmsis_gcc.h **** __STATIC_FORCEINLINE uint32_t __LDA(volatile uint32_t *ptr)
 793:Drivers/CMSIS/Include/cmsis_gcc.h **** {
 794:Drivers/CMSIS/Include/cmsis_gcc.h ****     uint32_t result;
 795:Drivers/CMSIS/Include/cmsis_gcc.h **** 
 796:Drivers/CMSIS/Include/cmsis_gcc.h ****    __ASM volatile ("lda %0, %1" : "=r" (result) : "Q" (*ptr) : "memory" );
 797:Drivers/CMSIS/Include/cmsis_gcc.h ****    return(result);
 798:Drivers/CMSIS/Include/cmsis_gcc.h **** }
 799:Drivers/CMSIS/Include/cmsis_gcc.h **** 
 800:Drivers/CMSIS/Include/cmsis_gcc.h **** 
 801:Drivers/CMSIS/Include/cmsis_gcc.h **** /**
 802:Drivers/CMSIS/Include/cmsis_gcc.h ****   \brief   Store-Release (8 bit)
 803:Drivers/CMSIS/Include/cmsis_gcc.h ****   \details Executes a STLB instruction for 8 bit values.
 804:Drivers/CMSIS/Include/cmsis_gcc.h ****   \param [in]  value  Value to store
 805:Drivers/CMSIS/Include/cmsis_gcc.h ****   \param [in]    ptr  Pointer to location
 806:Drivers/CMSIS/Include/cmsis_gcc.h ****  */
 807:Drivers/CMSIS/Include/cmsis_gcc.h **** __STATIC_FORCEINLINE void __STLB(uint8_t value, volatile uint8_t *ptr)
 808:Drivers/CMSIS/Include/cmsis_gcc.h **** {
 809:Drivers/CMSIS/Include/cmsis_gcc.h ****    __ASM volatile ("stlb %1, %0" : "=Q" (*ptr) : "r" ((uint32_t)value) : "memory" );
 810:Drivers/CMSIS/Include/cmsis_gcc.h **** }
 811:Drivers/CMSIS/Include/cmsis_gcc.h **** 
 812:Drivers/CMSIS/Include/cmsis_gcc.h **** 
 813:Drivers/CMSIS/Include/cmsis_gcc.h **** /**
 814:Drivers/CMSIS/Include/cmsis_gcc.h ****   \brief   Store-Release (16 bit)
 815:Drivers/CMSIS/Include/cmsis_gcc.h ****   \details Executes a STLH instruction for 16 bit values.
 816:Drivers/CMSIS/Include/cmsis_gcc.h ****   \param [in]  value  Value to store
 817:Drivers/CMSIS/Include/cmsis_gcc.h ****   \param [in]    ptr  Pointer to location
 818:Drivers/CMSIS/Include/cmsis_gcc.h ****  */
 819:Drivers/CMSIS/Include/cmsis_gcc.h **** __STATIC_FORCEINLINE void __STLH(uint16_t value, volatile uint16_t *ptr)
 820:Drivers/CMSIS/Include/cmsis_gcc.h **** {
 821:Drivers/CMSIS/Include/cmsis_gcc.h ****    __ASM volatile ("stlh %1, %0" : "=Q" (*ptr) : "r" ((uint32_t)value) : "memory" );
 822:Drivers/CMSIS/Include/cmsis_gcc.h **** }
 823:Drivers/CMSIS/Include/cmsis_gcc.h **** 
 824:Drivers/CMSIS/Include/cmsis_gcc.h **** 
 825:Drivers/CMSIS/Include/cmsis_gcc.h **** /**
 826:Drivers/CMSIS/Include/cmsis_gcc.h ****   \brief   Store-Release (32 bit)
 827:Drivers/CMSIS/Include/cmsis_gcc.h ****   \details Executes a STL instruction for 32 bit values.
 828:Drivers/CMSIS/Include/cmsis_gcc.h ****   \param [in]  value  Value to store
 829:Drivers/CMSIS/Include/cmsis_gcc.h ****   \param [in]    ptr  Pointer to location
 830:Drivers/CMSIS/Include/cmsis_gcc.h ****  */
 831:Drivers/CMSIS/Include/cmsis_gcc.h **** __STATIC_FORCEINLINE void __STL(uint32_t value, volatile uint32_t *ptr)
 832:Drivers/CMSIS/Include/cmsis_gcc.h **** {
 833:Drivers/CMSIS/Include/cmsis_gcc.h ****    __ASM volatile ("stl %1, %0" : "=Q" (*ptr) : "r" ((uint32_t)value) : "memory" );
 834:Drivers/CMSIS/Include/cmsis_gcc.h **** }
ARM GAS  C:\Users\kroko\AppData\Local\Temp\ccpAdhTr.s 			page 73


 835:Drivers/CMSIS/Include/cmsis_gcc.h **** 
 836:Drivers/CMSIS/Include/cmsis_gcc.h **** 
 837:Drivers/CMSIS/Include/cmsis_gcc.h **** /**
 838:Drivers/CMSIS/Include/cmsis_gcc.h ****   \brief   Load-Acquire Exclusive (8 bit)
 839:Drivers/CMSIS/Include/cmsis_gcc.h ****   \details Executes a LDAB exclusive instruction for 8 bit value.
 840:Drivers/CMSIS/Include/cmsis_gcc.h ****   \param [in]    ptr  Pointer to data
 841:Drivers/CMSIS/Include/cmsis_gcc.h ****   \return             value of type uint8_t at (*ptr)
 842:Drivers/CMSIS/Include/cmsis_gcc.h ****  */
 843:Drivers/CMSIS/Include/cmsis_gcc.h **** __STATIC_FORCEINLINE uint8_t __LDAEXB(volatile uint8_t *ptr)
 844:Drivers/CMSIS/Include/cmsis_gcc.h **** {
 845:Drivers/CMSIS/Include/cmsis_gcc.h ****     uint32_t result;
 846:Drivers/CMSIS/Include/cmsis_gcc.h **** 
 847:Drivers/CMSIS/Include/cmsis_gcc.h ****    __ASM volatile ("ldaexb %0, %1" : "=r" (result) : "Q" (*ptr) : "memory" );
 848:Drivers/CMSIS/Include/cmsis_gcc.h ****    return ((uint8_t) result);
 849:Drivers/CMSIS/Include/cmsis_gcc.h **** }
 850:Drivers/CMSIS/Include/cmsis_gcc.h **** 
 851:Drivers/CMSIS/Include/cmsis_gcc.h **** 
 852:Drivers/CMSIS/Include/cmsis_gcc.h **** /**
 853:Drivers/CMSIS/Include/cmsis_gcc.h ****   \brief   Load-Acquire Exclusive (16 bit)
 854:Drivers/CMSIS/Include/cmsis_gcc.h ****   \details Executes a LDAH exclusive instruction for 16 bit values.
 855:Drivers/CMSIS/Include/cmsis_gcc.h ****   \param [in]    ptr  Pointer to data
 856:Drivers/CMSIS/Include/cmsis_gcc.h ****   \return        value of type uint16_t at (*ptr)
 857:Drivers/CMSIS/Include/cmsis_gcc.h ****  */
 858:Drivers/CMSIS/Include/cmsis_gcc.h **** __STATIC_FORCEINLINE uint16_t __LDAEXH(volatile uint16_t *ptr)
 859:Drivers/CMSIS/Include/cmsis_gcc.h **** {
 860:Drivers/CMSIS/Include/cmsis_gcc.h ****     uint32_t result;
 861:Drivers/CMSIS/Include/cmsis_gcc.h **** 
 862:Drivers/CMSIS/Include/cmsis_gcc.h ****    __ASM volatile ("ldaexh %0, %1" : "=r" (result) : "Q" (*ptr) : "memory" );
 863:Drivers/CMSIS/Include/cmsis_gcc.h ****    return ((uint16_t) result);
 864:Drivers/CMSIS/Include/cmsis_gcc.h **** }
 865:Drivers/CMSIS/Include/cmsis_gcc.h **** 
 866:Drivers/CMSIS/Include/cmsis_gcc.h **** 
 867:Drivers/CMSIS/Include/cmsis_gcc.h **** /**
 868:Drivers/CMSIS/Include/cmsis_gcc.h ****   \brief   Load-Acquire Exclusive (32 bit)
 869:Drivers/CMSIS/Include/cmsis_gcc.h ****   \details Executes a LDA exclusive instruction for 32 bit values.
 870:Drivers/CMSIS/Include/cmsis_gcc.h ****   \param [in]    ptr  Pointer to data
 871:Drivers/CMSIS/Include/cmsis_gcc.h ****   \return        value of type uint32_t at (*ptr)
 872:Drivers/CMSIS/Include/cmsis_gcc.h ****  */
 873:Drivers/CMSIS/Include/cmsis_gcc.h **** __STATIC_FORCEINLINE uint32_t __LDAEX(volatile uint32_t *ptr)
 874:Drivers/CMSIS/Include/cmsis_gcc.h **** {
 875:Drivers/CMSIS/Include/cmsis_gcc.h ****     uint32_t result;
 876:Drivers/CMSIS/Include/cmsis_gcc.h **** 
 877:Drivers/CMSIS/Include/cmsis_gcc.h ****    __ASM volatile ("ldaex %0, %1" : "=r" (result) : "Q" (*ptr) : "memory" );
 878:Drivers/CMSIS/Include/cmsis_gcc.h ****    return(result);
 879:Drivers/CMSIS/Include/cmsis_gcc.h **** }
 880:Drivers/CMSIS/Include/cmsis_gcc.h **** 
 881:Drivers/CMSIS/Include/cmsis_gcc.h **** 
 882:Drivers/CMSIS/Include/cmsis_gcc.h **** /**
 883:Drivers/CMSIS/Include/cmsis_gcc.h ****   \brief   Store-Release Exclusive (8 bit)
 884:Drivers/CMSIS/Include/cmsis_gcc.h ****   \details Executes a STLB exclusive instruction for 8 bit values.
 885:Drivers/CMSIS/Include/cmsis_gcc.h ****   \param [in]  value  Value to store
 886:Drivers/CMSIS/Include/cmsis_gcc.h ****   \param [in]    ptr  Pointer to location
 887:Drivers/CMSIS/Include/cmsis_gcc.h ****   \return          0  Function succeeded
 888:Drivers/CMSIS/Include/cmsis_gcc.h ****   \return          1  Function failed
 889:Drivers/CMSIS/Include/cmsis_gcc.h ****  */
 890:Drivers/CMSIS/Include/cmsis_gcc.h **** __STATIC_FORCEINLINE uint32_t __STLEXB(uint8_t value, volatile uint8_t *ptr)
 891:Drivers/CMSIS/Include/cmsis_gcc.h **** {
ARM GAS  C:\Users\kroko\AppData\Local\Temp\ccpAdhTr.s 			page 74


 892:Drivers/CMSIS/Include/cmsis_gcc.h ****    uint32_t result;
 893:Drivers/CMSIS/Include/cmsis_gcc.h **** 
 894:Drivers/CMSIS/Include/cmsis_gcc.h ****    __ASM volatile ("stlexb %0, %2, %1" : "=&r" (result), "=Q" (*ptr) : "r" ((uint32_t)value) : "mem
 895:Drivers/CMSIS/Include/cmsis_gcc.h ****    return(result);
 896:Drivers/CMSIS/Include/cmsis_gcc.h **** }
 897:Drivers/CMSIS/Include/cmsis_gcc.h **** 
 898:Drivers/CMSIS/Include/cmsis_gcc.h **** 
 899:Drivers/CMSIS/Include/cmsis_gcc.h **** /**
 900:Drivers/CMSIS/Include/cmsis_gcc.h ****   \brief   Store-Release Exclusive (16 bit)
 901:Drivers/CMSIS/Include/cmsis_gcc.h ****   \details Executes a STLH exclusive instruction for 16 bit values.
 902:Drivers/CMSIS/Include/cmsis_gcc.h ****   \param [in]  value  Value to store
 903:Drivers/CMSIS/Include/cmsis_gcc.h ****   \param [in]    ptr  Pointer to location
 904:Drivers/CMSIS/Include/cmsis_gcc.h ****   \return          0  Function succeeded
 905:Drivers/CMSIS/Include/cmsis_gcc.h ****   \return          1  Function failed
 906:Drivers/CMSIS/Include/cmsis_gcc.h ****  */
 907:Drivers/CMSIS/Include/cmsis_gcc.h **** __STATIC_FORCEINLINE uint32_t __STLEXH(uint16_t value, volatile uint16_t *ptr)
 908:Drivers/CMSIS/Include/cmsis_gcc.h **** {
 909:Drivers/CMSIS/Include/cmsis_gcc.h ****    uint32_t result;
 910:Drivers/CMSIS/Include/cmsis_gcc.h **** 
 911:Drivers/CMSIS/Include/cmsis_gcc.h ****    __ASM volatile ("stlexh %0, %2, %1" : "=&r" (result), "=Q" (*ptr) : "r" ((uint32_t)value) : "mem
 912:Drivers/CMSIS/Include/cmsis_gcc.h ****    return(result);
 913:Drivers/CMSIS/Include/cmsis_gcc.h **** }
 914:Drivers/CMSIS/Include/cmsis_gcc.h **** 
 915:Drivers/CMSIS/Include/cmsis_gcc.h **** 
 916:Drivers/CMSIS/Include/cmsis_gcc.h **** /**
 917:Drivers/CMSIS/Include/cmsis_gcc.h ****   \brief   Store-Release Exclusive (32 bit)
 918:Drivers/CMSIS/Include/cmsis_gcc.h ****   \details Executes a STL exclusive instruction for 32 bit values.
 919:Drivers/CMSIS/Include/cmsis_gcc.h ****   \param [in]  value  Value to store
 920:Drivers/CMSIS/Include/cmsis_gcc.h ****   \param [in]    ptr  Pointer to location
 921:Drivers/CMSIS/Include/cmsis_gcc.h ****   \return          0  Function succeeded
 922:Drivers/CMSIS/Include/cmsis_gcc.h ****   \return          1  Function failed
 923:Drivers/CMSIS/Include/cmsis_gcc.h ****  */
 924:Drivers/CMSIS/Include/cmsis_gcc.h **** __STATIC_FORCEINLINE uint32_t __STLEX(uint32_t value, volatile uint32_t *ptr)
 925:Drivers/CMSIS/Include/cmsis_gcc.h **** {
 926:Drivers/CMSIS/Include/cmsis_gcc.h ****    uint32_t result;
 927:Drivers/CMSIS/Include/cmsis_gcc.h **** 
 928:Drivers/CMSIS/Include/cmsis_gcc.h ****    __ASM volatile ("stlex %0, %2, %1" : "=&r" (result), "=Q" (*ptr) : "r" ((uint32_t)value) : "memo
 929:Drivers/CMSIS/Include/cmsis_gcc.h ****    return(result);
 930:Drivers/CMSIS/Include/cmsis_gcc.h **** }
 931:Drivers/CMSIS/Include/cmsis_gcc.h **** 
 932:Drivers/CMSIS/Include/cmsis_gcc.h **** #endif /* ((defined (__ARM_ARCH_8M_MAIN__ ) && (__ARM_ARCH_8M_MAIN__ == 1)) || \
 933:Drivers/CMSIS/Include/cmsis_gcc.h ****            (defined (__ARM_ARCH_8M_BASE__ ) && (__ARM_ARCH_8M_BASE__ == 1))    ) */
 934:Drivers/CMSIS/Include/cmsis_gcc.h **** 
 935:Drivers/CMSIS/Include/cmsis_gcc.h **** /*@}*/ /* end of group CMSIS_Core_InstructionInterface */
 936:Drivers/CMSIS/Include/cmsis_gcc.h **** 
 937:Drivers/CMSIS/Include/cmsis_gcc.h **** 
 938:Drivers/CMSIS/Include/cmsis_gcc.h **** /* ###########################  Core Function Access  ########################### */
 939:Drivers/CMSIS/Include/cmsis_gcc.h **** /** \ingroup  CMSIS_Core_FunctionInterface
 940:Drivers/CMSIS/Include/cmsis_gcc.h ****     \defgroup CMSIS_Core_RegAccFunctions CMSIS Core Register Access Functions
 941:Drivers/CMSIS/Include/cmsis_gcc.h ****   @{
 942:Drivers/CMSIS/Include/cmsis_gcc.h ****  */
 943:Drivers/CMSIS/Include/cmsis_gcc.h **** 
 944:Drivers/CMSIS/Include/cmsis_gcc.h **** /**
 945:Drivers/CMSIS/Include/cmsis_gcc.h ****   \brief   Enable IRQ Interrupts
 946:Drivers/CMSIS/Include/cmsis_gcc.h ****   \details Enables IRQ interrupts by clearing special-purpose register PRIMASK.
 947:Drivers/CMSIS/Include/cmsis_gcc.h ****            Can only be executed in Privileged modes.
 948:Drivers/CMSIS/Include/cmsis_gcc.h ****  */
ARM GAS  C:\Users\kroko\AppData\Local\Temp\ccpAdhTr.s 			page 75


 949:Drivers/CMSIS/Include/cmsis_gcc.h **** __STATIC_FORCEINLINE void __enable_irq(void)
 950:Drivers/CMSIS/Include/cmsis_gcc.h **** {
 951:Drivers/CMSIS/Include/cmsis_gcc.h ****   __ASM volatile ("cpsie i" : : : "memory");
 952:Drivers/CMSIS/Include/cmsis_gcc.h **** }
 953:Drivers/CMSIS/Include/cmsis_gcc.h **** 
 954:Drivers/CMSIS/Include/cmsis_gcc.h **** 
 955:Drivers/CMSIS/Include/cmsis_gcc.h **** /**
 956:Drivers/CMSIS/Include/cmsis_gcc.h ****   \brief   Disable IRQ Interrupts
 957:Drivers/CMSIS/Include/cmsis_gcc.h ****   \details Disables IRQ interrupts by setting special-purpose register PRIMASK.
 958:Drivers/CMSIS/Include/cmsis_gcc.h ****            Can only be executed in Privileged modes.
 959:Drivers/CMSIS/Include/cmsis_gcc.h ****  */
 960:Drivers/CMSIS/Include/cmsis_gcc.h **** __STATIC_FORCEINLINE void __disable_irq(void)
 1586              		.loc 2 960 27 view .LVU372
 1587              	.LBB17:
 961:Drivers/CMSIS/Include/cmsis_gcc.h **** {
 962:Drivers/CMSIS/Include/cmsis_gcc.h ****   __ASM volatile ("cpsid i" : : : "memory");
 1588              		.loc 2 962 3 view .LVU373
 1589              		.syntax unified
 1590              	@ 962 "Drivers/CMSIS/Include/cmsis_gcc.h" 1
 1591 0002 72B6     		cpsid i
 1592              	@ 0 "" 2
 1593              		.thumb
 1594              		.syntax unified
 1595              	.LBE17:
 1596              	.LBE16:
1518:Core/Src/main.c ****   HAL_NVIC_SystemReset();
 1597              		.loc 1 1518 3 view .LVU374
 1598 0004 FFF7FEFF 		bl	HAL_NVIC_SystemReset
 1599              	.LVL112:
1519:Core/Src/main.c ****   //while (1){}
1520:Core/Src/main.c ****   /* USER CODE END Error_Handler_Debug */
1521:Core/Src/main.c **** }
 1600              		.loc 1 1521 1 is_stmt 0 view .LVU375
 1601 0008 08BD     		pop	{r3, pc}
 1602              		.cfi_endproc
 1603              	.LFE165:
 1605              		.section	.text.MX_SPI1_Init,"ax",%progbits
 1606              		.align	1
 1607              		.syntax unified
 1608              		.thumb
 1609              		.thumb_func
 1611              	MX_SPI1_Init:
 1612              	.LFB142:
 761:Core/Src/main.c **** 
 1613              		.loc 1 761 1 is_stmt 1 view -0
 1614              		.cfi_startproc
 1615              		@ args = 0, pretend = 0, frame = 0
 1616              		@ frame_needed = 0, uses_anonymous_args = 0
 1617 0000 08B5     		push	{r3, lr}
 1618              		.cfi_def_cfa_offset 8
 1619              		.cfi_offset 3, -8
 1620              		.cfi_offset 14, -4
 771:Core/Src/main.c ****   hspi1.Init.Mode = SPI_MODE_MASTER;
 1621              		.loc 1 771 3 view .LVU377
 771:Core/Src/main.c ****   hspi1.Init.Mode = SPI_MODE_MASTER;
 1622              		.loc 1 771 18 is_stmt 0 view .LVU378
 1623 0002 0E48     		ldr	r0, .L109
ARM GAS  C:\Users\kroko\AppData\Local\Temp\ccpAdhTr.s 			page 76


 1624 0004 0E4B     		ldr	r3, .L109+4
 1625 0006 0360     		str	r3, [r0]
 772:Core/Src/main.c ****   hspi1.Init.Direction = SPI_DIRECTION_1LINE;
 1626              		.loc 1 772 3 is_stmt 1 view .LVU379
 772:Core/Src/main.c ****   hspi1.Init.Direction = SPI_DIRECTION_1LINE;
 1627              		.loc 1 772 19 is_stmt 0 view .LVU380
 1628 0008 4FF48273 		mov	r3, #260
 1629 000c 4360     		str	r3, [r0, #4]
 773:Core/Src/main.c ****   hspi1.Init.DataSize = SPI_DATASIZE_8BIT;
 1630              		.loc 1 773 3 is_stmt 1 view .LVU381
 773:Core/Src/main.c ****   hspi1.Init.DataSize = SPI_DATASIZE_8BIT;
 1631              		.loc 1 773 24 is_stmt 0 view .LVU382
 1632 000e 4FF40043 		mov	r3, #32768
 1633 0012 8360     		str	r3, [r0, #8]
 774:Core/Src/main.c ****   hspi1.Init.CLKPolarity = SPI_POLARITY_LOW;
 1634              		.loc 1 774 3 is_stmt 1 view .LVU383
 774:Core/Src/main.c ****   hspi1.Init.CLKPolarity = SPI_POLARITY_LOW;
 1635              		.loc 1 774 23 is_stmt 0 view .LVU384
 1636 0014 0023     		movs	r3, #0
 1637 0016 C360     		str	r3, [r0, #12]
 775:Core/Src/main.c ****   hspi1.Init.CLKPhase = SPI_PHASE_1EDGE;
 1638              		.loc 1 775 3 is_stmt 1 view .LVU385
 775:Core/Src/main.c ****   hspi1.Init.CLKPhase = SPI_PHASE_1EDGE;
 1639              		.loc 1 775 26 is_stmt 0 view .LVU386
 1640 0018 0361     		str	r3, [r0, #16]
 776:Core/Src/main.c ****   hspi1.Init.NSS = SPI_NSS_HARD_OUTPUT;
 1641              		.loc 1 776 3 is_stmt 1 view .LVU387
 776:Core/Src/main.c ****   hspi1.Init.NSS = SPI_NSS_HARD_OUTPUT;
 1642              		.loc 1 776 23 is_stmt 0 view .LVU388
 1643 001a 4361     		str	r3, [r0, #20]
 777:Core/Src/main.c ****   hspi1.Init.BaudRatePrescaler = SPI_BAUDRATEPRESCALER_2;
 1644              		.loc 1 777 3 is_stmt 1 view .LVU389
 777:Core/Src/main.c ****   hspi1.Init.BaudRatePrescaler = SPI_BAUDRATEPRESCALER_2;
 1645              		.loc 1 777 18 is_stmt 0 view .LVU390
 1646 001c 4FF48022 		mov	r2, #262144
 1647 0020 8261     		str	r2, [r0, #24]
 778:Core/Src/main.c ****   hspi1.Init.FirstBit = SPI_FIRSTBIT_MSB;
 1648              		.loc 1 778 3 is_stmt 1 view .LVU391
 778:Core/Src/main.c ****   hspi1.Init.FirstBit = SPI_FIRSTBIT_MSB;
 1649              		.loc 1 778 32 is_stmt 0 view .LVU392
 1650 0022 C361     		str	r3, [r0, #28]
 779:Core/Src/main.c ****   hspi1.Init.TIMode = SPI_TIMODE_DISABLE;
 1651              		.loc 1 779 3 is_stmt 1 view .LVU393
 779:Core/Src/main.c ****   hspi1.Init.TIMode = SPI_TIMODE_DISABLE;
 1652              		.loc 1 779 23 is_stmt 0 view .LVU394
 1653 0024 0362     		str	r3, [r0, #32]
 780:Core/Src/main.c ****   hspi1.Init.CRCCalculation = SPI_CRCCALCULATION_DISABLE;
 1654              		.loc 1 780 3 is_stmt 1 view .LVU395
 780:Core/Src/main.c ****   hspi1.Init.CRCCalculation = SPI_CRCCALCULATION_DISABLE;
 1655              		.loc 1 780 21 is_stmt 0 view .LVU396
 1656 0026 4362     		str	r3, [r0, #36]
 781:Core/Src/main.c ****   hspi1.Init.CRCPolynomial = 10;
 1657              		.loc 1 781 3 is_stmt 1 view .LVU397
 781:Core/Src/main.c ****   hspi1.Init.CRCPolynomial = 10;
 1658              		.loc 1 781 29 is_stmt 0 view .LVU398
 1659 0028 8362     		str	r3, [r0, #40]
 782:Core/Src/main.c ****   if (HAL_SPI_Init(&hspi1) != HAL_OK)
ARM GAS  C:\Users\kroko\AppData\Local\Temp\ccpAdhTr.s 			page 77


 1660              		.loc 1 782 3 is_stmt 1 view .LVU399
 782:Core/Src/main.c ****   if (HAL_SPI_Init(&hspi1) != HAL_OK)
 1661              		.loc 1 782 28 is_stmt 0 view .LVU400
 1662 002a 0A23     		movs	r3, #10
 1663 002c C362     		str	r3, [r0, #44]
 783:Core/Src/main.c ****   {
 1664              		.loc 1 783 3 is_stmt 1 view .LVU401
 783:Core/Src/main.c ****   {
 1665              		.loc 1 783 7 is_stmt 0 view .LVU402
 1666 002e FFF7FEFF 		bl	HAL_SPI_Init
 1667              	.LVL113:
 783:Core/Src/main.c ****   {
 1668              		.loc 1 783 6 discriminator 1 view .LVU403
 1669 0032 00B9     		cbnz	r0, .L108
 1670              	.L105:
 791:Core/Src/main.c **** 
 1671              		.loc 1 791 1 view .LVU404
 1672 0034 08BD     		pop	{r3, pc}
 1673              	.L108:
 785:Core/Src/main.c ****   }
 1674              		.loc 1 785 5 is_stmt 1 view .LVU405
 1675 0036 FFF7FEFF 		bl	Error_Handler
 1676              	.LVL114:
 791:Core/Src/main.c **** 
 1677              		.loc 1 791 1 is_stmt 0 view .LVU406
 1678 003a FBE7     		b	.L105
 1679              	.L110:
 1680              		.align	2
 1681              	.L109:
 1682 003c 00000000 		.word	hspi1
 1683 0040 00300140 		.word	1073819648
 1684              		.cfi_endproc
 1685              	.LFE142:
 1687              		.section	.text.MX_UART5_Init,"ax",%progbits
 1688              		.align	1
 1689              		.syntax unified
 1690              		.thumb
 1691              		.thumb_func
 1693              	MX_UART5_Init:
 1694              	.LFB145:
 870:Core/Src/main.c **** 
 1695              		.loc 1 870 1 is_stmt 1 view -0
 1696              		.cfi_startproc
 1697              		@ args = 0, pretend = 0, frame = 0
 1698              		@ frame_needed = 0, uses_anonymous_args = 0
 1699 0000 08B5     		push	{r3, lr}
 1700              		.cfi_def_cfa_offset 8
 1701              		.cfi_offset 3, -8
 1702              		.cfi_offset 14, -4
 879:Core/Src/main.c ****   huart5.Init.BaudRate = 115200;
 1703              		.loc 1 879 3 view .LVU408
 879:Core/Src/main.c ****   huart5.Init.BaudRate = 115200;
 1704              		.loc 1 879 19 is_stmt 0 view .LVU409
 1705 0002 0A48     		ldr	r0, .L115
 1706 0004 0A4B     		ldr	r3, .L115+4
 1707 0006 0360     		str	r3, [r0]
 880:Core/Src/main.c ****   huart5.Init.WordLength = UART_WORDLENGTH_8B;
ARM GAS  C:\Users\kroko\AppData\Local\Temp\ccpAdhTr.s 			page 78


 1708              		.loc 1 880 3 is_stmt 1 view .LVU410
 880:Core/Src/main.c ****   huart5.Init.WordLength = UART_WORDLENGTH_8B;
 1709              		.loc 1 880 24 is_stmt 0 view .LVU411
 1710 0008 4FF4E133 		mov	r3, #115200
 1711 000c 4360     		str	r3, [r0, #4]
 881:Core/Src/main.c ****   huart5.Init.StopBits = UART_STOPBITS_1;
 1712              		.loc 1 881 3 is_stmt 1 view .LVU412
 881:Core/Src/main.c ****   huart5.Init.StopBits = UART_STOPBITS_1;
 1713              		.loc 1 881 26 is_stmt 0 view .LVU413
 1714 000e 0023     		movs	r3, #0
 1715 0010 8360     		str	r3, [r0, #8]
 882:Core/Src/main.c ****   huart5.Init.Parity = UART_PARITY_NONE;
 1716              		.loc 1 882 3 is_stmt 1 view .LVU414
 882:Core/Src/main.c ****   huart5.Init.Parity = UART_PARITY_NONE;
 1717              		.loc 1 882 24 is_stmt 0 view .LVU415
 1718 0012 C360     		str	r3, [r0, #12]
 883:Core/Src/main.c ****   huart5.Init.Mode = UART_MODE_TX_RX;
 1719              		.loc 1 883 3 is_stmt 1 view .LVU416
 883:Core/Src/main.c ****   huart5.Init.Mode = UART_MODE_TX_RX;
 1720              		.loc 1 883 22 is_stmt 0 view .LVU417
 1721 0014 0361     		str	r3, [r0, #16]
 884:Core/Src/main.c ****   huart5.Init.HwFlowCtl = UART_HWCONTROL_NONE;
 1722              		.loc 1 884 3 is_stmt 1 view .LVU418
 884:Core/Src/main.c ****   huart5.Init.HwFlowCtl = UART_HWCONTROL_NONE;
 1723              		.loc 1 884 20 is_stmt 0 view .LVU419
 1724 0016 0C22     		movs	r2, #12
 1725 0018 4261     		str	r2, [r0, #20]
 885:Core/Src/main.c ****   huart5.Init.OverSampling = UART_OVERSAMPLING_16;
 1726              		.loc 1 885 3 is_stmt 1 view .LVU420
 885:Core/Src/main.c ****   huart5.Init.OverSampling = UART_OVERSAMPLING_16;
 1727              		.loc 1 885 25 is_stmt 0 view .LVU421
 1728 001a 8361     		str	r3, [r0, #24]
 886:Core/Src/main.c ****   if (HAL_UART_Init(&huart5) != HAL_OK)
 1729              		.loc 1 886 3 is_stmt 1 view .LVU422
 886:Core/Src/main.c ****   if (HAL_UART_Init(&huart5) != HAL_OK)
 1730              		.loc 1 886 28 is_stmt 0 view .LVU423
 1731 001c C361     		str	r3, [r0, #28]
 887:Core/Src/main.c ****   {
 1732              		.loc 1 887 3 is_stmt 1 view .LVU424
 887:Core/Src/main.c ****   {
 1733              		.loc 1 887 7 is_stmt 0 view .LVU425
 1734 001e FFF7FEFF 		bl	HAL_UART_Init
 1735              	.LVL115:
 887:Core/Src/main.c ****   {
 1736              		.loc 1 887 6 discriminator 1 view .LVU426
 1737 0022 00B9     		cbnz	r0, .L114
 1738              	.L111:
 895:Core/Src/main.c **** 
 1739              		.loc 1 895 1 view .LVU427
 1740 0024 08BD     		pop	{r3, pc}
 1741              	.L114:
 889:Core/Src/main.c ****   }
 1742              		.loc 1 889 5 is_stmt 1 view .LVU428
 1743 0026 FFF7FEFF 		bl	Error_Handler
 1744              	.LVL116:
 895:Core/Src/main.c **** 
 1745              		.loc 1 895 1 is_stmt 0 view .LVU429
ARM GAS  C:\Users\kroko\AppData\Local\Temp\ccpAdhTr.s 			page 79


 1746 002a FBE7     		b	.L111
 1747              	.L116:
 1748              		.align	2
 1749              	.L115:
 1750 002c 00000000 		.word	huart5
 1751 0030 00500040 		.word	1073762304
 1752              		.cfi_endproc
 1753              	.LFE145:
 1755              		.section	.text.MX_USART6_UART_Init,"ax",%progbits
 1756              		.align	1
 1757              		.syntax unified
 1758              		.thumb
 1759              		.thumb_func
 1761              	MX_USART6_UART_Init:
 1762              	.LFB148:
 969:Core/Src/main.c **** 
 1763              		.loc 1 969 1 is_stmt 1 view -0
 1764              		.cfi_startproc
 1765              		@ args = 0, pretend = 0, frame = 0
 1766              		@ frame_needed = 0, uses_anonymous_args = 0
 1767 0000 08B5     		push	{r3, lr}
 1768              		.cfi_def_cfa_offset 8
 1769              		.cfi_offset 3, -8
 1770              		.cfi_offset 14, -4
 978:Core/Src/main.c ****   huart6.Init.BaudRate = 115200;
 1771              		.loc 1 978 3 view .LVU431
 978:Core/Src/main.c ****   huart6.Init.BaudRate = 115200;
 1772              		.loc 1 978 19 is_stmt 0 view .LVU432
 1773 0002 0A48     		ldr	r0, .L121
 1774 0004 0A4B     		ldr	r3, .L121+4
 1775 0006 0360     		str	r3, [r0]
 979:Core/Src/main.c ****   huart6.Init.WordLength = UART_WORDLENGTH_8B;
 1776              		.loc 1 979 3 is_stmt 1 view .LVU433
 979:Core/Src/main.c ****   huart6.Init.WordLength = UART_WORDLENGTH_8B;
 1777              		.loc 1 979 24 is_stmt 0 view .LVU434
 1778 0008 4FF4E133 		mov	r3, #115200
 1779 000c 4360     		str	r3, [r0, #4]
 980:Core/Src/main.c ****   huart6.Init.StopBits = UART_STOPBITS_1;
 1780              		.loc 1 980 3 is_stmt 1 view .LVU435
 980:Core/Src/main.c ****   huart6.Init.StopBits = UART_STOPBITS_1;
 1781              		.loc 1 980 26 is_stmt 0 view .LVU436
 1782 000e 0023     		movs	r3, #0
 1783 0010 8360     		str	r3, [r0, #8]
 981:Core/Src/main.c ****   huart6.Init.Parity = UART_PARITY_NONE;
 1784              		.loc 1 981 3 is_stmt 1 view .LVU437
 981:Core/Src/main.c ****   huart6.Init.Parity = UART_PARITY_NONE;
 1785              		.loc 1 981 24 is_stmt 0 view .LVU438
 1786 0012 C360     		str	r3, [r0, #12]
 982:Core/Src/main.c ****   huart6.Init.Mode = UART_MODE_TX_RX;
 1787              		.loc 1 982 3 is_stmt 1 view .LVU439
 982:Core/Src/main.c ****   huart6.Init.Mode = UART_MODE_TX_RX;
 1788              		.loc 1 982 22 is_stmt 0 view .LVU440
 1789 0014 0361     		str	r3, [r0, #16]
 983:Core/Src/main.c ****   huart6.Init.HwFlowCtl = UART_HWCONTROL_NONE;
 1790              		.loc 1 983 3 is_stmt 1 view .LVU441
 983:Core/Src/main.c ****   huart6.Init.HwFlowCtl = UART_HWCONTROL_NONE;
 1791              		.loc 1 983 20 is_stmt 0 view .LVU442
ARM GAS  C:\Users\kroko\AppData\Local\Temp\ccpAdhTr.s 			page 80


 1792 0016 0C22     		movs	r2, #12
 1793 0018 4261     		str	r2, [r0, #20]
 984:Core/Src/main.c ****   huart6.Init.OverSampling = UART_OVERSAMPLING_16;
 1794              		.loc 1 984 3 is_stmt 1 view .LVU443
 984:Core/Src/main.c ****   huart6.Init.OverSampling = UART_OVERSAMPLING_16;
 1795              		.loc 1 984 25 is_stmt 0 view .LVU444
 1796 001a 8361     		str	r3, [r0, #24]
 985:Core/Src/main.c ****   if (HAL_UART_Init(&huart6) != HAL_OK)
 1797              		.loc 1 985 3 is_stmt 1 view .LVU445
 985:Core/Src/main.c ****   if (HAL_UART_Init(&huart6) != HAL_OK)
 1798              		.loc 1 985 28 is_stmt 0 view .LVU446
 1799 001c C361     		str	r3, [r0, #28]
 986:Core/Src/main.c ****   {
 1800              		.loc 1 986 3 is_stmt 1 view .LVU447
 986:Core/Src/main.c ****   {
 1801              		.loc 1 986 7 is_stmt 0 view .LVU448
 1802 001e FFF7FEFF 		bl	HAL_UART_Init
 1803              	.LVL117:
 986:Core/Src/main.c ****   {
 1804              		.loc 1 986 6 discriminator 1 view .LVU449
 1805 0022 00B9     		cbnz	r0, .L120
 1806              	.L117:
 994:Core/Src/main.c **** 
 1807              		.loc 1 994 1 view .LVU450
 1808 0024 08BD     		pop	{r3, pc}
 1809              	.L120:
 988:Core/Src/main.c ****   }
 1810              		.loc 1 988 5 is_stmt 1 view .LVU451
 1811 0026 FFF7FEFF 		bl	Error_Handler
 1812              	.LVL118:
 994:Core/Src/main.c **** 
 1813              		.loc 1 994 1 is_stmt 0 view .LVU452
 1814 002a FBE7     		b	.L117
 1815              	.L122:
 1816              		.align	2
 1817              	.L121:
 1818 002c 00000000 		.word	huart6
 1819 0030 00140140 		.word	1073812480
 1820              		.cfi_endproc
 1821              	.LFE148:
 1823              		.section	.text.MX_SPI2_Init,"ax",%progbits
 1824              		.align	1
 1825              		.syntax unified
 1826              		.thumb
 1827              		.thumb_func
 1829              	MX_SPI2_Init:
 1830              	.LFB143:
 799:Core/Src/main.c **** 
 1831              		.loc 1 799 1 is_stmt 1 view -0
 1832              		.cfi_startproc
 1833              		@ args = 0, pretend = 0, frame = 0
 1834              		@ frame_needed = 0, uses_anonymous_args = 0
 1835 0000 08B5     		push	{r3, lr}
 1836              		.cfi_def_cfa_offset 8
 1837              		.cfi_offset 3, -8
 1838              		.cfi_offset 14, -4
 809:Core/Src/main.c ****   hspi2.Init.Mode = SPI_MODE_MASTER;
ARM GAS  C:\Users\kroko\AppData\Local\Temp\ccpAdhTr.s 			page 81


 1839              		.loc 1 809 3 view .LVU454
 809:Core/Src/main.c ****   hspi2.Init.Mode = SPI_MODE_MASTER;
 1840              		.loc 1 809 18 is_stmt 0 view .LVU455
 1841 0002 0E48     		ldr	r0, .L127
 1842 0004 0E4B     		ldr	r3, .L127+4
 1843 0006 0360     		str	r3, [r0]
 810:Core/Src/main.c ****   hspi2.Init.Direction = SPI_DIRECTION_2LINES;
 1844              		.loc 1 810 3 is_stmt 1 view .LVU456
 810:Core/Src/main.c ****   hspi2.Init.Direction = SPI_DIRECTION_2LINES;
 1845              		.loc 1 810 19 is_stmt 0 view .LVU457
 1846 0008 4FF48273 		mov	r3, #260
 1847 000c 4360     		str	r3, [r0, #4]
 811:Core/Src/main.c ****   hspi2.Init.DataSize = SPI_DATASIZE_8BIT;
 1848              		.loc 1 811 3 is_stmt 1 view .LVU458
 811:Core/Src/main.c ****   hspi2.Init.DataSize = SPI_DATASIZE_8BIT;
 1849              		.loc 1 811 24 is_stmt 0 view .LVU459
 1850 000e 0023     		movs	r3, #0
 1851 0010 8360     		str	r3, [r0, #8]
 812:Core/Src/main.c ****   hspi2.Init.CLKPolarity = SPI_POLARITY_LOW;
 1852              		.loc 1 812 3 is_stmt 1 view .LVU460
 812:Core/Src/main.c ****   hspi2.Init.CLKPolarity = SPI_POLARITY_LOW;
 1853              		.loc 1 812 23 is_stmt 0 view .LVU461
 1854 0012 C360     		str	r3, [r0, #12]
 813:Core/Src/main.c ****   hspi2.Init.CLKPhase = SPI_PHASE_1EDGE;
 1855              		.loc 1 813 3 is_stmt 1 view .LVU462
 813:Core/Src/main.c ****   hspi2.Init.CLKPhase = SPI_PHASE_1EDGE;
 1856              		.loc 1 813 26 is_stmt 0 view .LVU463
 1857 0014 0361     		str	r3, [r0, #16]
 814:Core/Src/main.c ****   hspi2.Init.NSS = SPI_NSS_SOFT;
 1858              		.loc 1 814 3 is_stmt 1 view .LVU464
 814:Core/Src/main.c ****   hspi2.Init.NSS = SPI_NSS_SOFT;
 1859              		.loc 1 814 23 is_stmt 0 view .LVU465
 1860 0016 4361     		str	r3, [r0, #20]
 815:Core/Src/main.c ****   hspi2.Init.BaudRatePrescaler = SPI_BAUDRATEPRESCALER_256;
 1861              		.loc 1 815 3 is_stmt 1 view .LVU466
 815:Core/Src/main.c ****   hspi2.Init.BaudRatePrescaler = SPI_BAUDRATEPRESCALER_256;
 1862              		.loc 1 815 18 is_stmt 0 view .LVU467
 1863 0018 4FF40072 		mov	r2, #512
 1864 001c 8261     		str	r2, [r0, #24]
 816:Core/Src/main.c ****   hspi2.Init.FirstBit = SPI_FIRSTBIT_MSB;
 1865              		.loc 1 816 3 is_stmt 1 view .LVU468
 816:Core/Src/main.c ****   hspi2.Init.FirstBit = SPI_FIRSTBIT_MSB;
 1866              		.loc 1 816 32 is_stmt 0 view .LVU469
 1867 001e 3822     		movs	r2, #56
 1868 0020 C261     		str	r2, [r0, #28]
 817:Core/Src/main.c ****   hspi2.Init.TIMode = SPI_TIMODE_DISABLE;
 1869              		.loc 1 817 3 is_stmt 1 view .LVU470
 817:Core/Src/main.c ****   hspi2.Init.TIMode = SPI_TIMODE_DISABLE;
 1870              		.loc 1 817 23 is_stmt 0 view .LVU471
 1871 0022 0362     		str	r3, [r0, #32]
 818:Core/Src/main.c ****   hspi2.Init.CRCCalculation = SPI_CRCCALCULATION_DISABLE;
 1872              		.loc 1 818 3 is_stmt 1 view .LVU472
 818:Core/Src/main.c ****   hspi2.Init.CRCCalculation = SPI_CRCCALCULATION_DISABLE;
 1873              		.loc 1 818 21 is_stmt 0 view .LVU473
 1874 0024 4362     		str	r3, [r0, #36]
 819:Core/Src/main.c ****   hspi2.Init.CRCPolynomial = 10;
 1875              		.loc 1 819 3 is_stmt 1 view .LVU474
ARM GAS  C:\Users\kroko\AppData\Local\Temp\ccpAdhTr.s 			page 82


 819:Core/Src/main.c ****   hspi2.Init.CRCPolynomial = 10;
 1876              		.loc 1 819 29 is_stmt 0 view .LVU475
 1877 0026 8362     		str	r3, [r0, #40]
 820:Core/Src/main.c ****   if (HAL_SPI_Init(&hspi2) != HAL_OK)
 1878              		.loc 1 820 3 is_stmt 1 view .LVU476
 820:Core/Src/main.c ****   if (HAL_SPI_Init(&hspi2) != HAL_OK)
 1879              		.loc 1 820 28 is_stmt 0 view .LVU477
 1880 0028 0A23     		movs	r3, #10
 1881 002a C362     		str	r3, [r0, #44]
 821:Core/Src/main.c ****   {
 1882              		.loc 1 821 3 is_stmt 1 view .LVU478
 821:Core/Src/main.c ****   {
 1883              		.loc 1 821 7 is_stmt 0 view .LVU479
 1884 002c FFF7FEFF 		bl	HAL_SPI_Init
 1885              	.LVL119:
 821:Core/Src/main.c ****   {
 1886              		.loc 1 821 6 discriminator 1 view .LVU480
 1887 0030 00B9     		cbnz	r0, .L126
 1888              	.L123:
 829:Core/Src/main.c **** 
 1889              		.loc 1 829 1 view .LVU481
 1890 0032 08BD     		pop	{r3, pc}
 1891              	.L126:
 823:Core/Src/main.c ****   }
 1892              		.loc 1 823 5 is_stmt 1 view .LVU482
 1893 0034 FFF7FEFF 		bl	Error_Handler
 1894              	.LVL120:
 829:Core/Src/main.c **** 
 1895              		.loc 1 829 1 is_stmt 0 view .LVU483
 1896 0038 FBE7     		b	.L123
 1897              	.L128:
 1898 003a 00BF     		.align	2
 1899              	.L127:
 1900 003c 00000000 		.word	hspi2
 1901 0040 00380040 		.word	1073756160
 1902              		.cfi_endproc
 1903              	.LFE143:
 1905              		.section	.text.MX_RTC_Init,"ax",%progbits
 1906              		.align	1
 1907              		.syntax unified
 1908              		.thumb
 1909              		.thumb_func
 1911              	MX_RTC_Init:
 1912              	.LFB141:
 663:Core/Src/main.c **** 
 1913              		.loc 1 663 1 is_stmt 1 view -0
 1914              		.cfi_startproc
