ARM GAS  C:\Users\kroko\AppData\Local\Temp\cckzzzRz.s 			page 1


   1              		.cpu cortex-m4
   2              		.arch armv7e-m
   3              		.fpu fpv4-sp-d16
   4              		.eabi_attribute 27, 1
   5              		.eabi_attribute 28, 1
   6              		.eabi_attribute 20, 1
   7              		.eabi_attribute 21, 1
   8              		.eabi_attribute 23, 3
   9              		.eabi_attribute 24, 1
  10              		.eabi_attribute 25, 1
  11              		.eabi_attribute 26, 1
  12              		.eabi_attribute 30, 1
  13              		.eabi_attribute 34, 1
  14              		.eabi_attribute 18, 4
  15              		.file	"stm32f4xx_it.c"
  16              		.text
  17              	.Ltext0:
  18              		.cfi_sections	.debug_frame
  19              		.file 1 "Core/Src/stm32f4xx_it.c"
  20              		.section	.text.SDTimer_Handler,"ax",%progbits
  21              		.align	1
  22              		.global	SDTimer_Handler
  23              		.syntax unified
  24              		.thumb
  25              		.thumb_func
  27              	SDTimer_Handler:
  28              	.LFB134:
   1:Core/Src/stm32f4xx_it.c **** /* USER CODE BEGIN Header */
   2:Core/Src/stm32f4xx_it.c **** /**
   3:Core/Src/stm32f4xx_it.c ****   ******************************************************************************
   4:Core/Src/stm32f4xx_it.c ****   * @file    stm32f4xx_it.c
   5:Core/Src/stm32f4xx_it.c ****   * @brief   Interrupt Service Routines.
   6:Core/Src/stm32f4xx_it.c ****   ******************************************************************************
   7:Core/Src/stm32f4xx_it.c ****   * @attention
   8:Core/Src/stm32f4xx_it.c ****   *
   9:Core/Src/stm32f4xx_it.c ****   * Copyright (c) 2024 STMicroelectronics.
  10:Core/Src/stm32f4xx_it.c ****   * All rights reserved.
  11:Core/Src/stm32f4xx_it.c ****   *
  12:Core/Src/stm32f4xx_it.c ****   * This software is licensed under terms that can be found in the LICENSE file
  13:Core/Src/stm32f4xx_it.c ****   * in the root directory of this software component.
  14:Core/Src/stm32f4xx_it.c ****   * If no LICENSE file comes with this software, it is provided AS-IS.
  15:Core/Src/stm32f4xx_it.c ****   *
  16:Core/Src/stm32f4xx_it.c ****   ******************************************************************************
  17:Core/Src/stm32f4xx_it.c ****   */
  18:Core/Src/stm32f4xx_it.c **** /* USER CODE END Header */
  19:Core/Src/stm32f4xx_it.c **** 
  20:Core/Src/stm32f4xx_it.c **** /* Includes ------------------------------------------------------------------*/
  21:Core/Src/stm32f4xx_it.c **** #include "main.h"
  22:Core/Src/stm32f4xx_it.c **** #include "stm32f4xx_it.h"
  23:Core/Src/stm32f4xx_it.c **** /* Private includes ----------------------------------------------------------*/
  24:Core/Src/stm32f4xx_it.c **** /* USER CODE BEGIN Includes */
  25:Core/Src/stm32f4xx_it.c **** /* USER CODE END Includes */
  26:Core/Src/stm32f4xx_it.c **** 
  27:Core/Src/stm32f4xx_it.c **** /* Private typedef -----------------------------------------------------------*/
  28:Core/Src/stm32f4xx_it.c **** /* USER CODE BEGIN TD */
  29:Core/Src/stm32f4xx_it.c **** 
  30:Core/Src/stm32f4xx_it.c **** /* USER CODE END TD */
ARM GAS  C:\Users\kroko\AppData\Local\Temp\cckzzzRz.s 			page 2


  31:Core/Src/stm32f4xx_it.c **** 
  32:Core/Src/stm32f4xx_it.c **** /* Private define ------------------------------------------------------------*/
  33:Core/Src/stm32f4xx_it.c **** /* USER CODE BEGIN PD */
  34:Core/Src/stm32f4xx_it.c **** 
  35:Core/Src/stm32f4xx_it.c **** /* USER CODE END PD */
  36:Core/Src/stm32f4xx_it.c **** 
  37:Core/Src/stm32f4xx_it.c **** /* Private macro -------------------------------------------------------------*/
  38:Core/Src/stm32f4xx_it.c **** /* USER CODE BEGIN PM */
  39:Core/Src/stm32f4xx_it.c **** 
  40:Core/Src/stm32f4xx_it.c **** /* USER CODE END PM */
  41:Core/Src/stm32f4xx_it.c **** 
  42:Core/Src/stm32f4xx_it.c **** /* Private variables ---------------------------------------------------------*/
  43:Core/Src/stm32f4xx_it.c **** /* USER CODE BEGIN PV */
  44:Core/Src/stm32f4xx_it.c **** volatile uint8_t FatFsCnt = 0;
  45:Core/Src/stm32f4xx_it.c **** volatile uint8_t Timer1, Timer2;
  46:Core/Src/stm32f4xx_it.c **** /* USER CODE END PV */
  47:Core/Src/stm32f4xx_it.c **** 
  48:Core/Src/stm32f4xx_it.c **** /* Private function prototypes -----------------------------------------------*/
  49:Core/Src/stm32f4xx_it.c **** /* USER CODE BEGIN PFP */
  50:Core/Src/stm32f4xx_it.c **** 
  51:Core/Src/stm32f4xx_it.c **** /* USER CODE END PFP */
  52:Core/Src/stm32f4xx_it.c **** 
  53:Core/Src/stm32f4xx_it.c **** /* Private user code ---------------------------------------------------------*/
  54:Core/Src/stm32f4xx_it.c **** /* USER CODE BEGIN 0 */
  55:Core/Src/stm32f4xx_it.c **** 
  56:Core/Src/stm32f4xx_it.c **** /* USER CODE END 0 */
  57:Core/Src/stm32f4xx_it.c **** 
  58:Core/Src/stm32f4xx_it.c **** /* External variables --------------------------------------------------------*/
  59:Core/Src/stm32f4xx_it.c **** extern DMA_HandleTypeDef hdma_spi1_tx;
  60:Core/Src/stm32f4xx_it.c **** extern DMA_HandleTypeDef hdma_uart5_rx;
  61:Core/Src/stm32f4xx_it.c **** extern DMA_HandleTypeDef hdma_uart5_tx;
  62:Core/Src/stm32f4xx_it.c **** extern DMA_HandleTypeDef hdma_usart6_rx;
  63:Core/Src/stm32f4xx_it.c **** extern DMA_HandleTypeDef hdma_usart6_tx;
  64:Core/Src/stm32f4xx_it.c **** extern UART_HandleTypeDef huart5;
  65:Core/Src/stm32f4xx_it.c **** extern UART_HandleTypeDef huart6;
  66:Core/Src/stm32f4xx_it.c **** /* USER CODE BEGIN EV */
  67:Core/Src/stm32f4xx_it.c **** 
  68:Core/Src/stm32f4xx_it.c **** void SDTimer_Handler(void)
  69:Core/Src/stm32f4xx_it.c **** {
  29              		.loc 1 69 1 view -0
  30              		.cfi_startproc
  31              		@ args = 0, pretend = 0, frame = 0
  32              		@ frame_needed = 0, uses_anonymous_args = 0
  33              		@ link register save eliminated.
  70:Core/Src/stm32f4xx_it.c ****   if(Timer1 > 0)
  34              		.loc 1 70 3 view .LVU1
  35              		.loc 1 70 13 is_stmt 0 view .LVU2
  36 0000 084B     		ldr	r3, .L4
  37 0002 1B78     		ldrb	r3, [r3]	@ zero_extendqisi2
  38              		.loc 1 70 5 view .LVU3
  39 0004 23B1     		cbz	r3, .L2
  71:Core/Src/stm32f4xx_it.c ****     Timer1--;
  40              		.loc 1 71 5 is_stmt 1 view .LVU4
  41              		.loc 1 71 11 is_stmt 0 view .LVU5
  42 0006 074A     		ldr	r2, .L4
  43 0008 1378     		ldrb	r3, [r2]	@ zero_extendqisi2
  44 000a 013B     		subs	r3, r3, #1
ARM GAS  C:\Users\kroko\AppData\Local\Temp\cckzzzRz.s 			page 3


  45 000c DBB2     		uxtb	r3, r3
  46 000e 1370     		strb	r3, [r2]
  47              	.L2:
  72:Core/Src/stm32f4xx_it.c **** 
  73:Core/Src/stm32f4xx_it.c ****   if(Timer2 > 0)
  48              		.loc 1 73 3 is_stmt 1 view .LVU6
  49              		.loc 1 73 13 is_stmt 0 view .LVU7
  50 0010 054B     		ldr	r3, .L4+4
  51 0012 1B78     		ldrb	r3, [r3]	@ zero_extendqisi2
  52              		.loc 1 73 5 view .LVU8
  53 0014 23B1     		cbz	r3, .L1
  74:Core/Src/stm32f4xx_it.c ****     Timer2--;
  54              		.loc 1 74 5 is_stmt 1 view .LVU9
  55              		.loc 1 74 11 is_stmt 0 view .LVU10
  56 0016 044A     		ldr	r2, .L4+4
  57 0018 1378     		ldrb	r3, [r2]	@ zero_extendqisi2
  58 001a 013B     		subs	r3, r3, #1
  59 001c DBB2     		uxtb	r3, r3
  60 001e 1370     		strb	r3, [r2]
  61              	.L1:
  75:Core/Src/stm32f4xx_it.c **** }
  62              		.loc 1 75 1 view .LVU11
  63 0020 7047     		bx	lr
  64              	.L5:
  65 0022 00BF     		.align	2
  66              	.L4:
  67 0024 00000000 		.word	Timer1
  68 0028 00000000 		.word	Timer2
  69              		.cfi_endproc
  70              	.LFE134:
  72              		.section	.text.NMI_Handler,"ax",%progbits
  73              		.align	1
  74              		.global	NMI_Handler
  75              		.syntax unified
  76              		.thumb
  77              		.thumb_func
  79              	NMI_Handler:
  80              	.LFB135:
  76:Core/Src/stm32f4xx_it.c **** /* USER CODE END EV */
  77:Core/Src/stm32f4xx_it.c **** 
  78:Core/Src/stm32f4xx_it.c **** /******************************************************************************/
  79:Core/Src/stm32f4xx_it.c **** /*           Cortex-M4 Processor Interruption and Exception Handlers          */
  80:Core/Src/stm32f4xx_it.c **** /******************************************************************************/
  81:Core/Src/stm32f4xx_it.c **** /**
  82:Core/Src/stm32f4xx_it.c ****   * @brief This function handles Non maskable interrupt.
  83:Core/Src/stm32f4xx_it.c ****   */
  84:Core/Src/stm32f4xx_it.c **** void NMI_Handler(void)
  85:Core/Src/stm32f4xx_it.c **** {
  81              		.loc 1 85 1 is_stmt 1 view -0
  82              		.cfi_startproc
  83              		@ Volatile: function does not return.
  84              		@ args = 0, pretend = 0, frame = 0
  85              		@ frame_needed = 0, uses_anonymous_args = 0
  86              		@ link register save eliminated.
  87              	.L7:
  86:Core/Src/stm32f4xx_it.c ****   /* USER CODE BEGIN NonMaskableInt_IRQn 0 */
  87:Core/Src/stm32f4xx_it.c **** 
ARM GAS  C:\Users\kroko\AppData\Local\Temp\cckzzzRz.s 			page 4


  88:Core/Src/stm32f4xx_it.c ****   /* USER CODE END NonMaskableInt_IRQn 0 */
  89:Core/Src/stm32f4xx_it.c ****   /* USER CODE BEGIN NonMaskableInt_IRQn 1 */
  90:Core/Src/stm32f4xx_it.c ****    while (1)
  88              		.loc 1 90 4 view .LVU13
  91:Core/Src/stm32f4xx_it.c ****   {
  92:Core/Src/stm32f4xx_it.c ****   }
  89              		.loc 1 92 3 view .LVU14
  90:Core/Src/stm32f4xx_it.c ****   {
  90              		.loc 1 90 10 view .LVU15
  91 0000 FEE7     		b	.L7
  92              		.cfi_endproc
  93              	.LFE135:
  95              		.section	.text.HardFault_Handler,"ax",%progbits
  96              		.align	1
  97              		.global	HardFault_Handler
  98              		.syntax unified
  99              		.thumb
 100              		.thumb_func
 102              	HardFault_Handler:
 103              	.LFB136:
  93:Core/Src/stm32f4xx_it.c ****   /* USER CODE END NonMaskableInt_IRQn 1 */
  94:Core/Src/stm32f4xx_it.c **** }
  95:Core/Src/stm32f4xx_it.c **** 
  96:Core/Src/stm32f4xx_it.c **** /**
  97:Core/Src/stm32f4xx_it.c ****   * @brief This function handles Hard fault interrupt.
  98:Core/Src/stm32f4xx_it.c ****   */
  99:Core/Src/stm32f4xx_it.c **** void HardFault_Handler(void)
 100:Core/Src/stm32f4xx_it.c **** {
 104              		.loc 1 100 1 view -0
 105              		.cfi_startproc
 106              		@ Volatile: function does not return.
 107              		@ args = 0, pretend = 0, frame = 0
 108              		@ frame_needed = 0, uses_anonymous_args = 0
 109              		@ link register save eliminated.
 110              	.L9:
 101:Core/Src/stm32f4xx_it.c ****   /* USER CODE BEGIN HardFault_IRQn 0 */
 102:Core/Src/stm32f4xx_it.c **** 
 103:Core/Src/stm32f4xx_it.c ****   /* USER CODE END HardFault_IRQn 0 */
 104:Core/Src/stm32f4xx_it.c ****   while (1)
 111              		.loc 1 104 3 view .LVU17
 105:Core/Src/stm32f4xx_it.c ****   {
 106:Core/Src/stm32f4xx_it.c ****     /* USER CODE BEGIN W1_HardFault_IRQn 0 */
 107:Core/Src/stm32f4xx_it.c ****     /* USER CODE END W1_HardFault_IRQn 0 */
 108:Core/Src/stm32f4xx_it.c ****   }
 112              		.loc 1 108 3 view .LVU18
 104:Core/Src/stm32f4xx_it.c ****   {
 113              		.loc 1 104 9 view .LVU19
 114 0000 FEE7     		b	.L9
 115              		.cfi_endproc
 116              	.LFE136:
 118              		.section	.text.MemManage_Handler,"ax",%progbits
 119              		.align	1
 120              		.global	MemManage_Handler
 121              		.syntax unified
 122              		.thumb
 123              		.thumb_func
 125              	MemManage_Handler:
ARM GAS  C:\Users\kroko\AppData\Local\Temp\cckzzzRz.s 			page 5


 126              	.LFB137:
 109:Core/Src/stm32f4xx_it.c **** }
 110:Core/Src/stm32f4xx_it.c **** 
 111:Core/Src/stm32f4xx_it.c **** /**
 112:Core/Src/stm32f4xx_it.c ****   * @brief This function handles Memory management fault.
 113:Core/Src/stm32f4xx_it.c ****   */
 114:Core/Src/stm32f4xx_it.c **** void MemManage_Handler(void)
 115:Core/Src/stm32f4xx_it.c **** {
 127              		.loc 1 115 1 view -0
 128              		.cfi_startproc
 129              		@ Volatile: function does not return.
 130              		@ args = 0, pretend = 0, frame = 0
 131              		@ frame_needed = 0, uses_anonymous_args = 0
 132              		@ link register save eliminated.
 133              	.L11:
 116:Core/Src/stm32f4xx_it.c ****   /* USER CODE BEGIN MemoryManagement_IRQn 0 */
 117:Core/Src/stm32f4xx_it.c **** 
 118:Core/Src/stm32f4xx_it.c ****   /* USER CODE END MemoryManagement_IRQn 0 */
 119:Core/Src/stm32f4xx_it.c ****   while (1)
 134              		.loc 1 119 3 view .LVU21
 120:Core/Src/stm32f4xx_it.c ****   {
 121:Core/Src/stm32f4xx_it.c ****     /* USER CODE BEGIN W1_MemoryManagement_IRQn 0 */
 122:Core/Src/stm32f4xx_it.c ****     /* USER CODE END W1_MemoryManagement_IRQn 0 */
 123:Core/Src/stm32f4xx_it.c ****   }
 135              		.loc 1 123 3 view .LVU22
 119:Core/Src/stm32f4xx_it.c ****   {
 136              		.loc 1 119 9 view .LVU23
 137 0000 FEE7     		b	.L11
 138              		.cfi_endproc
 139              	.LFE137:
 141              		.section	.text.BusFault_Handler,"ax",%progbits
 142              		.align	1
 143              		.global	BusFault_Handler
 144              		.syntax unified
 145              		.thumb
 146              		.thumb_func
 148              	BusFault_Handler:
 149              	.LFB138:
 124:Core/Src/stm32f4xx_it.c **** }
 125:Core/Src/stm32f4xx_it.c **** 
 126:Core/Src/stm32f4xx_it.c **** /**
 127:Core/Src/stm32f4xx_it.c ****   * @brief This function handles Pre-fetch fault, memory access fault.
 128:Core/Src/stm32f4xx_it.c ****   */
 129:Core/Src/stm32f4xx_it.c **** void BusFault_Handler(void)
 130:Core/Src/stm32f4xx_it.c **** {
 150              		.loc 1 130 1 view -0
 151              		.cfi_startproc
 152              		@ Volatile: function does not return.
 153              		@ args = 0, pretend = 0, frame = 0
 154              		@ frame_needed = 0, uses_anonymous_args = 0
 155              		@ link register save eliminated.
 156              	.L13:
 131:Core/Src/stm32f4xx_it.c ****   /* USER CODE BEGIN BusFault_IRQn 0 */
 132:Core/Src/stm32f4xx_it.c **** 
 133:Core/Src/stm32f4xx_it.c ****   /* USER CODE END BusFault_IRQn 0 */
 134:Core/Src/stm32f4xx_it.c ****   while (1)
 157              		.loc 1 134 3 view .LVU25
ARM GAS  C:\Users\kroko\AppData\Local\Temp\cckzzzRz.s 			page 6


 135:Core/Src/stm32f4xx_it.c ****   {
 136:Core/Src/stm32f4xx_it.c ****     /* USER CODE BEGIN W1_BusFault_IRQn 0 */
 137:Core/Src/stm32f4xx_it.c ****     /* USER CODE END W1_BusFault_IRQn 0 */
 138:Core/Src/stm32f4xx_it.c ****   }
 158              		.loc 1 138 3 view .LVU26
 134:Core/Src/stm32f4xx_it.c ****   {
 159              		.loc 1 134 9 view .LVU27
 160 0000 FEE7     		b	.L13
 161              		.cfi_endproc
 162              	.LFE138:
 164              		.section	.text.UsageFault_Handler,"ax",%progbits
 165              		.align	1
 166              		.global	UsageFault_Handler
 167              		.syntax unified
 168              		.thumb
 169              		.thumb_func
 171              	UsageFault_Handler:
 172              	.LFB139:
 139:Core/Src/stm32f4xx_it.c **** }
 140:Core/Src/stm32f4xx_it.c **** 
 141:Core/Src/stm32f4xx_it.c **** /**
 142:Core/Src/stm32f4xx_it.c ****   * @brief This function handles Undefined instruction or illegal state.
 143:Core/Src/stm32f4xx_it.c ****   */
 144:Core/Src/stm32f4xx_it.c **** void UsageFault_Handler(void)
 145:Core/Src/stm32f4xx_it.c **** {
 173              		.loc 1 145 1 view -0
 174              		.cfi_startproc
 175              		@ Volatile: function does not return.
 176              		@ args = 0, pretend = 0, frame = 0
 177              		@ frame_needed = 0, uses_anonymous_args = 0
 178              		@ link register save eliminated.
 179              	.L15:
 146:Core/Src/stm32f4xx_it.c ****   /* USER CODE BEGIN UsageFault_IRQn 0 */
 147:Core/Src/stm32f4xx_it.c **** 
 148:Core/Src/stm32f4xx_it.c ****   /* USER CODE END UsageFault_IRQn 0 */
 149:Core/Src/stm32f4xx_it.c ****   while (1)
 180              		.loc 1 149 3 view .LVU29
 150:Core/Src/stm32f4xx_it.c ****   {
 151:Core/Src/stm32f4xx_it.c ****     /* USER CODE BEGIN W1_UsageFault_IRQn 0 */
 152:Core/Src/stm32f4xx_it.c ****     /* USER CODE END W1_UsageFault_IRQn 0 */
 153:Core/Src/stm32f4xx_it.c ****   }
 181              		.loc 1 153 3 view .LVU30
 149:Core/Src/stm32f4xx_it.c ****   {
 182              		.loc 1 149 9 view .LVU31
 183 0000 FEE7     		b	.L15
 184              		.cfi_endproc
 185              	.LFE139:
 187              		.section	.text.SVC_Handler,"ax",%progbits
 188              		.align	1
 189              		.global	SVC_Handler
 190              		.syntax unified
 191              		.thumb
 192              		.thumb_func
 194              	SVC_Handler:
 195              	.LFB140:
 154:Core/Src/stm32f4xx_it.c **** }
 155:Core/Src/stm32f4xx_it.c **** 
ARM GAS  C:\Users\kroko\AppData\Local\Temp\cckzzzRz.s 			page 7


 156:Core/Src/stm32f4xx_it.c **** /**
 157:Core/Src/stm32f4xx_it.c ****   * @brief This function handles System service call via SWI instruction.
 158:Core/Src/stm32f4xx_it.c ****   */
 159:Core/Src/stm32f4xx_it.c **** void SVC_Handler(void)
 160:Core/Src/stm32f4xx_it.c **** {
 196              		.loc 1 160 1 view -0
 197              		.cfi_startproc
 198              		@ args = 0, pretend = 0, frame = 0
 199              		@ frame_needed = 0, uses_anonymous_args = 0
 200              		@ link register save eliminated.
 161:Core/Src/stm32f4xx_it.c ****   /* USER CODE BEGIN SVCall_IRQn 0 */
 162:Core/Src/stm32f4xx_it.c **** 
 163:Core/Src/stm32f4xx_it.c ****   /* USER CODE END SVCall_IRQn 0 */
 164:Core/Src/stm32f4xx_it.c ****   /* USER CODE BEGIN SVCall_IRQn 1 */
 165:Core/Src/stm32f4xx_it.c **** 
 166:Core/Src/stm32f4xx_it.c ****   /* USER CODE END SVCall_IRQn 1 */
 167:Core/Src/stm32f4xx_it.c **** }
 201              		.loc 1 167 1 view .LVU33
 202 0000 7047     		bx	lr
 203              		.cfi_endproc
 204              	.LFE140:
 206              		.section	.text.DebugMon_Handler,"ax",%progbits
 207              		.align	1
 208              		.global	DebugMon_Handler
 209              		.syntax unified
 210              		.thumb
 211              		.thumb_func
 213              	DebugMon_Handler:
 214              	.LFB141:
 168:Core/Src/stm32f4xx_it.c **** 
 169:Core/Src/stm32f4xx_it.c **** /**
 170:Core/Src/stm32f4xx_it.c ****   * @brief This function handles Debug monitor.
 171:Core/Src/stm32f4xx_it.c ****   */
 172:Core/Src/stm32f4xx_it.c **** void DebugMon_Handler(void)
 173:Core/Src/stm32f4xx_it.c **** {
 215              		.loc 1 173 1 view -0
 216              		.cfi_startproc
 217              		@ args = 0, pretend = 0, frame = 0
 218              		@ frame_needed = 0, uses_anonymous_args = 0
 219              		@ link register save eliminated.
 174:Core/Src/stm32f4xx_it.c ****   /* USER CODE BEGIN DebugMonitor_IRQn 0 */
 175:Core/Src/stm32f4xx_it.c **** 
 176:Core/Src/stm32f4xx_it.c ****   /* USER CODE END DebugMonitor_IRQn 0 */
 177:Core/Src/stm32f4xx_it.c ****   /* USER CODE BEGIN DebugMonitor_IRQn 1 */
 178:Core/Src/stm32f4xx_it.c **** 
 179:Core/Src/stm32f4xx_it.c ****   /* USER CODE END DebugMonitor_IRQn 1 */
 180:Core/Src/stm32f4xx_it.c **** }
 220              		.loc 1 180 1 view .LVU35
 221 0000 7047     		bx	lr
 222              		.cfi_endproc
 223              	.LFE141:
 225              		.section	.text.PendSV_Handler,"ax",%progbits
 226              		.align	1
 227              		.global	PendSV_Handler
 228              		.syntax unified
 229              		.thumb
 230              		.thumb_func
ARM GAS  C:\Users\kroko\AppData\Local\Temp\cckzzzRz.s 			page 8


 232              	PendSV_Handler:
 233              	.LFB142:
 181:Core/Src/stm32f4xx_it.c **** 
 182:Core/Src/stm32f4xx_it.c **** /**
 183:Core/Src/stm32f4xx_it.c ****   * @brief This function handles Pendable request for system service.
 184:Core/Src/stm32f4xx_it.c ****   */
 185:Core/Src/stm32f4xx_it.c **** void PendSV_Handler(void)
 186:Core/Src/stm32f4xx_it.c **** {
 234              		.loc 1 186 1 view -0
 235              		.cfi_startproc
 236              		@ args = 0, pretend = 0, frame = 0
 237              		@ frame_needed = 0, uses_anonymous_args = 0
 238              		@ link register save eliminated.
 187:Core/Src/stm32f4xx_it.c ****   /* USER CODE BEGIN PendSV_IRQn 0 */
 188:Core/Src/stm32f4xx_it.c **** 
 189:Core/Src/stm32f4xx_it.c ****   /* USER CODE END PendSV_IRQn 0 */
 190:Core/Src/stm32f4xx_it.c ****   /* USER CODE BEGIN PendSV_IRQn 1 */
 191:Core/Src/stm32f4xx_it.c **** 
 192:Core/Src/stm32f4xx_it.c ****   /* USER CODE END PendSV_IRQn 1 */
 193:Core/Src/stm32f4xx_it.c **** }
 239              		.loc 1 193 1 view .LVU37
 240 0000 7047     		bx	lr
 241              		.cfi_endproc
 242              	.LFE142:
 244              		.section	.text.SysTick_Handler,"ax",%progbits
 245              		.align	1
 246              		.global	SysTick_Handler
 247              		.syntax unified
 248              		.thumb
 249              		.thumb_func
 251              	SysTick_Handler:
 252              	.LFB143:
 194:Core/Src/stm32f4xx_it.c **** 
 195:Core/Src/stm32f4xx_it.c **** /**
 196:Core/Src/stm32f4xx_it.c ****   * @brief This function handles System tick timer.
 197:Core/Src/stm32f4xx_it.c ****   */
 198:Core/Src/stm32f4xx_it.c **** void SysTick_Handler(void)
 199:Core/Src/stm32f4xx_it.c **** {
 253              		.loc 1 199 1 view -0
 254              		.cfi_startproc
 255              		@ args = 0, pretend = 0, frame = 0
 256              		@ frame_needed = 0, uses_anonymous_args = 0
 257 0000 08B5     		push	{r3, lr}
 258              		.cfi_def_cfa_offset 8
 259              		.cfi_offset 3, -8
 260              		.cfi_offset 14, -4
 200:Core/Src/stm32f4xx_it.c ****   /* USER CODE BEGIN SysTick_IRQn 0 */
 201:Core/Src/stm32f4xx_it.c **** 	  FatFsCnt++;
 261              		.loc 1 201 4 view .LVU39
 262              		.loc 1 201 12 is_stmt 0 view .LVU40
 263 0002 094A     		ldr	r2, .L23
 264 0004 1378     		ldrb	r3, [r2]	@ zero_extendqisi2
 265 0006 0133     		adds	r3, r3, #1
 266 0008 DBB2     		uxtb	r3, r3
 267 000a 1370     		strb	r3, [r2]
 202:Core/Src/stm32f4xx_it.c **** 	  if(FatFsCnt >= 10)
 268              		.loc 1 202 4 is_stmt 1 view .LVU41
ARM GAS  C:\Users\kroko\AppData\Local\Temp\cckzzzRz.s 			page 9


 269              		.loc 1 202 16 is_stmt 0 view .LVU42
 270 000c 1378     		ldrb	r3, [r2]	@ zero_extendqisi2
 271 000e DBB2     		uxtb	r3, r3
 272              		.loc 1 202 6 view .LVU43
 273 0010 092B     		cmp	r3, #9
 274 0012 02D8     		bhi	.L22
 275              	.L20:
 203:Core/Src/stm32f4xx_it.c **** 	  {
 204:Core/Src/stm32f4xx_it.c **** 	    FatFsCnt = 0;
 205:Core/Src/stm32f4xx_it.c **** 	    SDTimer_Handler();
 206:Core/Src/stm32f4xx_it.c **** 	  }
 207:Core/Src/stm32f4xx_it.c ****   /* USER CODE END SysTick_IRQn 0 */
 208:Core/Src/stm32f4xx_it.c ****   HAL_IncTick();
 276              		.loc 1 208 3 is_stmt 1 view .LVU44
 277 0014 FFF7FEFF 		bl	HAL_IncTick
 278              	.LVL0:
 209:Core/Src/stm32f4xx_it.c ****   /* USER CODE BEGIN SysTick_IRQn 1 */
 210:Core/Src/stm32f4xx_it.c **** 
 211:Core/Src/stm32f4xx_it.c ****   /* USER CODE END SysTick_IRQn 1 */
 212:Core/Src/stm32f4xx_it.c **** }
 279              		.loc 1 212 1 is_stmt 0 view .LVU45
 280 0018 08BD     		pop	{r3, pc}
 281              	.L22:
 204:Core/Src/stm32f4xx_it.c **** 	    SDTimer_Handler();
 282              		.loc 1 204 6 is_stmt 1 view .LVU46
 204:Core/Src/stm32f4xx_it.c **** 	    SDTimer_Handler();
 283              		.loc 1 204 15 is_stmt 0 view .LVU47
 284 001a 1346     		mov	r3, r2
 285 001c 0022     		movs	r2, #0
 286 001e 1A70     		strb	r2, [r3]
 205:Core/Src/stm32f4xx_it.c **** 	  }
 287              		.loc 1 205 6 is_stmt 1 view .LVU48
 288 0020 FFF7FEFF 		bl	SDTimer_Handler
 289              	.LVL1:
 290 0024 F6E7     		b	.L20
 291              	.L24:
 292 0026 00BF     		.align	2
 293              	.L23:
 294 0028 00000000 		.word	FatFsCnt
 295              		.cfi_endproc
 296              	.LFE143:
 298              		.section	.text.DMA1_Stream0_IRQHandler,"ax",%progbits
 299              		.align	1
 300              		.global	DMA1_Stream0_IRQHandler
 301              		.syntax unified
 302              		.thumb
 303              		.thumb_func
 305              	DMA1_Stream0_IRQHandler:
 306              	.LFB144:
 213:Core/Src/stm32f4xx_it.c **** 
 214:Core/Src/stm32f4xx_it.c **** /******************************************************************************/
 215:Core/Src/stm32f4xx_it.c **** /* STM32F4xx Peripheral Interrupt Handlers                                    */
 216:Core/Src/stm32f4xx_it.c **** /* Add here the Interrupt Handlers for the used peripherals.                  */
 217:Core/Src/stm32f4xx_it.c **** /* For the available peripheral interrupt handler names,                      */
 218:Core/Src/stm32f4xx_it.c **** /* please refer to the startup file (startup_stm32f4xx.s).                    */
 219:Core/Src/stm32f4xx_it.c **** /******************************************************************************/
 220:Core/Src/stm32f4xx_it.c **** 
ARM GAS  C:\Users\kroko\AppData\Local\Temp\cckzzzRz.s 			page 10


 221:Core/Src/stm32f4xx_it.c **** /**
 222:Core/Src/stm32f4xx_it.c ****   * @brief This function handles DMA1 stream0 global interrupt.
 223:Core/Src/stm32f4xx_it.c ****   */
 224:Core/Src/stm32f4xx_it.c **** void DMA1_Stream0_IRQHandler(void)
 225:Core/Src/stm32f4xx_it.c **** {
 307              		.loc 1 225 1 view -0
 308              		.cfi_startproc
 309              		@ args = 0, pretend = 0, frame = 0
 310              		@ frame_needed = 0, uses_anonymous_args = 0
 311 0000 08B5     		push	{r3, lr}
 312              		.cfi_def_cfa_offset 8
 313              		.cfi_offset 3, -8
 314              		.cfi_offset 14, -4
 226:Core/Src/stm32f4xx_it.c ****   /* USER CODE BEGIN DMA1_Stream0_IRQn 0 */
 227:Core/Src/stm32f4xx_it.c **** 
 228:Core/Src/stm32f4xx_it.c ****   /* USER CODE END DMA1_Stream0_IRQn 0 */
 229:Core/Src/stm32f4xx_it.c ****   HAL_DMA_IRQHandler(&hdma_uart5_rx);
 315              		.loc 1 229 3 view .LVU50
 316 0002 0248     		ldr	r0, .L27
 317 0004 FFF7FEFF 		bl	HAL_DMA_IRQHandler
 318              	.LVL2:
 230:Core/Src/stm32f4xx_it.c ****   /* USER CODE BEGIN DMA1_Stream0_IRQn 1 */
 231:Core/Src/stm32f4xx_it.c **** 
 232:Core/Src/stm32f4xx_it.c ****   /* USER CODE END DMA1_Stream0_IRQn 1 */
 233:Core/Src/stm32f4xx_it.c **** }
 319              		.loc 1 233 1 is_stmt 0 view .LVU51
 320 0008 08BD     		pop	{r3, pc}
 321              	.L28:
 322 000a 00BF     		.align	2
 323              	.L27:
 324 000c 00000000 		.word	hdma_uart5_rx
 325              		.cfi_endproc
 326              	.LFE144:
 328              		.section	.text.EXTI9_5_IRQHandler,"ax",%progbits
 329              		.align	1
 330              		.global	EXTI9_5_IRQHandler
 331              		.syntax unified
 332              		.thumb
 333              		.thumb_func
 335              	EXTI9_5_IRQHandler:
 336              	.LFB145:
 234:Core/Src/stm32f4xx_it.c **** 
 235:Core/Src/stm32f4xx_it.c **** /**
 236:Core/Src/stm32f4xx_it.c ****   * @brief This function handles EXTI line[9:5] interrupts.
 237:Core/Src/stm32f4xx_it.c ****   */
 238:Core/Src/stm32f4xx_it.c **** void EXTI9_5_IRQHandler(void)
 239:Core/Src/stm32f4xx_it.c **** {
 337              		.loc 1 239 1 is_stmt 1 view -0
 338              		.cfi_startproc
 339              		@ args = 0, pretend = 0, frame = 0
 340              		@ frame_needed = 0, uses_anonymous_args = 0
 341 0000 08B5     		push	{r3, lr}
 342              		.cfi_def_cfa_offset 8
 343              		.cfi_offset 3, -8
 344              		.cfi_offset 14, -4
 240:Core/Src/stm32f4xx_it.c ****   /* USER CODE BEGIN EXTI9_5_IRQn 0 */
 241:Core/Src/stm32f4xx_it.c **** 
ARM GAS  C:\Users\kroko\AppData\Local\Temp\cckzzzRz.s 			page 11


 242:Core/Src/stm32f4xx_it.c ****   /* USER CODE END EXTI9_5_IRQn 0 */
 243:Core/Src/stm32f4xx_it.c ****   HAL_GPIO_EXTI_IRQHandler(ENC_S1_Pin);
 345              		.loc 1 243 3 view .LVU53
 346 0002 4FF40070 		mov	r0, #512
 347 0006 FFF7FEFF 		bl	HAL_GPIO_EXTI_IRQHandler
 348              	.LVL3:
 244:Core/Src/stm32f4xx_it.c ****   /* USER CODE BEGIN EXTI9_5_IRQn 1 */
 245:Core/Src/stm32f4xx_it.c **** 
 246:Core/Src/stm32f4xx_it.c ****   /* USER CODE END EXTI9_5_IRQn 1 */
 247:Core/Src/stm32f4xx_it.c **** }
 349              		.loc 1 247 1 is_stmt 0 view .LVU54
 350 000a 08BD     		pop	{r3, pc}
 351              		.cfi_endproc
 352              	.LFE145:
 354              		.section	.text.DMA1_Stream7_IRQHandler,"ax",%progbits
 355              		.align	1
 356              		.global	DMA1_Stream7_IRQHandler
 357              		.syntax unified
 358              		.thumb
 359              		.thumb_func
 361              	DMA1_Stream7_IRQHandler:
 362              	.LFB146:
 248:Core/Src/stm32f4xx_it.c **** 
 249:Core/Src/stm32f4xx_it.c **** /**
 250:Core/Src/stm32f4xx_it.c ****   * @brief This function handles DMA1 stream7 global interrupt.
 251:Core/Src/stm32f4xx_it.c ****   */
 252:Core/Src/stm32f4xx_it.c **** void DMA1_Stream7_IRQHandler(void)
 253:Core/Src/stm32f4xx_it.c **** {
 363              		.loc 1 253 1 is_stmt 1 view -0
 364              		.cfi_startproc
 365              		@ args = 0, pretend = 0, frame = 0
 366              		@ frame_needed = 0, uses_anonymous_args = 0
 367 0000 08B5     		push	{r3, lr}
 368              		.cfi_def_cfa_offset 8
 369              		.cfi_offset 3, -8
 370              		.cfi_offset 14, -4
 254:Core/Src/stm32f4xx_it.c ****   /* USER CODE BEGIN DMA1_Stream7_IRQn 0 */
 255:Core/Src/stm32f4xx_it.c **** 
 256:Core/Src/stm32f4xx_it.c ****   /* USER CODE END DMA1_Stream7_IRQn 0 */
 257:Core/Src/stm32f4xx_it.c ****   HAL_DMA_IRQHandler(&hdma_uart5_tx);
 371              		.loc 1 257 3 view .LVU56
 372 0002 0248     		ldr	r0, .L33
 373 0004 FFF7FEFF 		bl	HAL_DMA_IRQHandler
 374              	.LVL4:
 258:Core/Src/stm32f4xx_it.c ****   /* USER CODE BEGIN DMA1_Stream7_IRQn 1 */
 259:Core/Src/stm32f4xx_it.c **** 
 260:Core/Src/stm32f4xx_it.c ****   /* USER CODE END DMA1_Stream7_IRQn 1 */
 261:Core/Src/stm32f4xx_it.c **** }
 375              		.loc 1 261 1 is_stmt 0 view .LVU57
 376 0008 08BD     		pop	{r3, pc}
 377              	.L34:
 378 000a 00BF     		.align	2
 379              	.L33:
 380 000c 00000000 		.word	hdma_uart5_tx
 381              		.cfi_endproc
 382              	.LFE146:
 384              		.section	.text.UART5_IRQHandler,"ax",%progbits
ARM GAS  C:\Users\kroko\AppData\Local\Temp\cckzzzRz.s 			page 12


 385              		.align	1
 386              		.global	UART5_IRQHandler
 387              		.syntax unified
 388              		.thumb
 389              		.thumb_func
 391              	UART5_IRQHandler:
 392              	.LFB147:
 262:Core/Src/stm32f4xx_it.c **** 
 263:Core/Src/stm32f4xx_it.c **** /**
 264:Core/Src/stm32f4xx_it.c ****   * @brief This function handles UART5 global interrupt.
 265:Core/Src/stm32f4xx_it.c ****   */
 266:Core/Src/stm32f4xx_it.c **** void UART5_IRQHandler(void)
 267:Core/Src/stm32f4xx_it.c **** {
 393              		.loc 1 267 1 is_stmt 1 view -0
 394              		.cfi_startproc
 395              		@ args = 0, pretend = 0, frame = 0
 396              		@ frame_needed = 0, uses_anonymous_args = 0
 397 0000 08B5     		push	{r3, lr}
 398              		.cfi_def_cfa_offset 8
 399              		.cfi_offset 3, -8
 400              		.cfi_offset 14, -4
 268:Core/Src/stm32f4xx_it.c ****   /* USER CODE BEGIN UART5_IRQn 0 */
 269:Core/Src/stm32f4xx_it.c **** 
 270:Core/Src/stm32f4xx_it.c ****   /* USER CODE END UART5_IRQn 0 */
 271:Core/Src/stm32f4xx_it.c ****   HAL_UART_IRQHandler(&huart5);
 401              		.loc 1 271 3 view .LVU59
 402 0002 0248     		ldr	r0, .L37
 403 0004 FFF7FEFF 		bl	HAL_UART_IRQHandler
 404              	.LVL5:
 272:Core/Src/stm32f4xx_it.c ****   /* USER CODE BEGIN UART5_IRQn 1 */
 273:Core/Src/stm32f4xx_it.c **** 
 274:Core/Src/stm32f4xx_it.c ****   /* USER CODE END UART5_IRQn 1 */
 275:Core/Src/stm32f4xx_it.c **** }
 405              		.loc 1 275 1 is_stmt 0 view .LVU60
 406 0008 08BD     		pop	{r3, pc}
 407              	.L38:
 408 000a 00BF     		.align	2
 409              	.L37:
 410 000c 00000000 		.word	huart5
 411              		.cfi_endproc
 412              	.LFE147:
 414              		.section	.text.DMA2_Stream1_IRQHandler,"ax",%progbits
 415              		.align	1
 416              		.global	DMA2_Stream1_IRQHandler
 417              		.syntax unified
 418              		.thumb
 419              		.thumb_func
 421              	DMA2_Stream1_IRQHandler:
 422              	.LFB148:
 276:Core/Src/stm32f4xx_it.c **** 
 277:Core/Src/stm32f4xx_it.c **** /**
 278:Core/Src/stm32f4xx_it.c ****   * @brief This function handles DMA2 stream1 global interrupt.
 279:Core/Src/stm32f4xx_it.c ****   */
 280:Core/Src/stm32f4xx_it.c **** void DMA2_Stream1_IRQHandler(void)
 281:Core/Src/stm32f4xx_it.c **** {
 423              		.loc 1 281 1 is_stmt 1 view -0
 424              		.cfi_startproc
ARM GAS  C:\Users\kroko\AppData\Local\Temp\cckzzzRz.s 			page 13


 425              		@ args = 0, pretend = 0, frame = 0
 426              		@ frame_needed = 0, uses_anonymous_args = 0
 427 0000 08B5     		push	{r3, lr}
 428              		.cfi_def_cfa_offset 8
 429              		.cfi_offset 3, -8
 430              		.cfi_offset 14, -4
 282:Core/Src/stm32f4xx_it.c ****   /* USER CODE BEGIN DMA2_Stream1_IRQn 0 */
 283:Core/Src/stm32f4xx_it.c **** 
 284:Core/Src/stm32f4xx_it.c ****   /* USER CODE END DMA2_Stream1_IRQn 0 */
 285:Core/Src/stm32f4xx_it.c ****   HAL_DMA_IRQHandler(&hdma_usart6_rx);
 431              		.loc 1 285 3 view .LVU62
 432 0002 0248     		ldr	r0, .L41
 433 0004 FFF7FEFF 		bl	HAL_DMA_IRQHandler
 434              	.LVL6:
 286:Core/Src/stm32f4xx_it.c ****   /* USER CODE BEGIN DMA2_Stream1_IRQn 1 */
 287:Core/Src/stm32f4xx_it.c **** 
 288:Core/Src/stm32f4xx_it.c ****   /* USER CODE END DMA2_Stream1_IRQn 1 */
 289:Core/Src/stm32f4xx_it.c **** }
 435              		.loc 1 289 1 is_stmt 0 view .LVU63
 436 0008 08BD     		pop	{r3, pc}
 437              	.L42:
 438 000a 00BF     		.align	2
 439              	.L41:
 440 000c 00000000 		.word	hdma_usart6_rx
 441              		.cfi_endproc
 442              	.LFE148:
 444              		.section	.text.DMA2_Stream2_IRQHandler,"ax",%progbits
 445              		.align	1
 446              		.global	DMA2_Stream2_IRQHandler
 447              		.syntax unified
 448              		.thumb
 449              		.thumb_func
 451              	DMA2_Stream2_IRQHandler:
 452              	.LFB149:
 290:Core/Src/stm32f4xx_it.c **** 
 291:Core/Src/stm32f4xx_it.c **** /**
 292:Core/Src/stm32f4xx_it.c ****   * @brief This function handles DMA2 stream2 global interrupt.
 293:Core/Src/stm32f4xx_it.c ****   */
 294:Core/Src/stm32f4xx_it.c **** void DMA2_Stream2_IRQHandler(void)
 295:Core/Src/stm32f4xx_it.c **** {
 453              		.loc 1 295 1 is_stmt 1 view -0
 454              		.cfi_startproc
 455              		@ args = 0, pretend = 0, frame = 0
 456              		@ frame_needed = 0, uses_anonymous_args = 0
 457 0000 08B5     		push	{r3, lr}
 458              		.cfi_def_cfa_offset 8
 459              		.cfi_offset 3, -8
 460              		.cfi_offset 14, -4
 296:Core/Src/stm32f4xx_it.c ****   /* USER CODE BEGIN DMA2_Stream2_IRQn 0 */
 297:Core/Src/stm32f4xx_it.c **** 
 298:Core/Src/stm32f4xx_it.c ****   /* USER CODE END DMA2_Stream2_IRQn 0 */
 299:Core/Src/stm32f4xx_it.c ****   HAL_DMA_IRQHandler(&hdma_spi1_tx);
 461              		.loc 1 299 3 view .LVU65
 462 0002 0248     		ldr	r0, .L45
 463 0004 FFF7FEFF 		bl	HAL_DMA_IRQHandler
 464              	.LVL7:
 300:Core/Src/stm32f4xx_it.c ****   /* USER CODE BEGIN DMA2_Stream2_IRQn 1 */
ARM GAS  C:\Users\kroko\AppData\Local\Temp\cckzzzRz.s 			page 14


 301:Core/Src/stm32f4xx_it.c **** 
 302:Core/Src/stm32f4xx_it.c ****   /* USER CODE END DMA2_Stream2_IRQn 1 */
 303:Core/Src/stm32f4xx_it.c **** }
 465              		.loc 1 303 1 is_stmt 0 view .LVU66
 466 0008 08BD     		pop	{r3, pc}
 467              	.L46:
 468 000a 00BF     		.align	2
 469              	.L45:
 470 000c 00000000 		.word	hdma_spi1_tx
 471              		.cfi_endproc
 472              	.LFE149:
 474              		.section	.text.DMA2_Stream6_IRQHandler,"ax",%progbits
 475              		.align	1
 476              		.global	DMA2_Stream6_IRQHandler
 477              		.syntax unified
 478              		.thumb
 479              		.thumb_func
 481              	DMA2_Stream6_IRQHandler:
 482              	.LFB150:
 304:Core/Src/stm32f4xx_it.c **** 
 305:Core/Src/stm32f4xx_it.c **** /**
 306:Core/Src/stm32f4xx_it.c ****   * @brief This function handles DMA2 stream6 global interrupt.
 307:Core/Src/stm32f4xx_it.c ****   */
 308:Core/Src/stm32f4xx_it.c **** void DMA2_Stream6_IRQHandler(void)
 309:Core/Src/stm32f4xx_it.c **** {
 483              		.loc 1 309 1 is_stmt 1 view -0
 484              		.cfi_startproc
 485              		@ args = 0, pretend = 0, frame = 0
 486              		@ frame_needed = 0, uses_anonymous_args = 0
 487 0000 08B5     		push	{r3, lr}
 488              		.cfi_def_cfa_offset 8
 489              		.cfi_offset 3, -8
 490              		.cfi_offset 14, -4
 310:Core/Src/stm32f4xx_it.c ****   /* USER CODE BEGIN DMA2_Stream6_IRQn 0 */
 311:Core/Src/stm32f4xx_it.c **** 
 312:Core/Src/stm32f4xx_it.c ****   /* USER CODE END DMA2_Stream6_IRQn 0 */
 313:Core/Src/stm32f4xx_it.c ****   HAL_DMA_IRQHandler(&hdma_usart6_tx);
 491              		.loc 1 313 3 view .LVU68
 492 0002 0248     		ldr	r0, .L49
 493 0004 FFF7FEFF 		bl	HAL_DMA_IRQHandler
 494              	.LVL8:
 314:Core/Src/stm32f4xx_it.c ****   /* USER CODE BEGIN DMA2_Stream6_IRQn 1 */
 315:Core/Src/stm32f4xx_it.c **** 
 316:Core/Src/stm32f4xx_it.c ****   /* USER CODE END DMA2_Stream6_IRQn 1 */
 317:Core/Src/stm32f4xx_it.c **** }
 495              		.loc 1 317 1 is_stmt 0 view .LVU69
 496 0008 08BD     		pop	{r3, pc}
 497              	.L50:
 498 000a 00BF     		.align	2
 499              	.L49:
 500 000c 00000000 		.word	hdma_usart6_tx
 501              		.cfi_endproc
 502              	.LFE150:
 504              		.section	.text.USART6_IRQHandler,"ax",%progbits
 505              		.align	1
 506              		.global	USART6_IRQHandler
 507              		.syntax unified
ARM GAS  C:\Users\kroko\AppData\Local\Temp\cckzzzRz.s 			page 15


 508              		.thumb
 509              		.thumb_func
 511              	USART6_IRQHandler:
 512              	.LFB151:
 318:Core/Src/stm32f4xx_it.c **** 
 319:Core/Src/stm32f4xx_it.c **** /**
 320:Core/Src/stm32f4xx_it.c ****   * @brief This function handles USART6 global interrupt.
 321:Core/Src/stm32f4xx_it.c ****   */
 322:Core/Src/stm32f4xx_it.c **** void USART6_IRQHandler(void)
 323:Core/Src/stm32f4xx_it.c **** {
 513              		.loc 1 323 1 is_stmt 1 view -0
 514              		.cfi_startproc
 515              		@ args = 0, pretend = 0, frame = 0
 516              		@ frame_needed = 0, uses_anonymous_args = 0
 517 0000 08B5     		push	{r3, lr}
 518              		.cfi_def_cfa_offset 8
 519              		.cfi_offset 3, -8
 520              		.cfi_offset 14, -4
 324:Core/Src/stm32f4xx_it.c ****   /* USER CODE BEGIN USART6_IRQn 0 */
 325:Core/Src/stm32f4xx_it.c **** 
 326:Core/Src/stm32f4xx_it.c ****   /* USER CODE END USART6_IRQn 0 */
 327:Core/Src/stm32f4xx_it.c ****   HAL_UART_IRQHandler(&huart6);
 521              		.loc 1 327 3 view .LVU71
 522 0002 0248     		ldr	r0, .L53
 523 0004 FFF7FEFF 		bl	HAL_UART_IRQHandler
 524              	.LVL9:
 328:Core/Src/stm32f4xx_it.c ****   /* USER CODE BEGIN USART6_IRQn 1 */
 329:Core/Src/stm32f4xx_it.c **** 
 330:Core/Src/stm32f4xx_it.c ****   /* USER CODE END USART6_IRQn 1 */
 331:Core/Src/stm32f4xx_it.c **** }
 525              		.loc 1 331 1 is_stmt 0 view .LVU72
 526 0008 08BD     		pop	{r3, pc}
 527              	.L54:
 528 000a 00BF     		.align	2
 529              	.L53:
 530 000c 00000000 		.word	huart6
 531              		.cfi_endproc
 532              	.LFE151:
 534              		.global	Timer2
 535              		.section	.bss.Timer2,"aw",%nobits
 538              	Timer2:
 539 0000 00       		.space	1
 540              		.global	Timer1
 541              		.section	.bss.Timer1,"aw",%nobits
 544              	Timer1:
 545 0000 00       		.space	1
 546              		.global	FatFsCnt
 547              		.section	.bss.FatFsCnt,"aw",%nobits
 550              	FatFsCnt:
 551 0000 00       		.space	1
 552              		.text
 553              	.Letext0:
 554              		.file 2 "Core/Inc/stm32f4xx_hal_conf.h"
 555              		.file 3 "C:/Users/kroko/AppData/Roaming/Code/User/globalStorage/bmd.stm32-for-vscode/@xpack-dev-to
 556              		.file 4 "C:/Users/kroko/AppData/Roaming/Code/User/globalStorage/bmd.stm32-for-vscode/@xpack-dev-to
 557              		.file 5 "Drivers/CMSIS/Device/ST/STM32F4xx/Include/stm32f413xx.h"
 558              		.file 6 "Drivers/STM32F4xx_HAL_Driver/Inc/stm32f4xx_hal_dma.h"
ARM GAS  C:\Users\kroko\AppData\Local\Temp\cckzzzRz.s 			page 16


 559              		.file 7 "Drivers/STM32F4xx_HAL_Driver/Inc/stm32f4xx_hal_uart.h"
 560              		.file 8 "Drivers/STM32F4xx_HAL_Driver/Inc/stm32f4xx_hal_gpio.h"
 561              		.file 9 "Drivers/STM32F4xx_HAL_Driver/Inc/stm32f4xx_hal.h"
ARM GAS  C:\Users\kroko\AppData\Local\Temp\cckzzzRz.s 			page 17

