ARM GAS  C:\Users\kroko\AppData\Local\Temp\ccP9eVCd.s 			page 1


   1              		.cpu cortex-m4
   2              		.arch armv7e-m
   3              		.fpu fpv4-sp-d16
   4              		.eabi_attribute 27, 1
   5              		.eabi_attribute 28, 1
   6              		.eabi_attribute 20, 1
   7              		.eabi_attribute 21, 1
   8              		.eabi_attribute 23, 3
   9              		.eabi_attribute 24, 1
  10              		.eabi_attribute 25, 1
  11              		.eabi_attribute 26, 1
  12              		.eabi_attribute 30, 1
  13              		.eabi_attribute 34, 1
  14              		.eabi_attribute 18, 4
  15              		.file	"fatfs.c"
  16              		.text
  17              	.Ltext0:
  18              		.cfi_sections	.debug_frame
  19              		.file 1 "FATFS/App/fatfs.c"
  20              		.section	.text.MX_FATFS_Init,"ax",%progbits
  21              		.align	1
  22              		.global	MX_FATFS_Init
  23              		.syntax unified
  24              		.thumb
  25              		.thumb_func
  27              	MX_FATFS_Init:
  28              	.LFB134:
   1:FATFS/App/fatfs.c **** /* USER CODE BEGIN Header */
   2:FATFS/App/fatfs.c **** /**
   3:FATFS/App/fatfs.c ****   ******************************************************************************
   4:FATFS/App/fatfs.c ****   * @file   fatfs.c
   5:FATFS/App/fatfs.c ****   * @brief  Code for fatfs applications
   6:FATFS/App/fatfs.c ****   ******************************************************************************
   7:FATFS/App/fatfs.c ****   * @attention
   8:FATFS/App/fatfs.c ****   *
   9:FATFS/App/fatfs.c ****   * Copyright (c) 2024 STMicroelectronics.
  10:FATFS/App/fatfs.c ****   * All rights reserved.
  11:FATFS/App/fatfs.c ****   *
  12:FATFS/App/fatfs.c ****   * This software is licensed under terms that can be found in the LICENSE file
  13:FATFS/App/fatfs.c ****   * in the root directory of this software component.
  14:FATFS/App/fatfs.c ****   * If no LICENSE file comes with this software, it is provided AS-IS.
  15:FATFS/App/fatfs.c ****   *
  16:FATFS/App/fatfs.c ****   ******************************************************************************
  17:FATFS/App/fatfs.c ****   */
  18:FATFS/App/fatfs.c **** /* USER CODE END Header */
  19:FATFS/App/fatfs.c **** #include "fatfs.h"
  20:FATFS/App/fatfs.c **** 
  21:FATFS/App/fatfs.c **** uint8_t retUSER;    /* Return value for USER */
  22:FATFS/App/fatfs.c **** char USERPath[4];   /* USER logical drive path */
  23:FATFS/App/fatfs.c **** FATFS USERFatFS;    /* File system object for USER logical drive */
  24:FATFS/App/fatfs.c **** FIL USERFile;       /* File object for USER */
  25:FATFS/App/fatfs.c **** 
  26:FATFS/App/fatfs.c **** /* USER CODE BEGIN Variables */
  27:FATFS/App/fatfs.c **** extern RTC_HandleTypeDef hrtc;
  28:FATFS/App/fatfs.c **** /* USER CODE END Variables */
  29:FATFS/App/fatfs.c **** 
  30:FATFS/App/fatfs.c **** void MX_FATFS_Init(void)
ARM GAS  C:\Users\kroko\AppData\Local\Temp\ccP9eVCd.s 			page 2


  31:FATFS/App/fatfs.c **** {
  29              		.loc 1 31 1 view -0
  30              		.cfi_startproc
  31              		@ args = 0, pretend = 0, frame = 0
  32              		@ frame_needed = 0, uses_anonymous_args = 0
  33 0000 08B5     		push	{r3, lr}
  34              		.cfi_def_cfa_offset 8
  35              		.cfi_offset 3, -8
  36              		.cfi_offset 14, -4
  32:FATFS/App/fatfs.c ****   /*## FatFS: Link the USER driver ###########################*/
  33:FATFS/App/fatfs.c ****   retUSER = FATFS_LinkDriver(&USER_Driver, USERPath);
  37              		.loc 1 33 3 view .LVU1
  38              		.loc 1 33 13 is_stmt 0 view .LVU2
  39 0002 0349     		ldr	r1, .L3
  40 0004 0348     		ldr	r0, .L3+4
  41 0006 FFF7FEFF 		bl	FATFS_LinkDriver
  42              	.LVL0:
  43              		.loc 1 33 11 discriminator 1 view .LVU3
  44 000a 034B     		ldr	r3, .L3+8
  45 000c 1870     		strb	r0, [r3]
  34:FATFS/App/fatfs.c **** 
  35:FATFS/App/fatfs.c ****   /* USER CODE BEGIN Init */
  36:FATFS/App/fatfs.c ****   /* additional user code for init */
  37:FATFS/App/fatfs.c ****   /* USER CODE END Init */
  38:FATFS/App/fatfs.c **** }
  46              		.loc 1 38 1 view .LVU4
  47 000e 08BD     		pop	{r3, pc}
  48              	.L4:
  49              		.align	2
  50              	.L3:
  51 0010 00000000 		.word	USERPath
  52 0014 00000000 		.word	USER_Driver
  53 0018 00000000 		.word	retUSER
  54              		.cfi_endproc
  55              	.LFE134:
  57              		.section	.text.get_fattime,"ax",%progbits
  58              		.align	1
  59              		.global	get_fattime
  60              		.syntax unified
  61              		.thumb
  62              		.thumb_func
  64              	get_fattime:
  65              	.LFB135:
  39:FATFS/App/fatfs.c **** 
  40:FATFS/App/fatfs.c **** /**
  41:FATFS/App/fatfs.c ****   * @brief  Gets Time from RTC
  42:FATFS/App/fatfs.c ****   * @param  None
  43:FATFS/App/fatfs.c ****   * @retval Time in DWORD
  44:FATFS/App/fatfs.c ****   */
  45:FATFS/App/fatfs.c **** DWORD get_fattime(void)
  46:FATFS/App/fatfs.c **** {
  66              		.loc 1 46 1 is_stmt 1 view -0
  67              		.cfi_startproc
  68              		@ args = 0, pretend = 0, frame = 24
  69              		@ frame_needed = 0, uses_anonymous_args = 0
  70 0000 10B5     		push	{r4, lr}
  71              		.cfi_def_cfa_offset 8
ARM GAS  C:\Users\kroko\AppData\Local\Temp\ccP9eVCd.s 			page 3


  72              		.cfi_offset 4, -8
  73              		.cfi_offset 14, -4
  74 0002 86B0     		sub	sp, sp, #24
  75              		.cfi_def_cfa_offset 32
  47:FATFS/App/fatfs.c ****   /* USER CODE BEGIN get_fattime */
  48:FATFS/App/fatfs.c ****   // GET RTC DATETIME
  49:FATFS/App/fatfs.c ****   RTC_DateTypeDef gDate;
  76              		.loc 1 49 3 view .LVU6
  50:FATFS/App/fatfs.c ****   RTC_TimeTypeDef gTime;
  77              		.loc 1 50 3 view .LVU7
  51:FATFS/App/fatfs.c ****   
  52:FATFS/App/fatfs.c ****   /* Get the RTC current Time */
  53:FATFS/App/fatfs.c ****   HAL_RTC_GetTime(&hrtc, &gTime, RTC_FORMAT_BIN);
  78              		.loc 1 53 3 view .LVU8
  79 0004 124C     		ldr	r4, .L7
  80 0006 0022     		movs	r2, #0
  81 0008 6946     		mov	r1, sp
  82 000a 2046     		mov	r0, r4
  83 000c FFF7FEFF 		bl	HAL_RTC_GetTime
  84              	.LVL1:
  54:FATFS/App/fatfs.c ****   /* Get the RTC current Date */
  55:FATFS/App/fatfs.c ****   HAL_RTC_GetDate(&hrtc, &gDate, RTC_FORMAT_BIN);
  85              		.loc 1 55 3 view .LVU9
  86 0010 0022     		movs	r2, #0
  87 0012 05A9     		add	r1, sp, #20
  88 0014 2046     		mov	r0, r4
  89 0016 FFF7FEFF 		bl	HAL_RTC_GetDate
  90              	.LVL2:
  56:FATFS/App/fatfs.c ****   
  57:FATFS/App/fatfs.c ****   return (DWORD)(gDate.Year-108)<<25|
  91              		.loc 1 57 3 view .LVU10
  92              		.loc 1 57 23 is_stmt 0 view .LVU11
  93 001a 9DF81720 		ldrb	r2, [sp, #23]	@ zero_extendqisi2
  94              		.loc 1 57 28 view .LVU12
  95 001e 6C3A     		subs	r2, r2, #108
  58:FATFS/App/fatfs.c ****          (DWORD)(gDate.Month)<<21|
  96              		.loc 1 58 23 view .LVU13
  97 0020 9DF81530 		ldrb	r3, [sp, #21]	@ zero_extendqisi2
  98              		.loc 1 58 30 view .LVU14
  99 0024 5B05     		lsls	r3, r3, #21
  57:FATFS/App/fatfs.c ****          (DWORD)(gDate.Month)<<21|
 100              		.loc 1 57 37 view .LVU15
 101 0026 43EA4263 		orr	r3, r3, r2, lsl #25
  59:FATFS/App/fatfs.c ****          (DWORD)(gDate.Date)<<16|
 102              		.loc 1 59 23 view .LVU16
 103 002a 9DF81620 		ldrb	r2, [sp, #22]	@ zero_extendqisi2
  58:FATFS/App/fatfs.c ****          (DWORD)(gDate.Month)<<21|
 104              		.loc 1 58 34 view .LVU17
 105 002e 43EA0243 		orr	r3, r3, r2, lsl #16
  60:FATFS/App/fatfs.c ****          (DWORD)(gTime.Hours)<<11|
 106              		.loc 1 60 23 view .LVU18
 107 0032 9DF80020 		ldrb	r2, [sp]	@ zero_extendqisi2
  59:FATFS/App/fatfs.c ****          (DWORD)(gDate.Date)<<16|
 108              		.loc 1 59 33 view .LVU19
 109 0036 43EAC223 		orr	r3, r3, r2, lsl #11
  61:FATFS/App/fatfs.c ****          (DWORD)(gTime.Minutes)<<5|
 110              		.loc 1 61 23 view .LVU20
ARM GAS  C:\Users\kroko\AppData\Local\Temp\ccP9eVCd.s 			page 4


 111 003a 9DF80120 		ldrb	r2, [sp, #1]	@ zero_extendqisi2
  60:FATFS/App/fatfs.c ****          (DWORD)(gTime.Hours)<<11|
 112              		.loc 1 60 34 view .LVU21
 113 003e 43EA4213 		orr	r3, r3, r2, lsl #5
  62:FATFS/App/fatfs.c ****          (DWORD)(gTime.Seconds)>>1;
 114              		.loc 1 62 23 view .LVU22
 115 0042 9DF80200 		ldrb	r0, [sp, #2]	@ zero_extendqisi2
  63:FATFS/App/fatfs.c ****   /* USER CODE END get_fattime */
  64:FATFS/App/fatfs.c **** }
 116              		.loc 1 64 1 view .LVU23
 117 0046 43EA5000 		orr	r0, r3, r0, lsr #1
 118 004a 06B0     		add	sp, sp, #24
 119              		.cfi_def_cfa_offset 8
 120              		@ sp needed
 121 004c 10BD     		pop	{r4, pc}
 122              	.L8:
 123 004e 00BF     		.align	2
 124              	.L7:
 125 0050 00000000 		.word	hrtc
 126              		.cfi_endproc
 127              	.LFE135:
 129              		.global	USERFile
 130              		.section	.bss.USERFile,"aw",%nobits
 131              		.align	2
 134              	USERFile:
 135 0000 00000000 		.space	4144
 135      00000000 
 135      00000000 
 135      00000000 
 135      00000000 
 136              		.global	USERFatFS
 137              		.section	.bss.USERFatFS,"aw",%nobits
 138              		.align	2
 141              	USERFatFS:
 142 0000 00000000 		.space	4152
 142      00000000 
 142      00000000 
 142      00000000 
 142      00000000 
 143              		.global	USERPath
 144              		.section	.bss.USERPath,"aw",%nobits
 145              		.align	2
 148              	USERPath:
 149 0000 00000000 		.space	4
 150              		.global	retUSER
 151              		.section	.bss.retUSER,"aw",%nobits
 154              	retUSER:
 155 0000 00       		.space	1
 156              		.text
 157              	.Letext0:
 158              		.file 2 "Middlewares/Third_Party/FatFs/src/integer.h"
 159              		.file 3 "Core/Inc/stm32f4xx_hal_conf.h"
 160              		.file 4 "C:/Users/kroko/AppData/Roaming/Code/User/globalStorage/bmd.stm32-for-vscode/@xpack-dev-to
 161              		.file 5 "C:/Users/kroko/AppData/Roaming/Code/User/globalStorage/bmd.stm32-for-vscode/@xpack-dev-to
 162              		.file 6 "Drivers/CMSIS/Device/ST/STM32F4xx/Include/stm32f413xx.h"
 163              		.file 7 "Drivers/STM32F4xx_HAL_Driver/Inc/stm32f4xx_hal_rtc.h"
 164              		.file 8 "Middlewares/Third_Party/FatFs/src/ff.h"
ARM GAS  C:\Users\kroko\AppData\Local\Temp\ccP9eVCd.s 			page 5


 165              		.file 9 "Middlewares/Third_Party/FatFs/src/diskio.h"
 166              		.file 10 "Middlewares/Third_Party/FatFs/src/ff_gen_drv.h"
 167              		.file 11 "FATFS/Target/user_diskio.h"
 168              		.file 12 "FATFS/App/fatfs.h"
ARM GAS  C:\Users\kroko\AppData\Local\Temp\ccP9eVCd.s 			page 6

